
STM32 Midi Controller.elf:     file format elf32-littlearm

Sections:
Idx Name          Size      VMA       LMA       File off  Algn
  0 .isr_vector   0000010c  08000000  08000000  00010000  2**0
                  CONTENTS, ALLOC, LOAD, READONLY, DATA
  1 .text         00007e64  0800010c  0800010c  0001010c  2**2
                  CONTENTS, ALLOC, LOAD, READONLY, CODE
  2 .rodata       00000074  08007f70  08007f70  00017f70  2**2
                  CONTENTS, ALLOC, LOAD, READONLY, DATA
  3 .ARM.extab    00000000  08007fe4  08007fe4  00020190  2**0
                  CONTENTS
  4 .ARM          00000000  08007fe4  08007fe4  00020190  2**0
                  CONTENTS
  5 .preinit_array 00000000  08007fe4  08007fe4  00020190  2**0
                  CONTENTS, ALLOC, LOAD, DATA
  6 .init_array   00000004  08007fe4  08007fe4  00017fe4  2**2
                  CONTENTS, ALLOC, LOAD, DATA
  7 .fini_array   00000004  08007fe8  08007fe8  00017fe8  2**2
                  CONTENTS, ALLOC, LOAD, DATA
  8 .data         00000190  20000000  08007fec  00020000  2**2
                  CONTENTS, ALLOC, LOAD, DATA
  9 .bss          000012f4  20000190  0800817c  00020190  2**2
                  ALLOC
 10 ._user_heap_stack 00000604  20001484  0800817c  00021484  2**0
                  ALLOC
 11 .ARM.attributes 00000029  00000000  00000000  00020190  2**0
                  CONTENTS, READONLY
 12 .debug_info   0001a561  00000000  00000000  000201b9  2**0
                  CONTENTS, READONLY, DEBUGGING
 13 .debug_abbrev 00003445  00000000  00000000  0003a71a  2**0
                  CONTENTS, READONLY, DEBUGGING
 14 .debug_aranges 000013a8  00000000  00000000  0003db60  2**3
                  CONTENTS, READONLY, DEBUGGING
 15 .debug_ranges 00001248  00000000  00000000  0003ef08  2**3
                  CONTENTS, READONLY, DEBUGGING
 16 .debug_macro  0001b510  00000000  00000000  00040150  2**0
                  CONTENTS, READONLY, DEBUGGING
 17 .debug_line   00012a3a  00000000  00000000  0005b660  2**0
                  CONTENTS, READONLY, DEBUGGING
 18 .debug_str    00094214  00000000  00000000  0006e09a  2**0
                  CONTENTS, READONLY, DEBUGGING
 19 .comment      0000007b  00000000  00000000  001022ae  2**0
                  CONTENTS, READONLY
 20 .debug_frame  0000521c  00000000  00000000  0010232c  2**2
                  CONTENTS, READONLY, DEBUGGING

Disassembly of section .text:

0800010c <__do_global_dtors_aux>:
 800010c:	b510      	push	{r4, lr}
 800010e:	4c05      	ldr	r4, [pc, #20]	; (8000124 <__do_global_dtors_aux+0x18>)
 8000110:	7823      	ldrb	r3, [r4, #0]
 8000112:	b933      	cbnz	r3, 8000122 <__do_global_dtors_aux+0x16>
 8000114:	4b04      	ldr	r3, [pc, #16]	; (8000128 <__do_global_dtors_aux+0x1c>)
 8000116:	b113      	cbz	r3, 800011e <__do_global_dtors_aux+0x12>
 8000118:	4804      	ldr	r0, [pc, #16]	; (800012c <__do_global_dtors_aux+0x20>)
 800011a:	f3af 8000 	nop.w
 800011e:	2301      	movs	r3, #1
 8000120:	7023      	strb	r3, [r4, #0]
 8000122:	bd10      	pop	{r4, pc}
 8000124:	20000190 	.word	0x20000190
 8000128:	00000000 	.word	0x00000000
 800012c:	08007f58 	.word	0x08007f58

08000130 <frame_dummy>:
 8000130:	b508      	push	{r3, lr}
 8000132:	4b03      	ldr	r3, [pc, #12]	; (8000140 <frame_dummy+0x10>)
 8000134:	b11b      	cbz	r3, 800013e <frame_dummy+0xe>
 8000136:	4903      	ldr	r1, [pc, #12]	; (8000144 <frame_dummy+0x14>)
 8000138:	4803      	ldr	r0, [pc, #12]	; (8000148 <frame_dummy+0x18>)
 800013a:	f3af 8000 	nop.w
 800013e:	bd08      	pop	{r3, pc}
 8000140:	00000000 	.word	0x00000000
 8000144:	20000194 	.word	0x20000194
 8000148:	08007f58 	.word	0x08007f58

0800014c <DWT_Delay_Init>:
/* Private user code ---------------------------------------------------------*/
/* USER CODE BEGIN 0 */

/* DWT based delay */
uint32_t DWT_Delay_Init(void)
{
 800014c:	b480      	push	{r7}
 800014e:	af00      	add	r7, sp, #0
    /* Disable TRC */
    CoreDebug->DEMCR &= ~CoreDebug_DEMCR_TRCENA_Msk; // ~0x01000000;
 8000150:	4b14      	ldr	r3, [pc, #80]	; (80001a4 <DWT_Delay_Init+0x58>)
 8000152:	68db      	ldr	r3, [r3, #12]
 8000154:	4a13      	ldr	r2, [pc, #76]	; (80001a4 <DWT_Delay_Init+0x58>)
 8000156:	f023 7380 	bic.w	r3, r3, #16777216	; 0x1000000
 800015a:	60d3      	str	r3, [r2, #12]
    /* Enable TRC */
    CoreDebug->DEMCR |=  CoreDebug_DEMCR_TRCENA_Msk; // 0x01000000;
 800015c:	4b11      	ldr	r3, [pc, #68]	; (80001a4 <DWT_Delay_Init+0x58>)
 800015e:	68db      	ldr	r3, [r3, #12]
 8000160:	4a10      	ldr	r2, [pc, #64]	; (80001a4 <DWT_Delay_Init+0x58>)
 8000162:	f043 7380 	orr.w	r3, r3, #16777216	; 0x1000000
 8000166:	60d3      	str	r3, [r2, #12]
    /* Disable clock cycle counter */
    DWT->CTRL &= ~DWT_CTRL_CYCCNTENA_Msk; //~0x00000001;
 8000168:	4b0f      	ldr	r3, [pc, #60]	; (80001a8 <DWT_Delay_Init+0x5c>)
 800016a:	681b      	ldr	r3, [r3, #0]
 800016c:	4a0e      	ldr	r2, [pc, #56]	; (80001a8 <DWT_Delay_Init+0x5c>)
 800016e:	f023 0301 	bic.w	r3, r3, #1
 8000172:	6013      	str	r3, [r2, #0]
    /* Enable  clock cycle counter */
    DWT->CTRL |=  DWT_CTRL_CYCCNTENA_Msk; //0x00000001;
 8000174:	4b0c      	ldr	r3, [pc, #48]	; (80001a8 <DWT_Delay_Init+0x5c>)
 8000176:	681b      	ldr	r3, [r3, #0]
 8000178:	4a0b      	ldr	r2, [pc, #44]	; (80001a8 <DWT_Delay_Init+0x5c>)
 800017a:	f043 0301 	orr.w	r3, r3, #1
 800017e:	6013      	str	r3, [r2, #0]
    /* Reset the clock cycle counter value */
    DWT->CYCCNT = 0;
 8000180:	4b09      	ldr	r3, [pc, #36]	; (80001a8 <DWT_Delay_Init+0x5c>)
 8000182:	2200      	movs	r2, #0
 8000184:	605a      	str	r2, [r3, #4]
    /* 3 NO OPERATION instructions */
    __ASM volatile ("NOP");
 8000186:	bf00      	nop
    __ASM volatile ("NOP");
 8000188:	bf00      	nop
    __ASM volatile ("NOP");
 800018a:	bf00      	nop
    /* Check if clock cycle counter has started */
    if(DWT->CYCCNT)
 800018c:	4b06      	ldr	r3, [pc, #24]	; (80001a8 <DWT_Delay_Init+0x5c>)
 800018e:	685b      	ldr	r3, [r3, #4]
 8000190:	2b00      	cmp	r3, #0
 8000192:	d001      	beq.n	8000198 <DWT_Delay_Init+0x4c>
    {
       return 0; /*clock cycle counter started*/
 8000194:	2300      	movs	r3, #0
 8000196:	e000      	b.n	800019a <DWT_Delay_Init+0x4e>
    }
    else
    {
      return 1; /*clock cycle counter not started*/
 8000198:	2301      	movs	r3, #1
    }
}
 800019a:	4618      	mov	r0, r3
 800019c:	46bd      	mov	sp, r7
 800019e:	bc80      	pop	{r7}
 80001a0:	4770      	bx	lr
 80001a2:	bf00      	nop
 80001a4:	e000edf0 	.word	0xe000edf0
 80001a8:	e0001000 	.word	0xe0001000

080001ac <main>:
/**
  * @brief  The application entry point.
  * @retval int
  */
int main(void)
{
 80001ac:	b580      	push	{r7, lr}
 80001ae:	af00      	add	r7, sp, #0
  /* USER CODE END 1 */

  /* MCU Configuration--------------------------------------------------------*/

  /* Reset of all peripherals, Initializes the Flash interface and the Systick. */
  HAL_Init();
 80001b0:	f000 fc44 	bl	8000a3c <HAL_Init>
  /* USER CODE BEGIN Init */

  /* USER CODE END Init */

  /* Configure the system clock */
  SystemClock_Config();
 80001b4:	f000 f82e 	bl	8000214 <SystemClock_Config>
  /* USER CODE BEGIN SysInit */

  /* USER CODE END SysInit */

  /* Initialize all configured peripherals */
  MX_GPIO_Init();
 80001b8:	f000 f994 	bl	80004e4 <MX_GPIO_Init>
  MX_USB_DEVICE_Init();
 80001bc:	f007 fa2a 	bl	8007614 <MX_USB_DEVICE_Init>
  MX_ADC1_Init();
 80001c0:	f000 f892 	bl	80002e8 <MX_ADC1_Init>
  MX_I2C1_Init();
 80001c4:	f000 f8ce 	bl	8000364 <MX_I2C1_Init>
  MX_I2C2_Init();
 80001c8:	f000 f8fa 	bl	80003c0 <MX_I2C2_Init>
  MX_TIM2_Init();
 80001cc:	f000 f926 	bl	800041c <MX_TIM2_Init>

  /* Initialize interrupts */
  MX_NVIC_Init();
 80001d0:	f000 f87d 	bl	80002ce <MX_NVIC_Init>
  /* USER CODE BEGIN 2 */
  DWT_Delay_Init();
 80001d4:	f7ff ffba 	bl	800014c <DWT_Delay_Init>
  I2C2->CR1 |= 1; //enable i2c 2 peripheral for LCD and EEPROM
 80001d8:	4b0b      	ldr	r3, [pc, #44]	; (8000208 <main+0x5c>)
 80001da:	681b      	ldr	r3, [r3, #0]
 80001dc:	4a0a      	ldr	r2, [pc, #40]	; (8000208 <main+0x5c>)
 80001de:	f043 0301 	orr.w	r3, r3, #1
 80001e2:	6013      	str	r3, [r2, #0]
  while (1)
  {
    /* USER CODE END WHILE */

    /* USER CODE BEGIN 3 */
	  brightness[0] = encoderValues[3];
 80001e4:	4b09      	ldr	r3, [pc, #36]	; (800020c <main+0x60>)
 80001e6:	78da      	ldrb	r2, [r3, #3]
 80001e8:	4b09      	ldr	r3, [pc, #36]	; (8000210 <main+0x64>)
 80001ea:	701a      	strb	r2, [r3, #0]
	  brightness[1] = encoderValues[2];
 80001ec:	4b07      	ldr	r3, [pc, #28]	; (800020c <main+0x60>)
 80001ee:	789a      	ldrb	r2, [r3, #2]
 80001f0:	4b07      	ldr	r3, [pc, #28]	; (8000210 <main+0x64>)
 80001f2:	705a      	strb	r2, [r3, #1]
	  brightness[2] = encoderValues[1];
 80001f4:	4b05      	ldr	r3, [pc, #20]	; (800020c <main+0x60>)
 80001f6:	785a      	ldrb	r2, [r3, #1]
 80001f8:	4b05      	ldr	r3, [pc, #20]	; (8000210 <main+0x64>)
 80001fa:	709a      	strb	r2, [r3, #2]
	  brightness[3] = encoderValues[0];
 80001fc:	4b03      	ldr	r3, [pc, #12]	; (800020c <main+0x60>)
 80001fe:	781a      	ldrb	r2, [r3, #0]
 8000200:	4b03      	ldr	r3, [pc, #12]	; (8000210 <main+0x64>)
 8000202:	70da      	strb	r2, [r3, #3]
	  brightness[0] = encoderValues[3];
 8000204:	e7ee      	b.n	80001e4 <main+0x38>
 8000206:	bf00      	nop
 8000208:	40005800 	.word	0x40005800
 800020c:	200001b8 	.word	0x200001b8
 8000210:	20000000 	.word	0x20000000

08000214 <SystemClock_Config>:
/**
  * @brief System Clock Configuration
  * @retval None
  */
void SystemClock_Config(void)
{
 8000214:	b580      	push	{r7, lr}
 8000216:	b094      	sub	sp, #80	; 0x50
 8000218:	af00      	add	r7, sp, #0
  RCC_OscInitTypeDef RCC_OscInitStruct = {0};
 800021a:	f107 0328 	add.w	r3, r7, #40	; 0x28
 800021e:	2228      	movs	r2, #40	; 0x28
 8000220:	2100      	movs	r1, #0
 8000222:	4618      	mov	r0, r3
 8000224:	f007 fe90 	bl	8007f48 <memset>
  RCC_ClkInitTypeDef RCC_ClkInitStruct = {0};
 8000228:	f107 0314 	add.w	r3, r7, #20
 800022c:	2200      	movs	r2, #0
 800022e:	601a      	str	r2, [r3, #0]
 8000230:	605a      	str	r2, [r3, #4]
 8000232:	609a      	str	r2, [r3, #8]
 8000234:	60da      	str	r2, [r3, #12]
 8000236:	611a      	str	r2, [r3, #16]
  RCC_PeriphCLKInitTypeDef PeriphClkInit = {0};
 8000238:	1d3b      	adds	r3, r7, #4
 800023a:	2200      	movs	r2, #0
 800023c:	601a      	str	r2, [r3, #0]
 800023e:	605a      	str	r2, [r3, #4]
 8000240:	609a      	str	r2, [r3, #8]
 8000242:	60da      	str	r2, [r3, #12]

  /** Initializes the RCC Oscillators according to the specified parameters
  * in the RCC_OscInitTypeDef structure.
  */
  RCC_OscInitStruct.OscillatorType = RCC_OSCILLATORTYPE_HSE;
 8000244:	2301      	movs	r3, #1
 8000246:	62bb      	str	r3, [r7, #40]	; 0x28
  RCC_OscInitStruct.HSEState = RCC_HSE_ON;
 8000248:	f44f 3380 	mov.w	r3, #65536	; 0x10000
 800024c:	62fb      	str	r3, [r7, #44]	; 0x2c
  RCC_OscInitStruct.HSEPredivValue = RCC_HSE_PREDIV_DIV1;
 800024e:	2300      	movs	r3, #0
 8000250:	633b      	str	r3, [r7, #48]	; 0x30
  RCC_OscInitStruct.HSIState = RCC_HSI_ON;
 8000252:	2301      	movs	r3, #1
 8000254:	63bb      	str	r3, [r7, #56]	; 0x38
  RCC_OscInitStruct.PLL.PLLState = RCC_PLL_ON;
 8000256:	2302      	movs	r3, #2
 8000258:	647b      	str	r3, [r7, #68]	; 0x44
  RCC_OscInitStruct.PLL.PLLSource = RCC_PLLSOURCE_HSE;
 800025a:	f44f 3380 	mov.w	r3, #65536	; 0x10000
 800025e:	64bb      	str	r3, [r7, #72]	; 0x48
  RCC_OscInitStruct.PLL.PLLMUL = RCC_PLL_MUL9;
 8000260:	f44f 13e0 	mov.w	r3, #1835008	; 0x1c0000
 8000264:	64fb      	str	r3, [r7, #76]	; 0x4c
  if (HAL_RCC_OscConfig(&RCC_OscInitStruct) != HAL_OK)
 8000266:	f107 0328 	add.w	r3, r7, #40	; 0x28
 800026a:	4618      	mov	r0, r3
 800026c:	f002 fd8e 	bl	8002d8c <HAL_RCC_OscConfig>
 8000270:	4603      	mov	r3, r0
 8000272:	2b00      	cmp	r3, #0
 8000274:	d001      	beq.n	800027a <SystemClock_Config+0x66>
  {
    Error_Handler();
 8000276:	f000 f9c7 	bl	8000608 <Error_Handler>
  }
  /** Initializes the CPU, AHB and APB buses clocks
  */
  RCC_ClkInitStruct.ClockType = RCC_CLOCKTYPE_HCLK|RCC_CLOCKTYPE_SYSCLK
 800027a:	230f      	movs	r3, #15
 800027c:	617b      	str	r3, [r7, #20]
                              |RCC_CLOCKTYPE_PCLK1|RCC_CLOCKTYPE_PCLK2;
  RCC_ClkInitStruct.SYSCLKSource = RCC_SYSCLKSOURCE_PLLCLK;
 800027e:	2302      	movs	r3, #2
 8000280:	61bb      	str	r3, [r7, #24]
  RCC_ClkInitStruct.AHBCLKDivider = RCC_SYSCLK_DIV1;
 8000282:	2300      	movs	r3, #0
 8000284:	61fb      	str	r3, [r7, #28]
  RCC_ClkInitStruct.APB1CLKDivider = RCC_HCLK_DIV2;
 8000286:	f44f 6380 	mov.w	r3, #1024	; 0x400
 800028a:	623b      	str	r3, [r7, #32]
  RCC_ClkInitStruct.APB2CLKDivider = RCC_HCLK_DIV1;
 800028c:	2300      	movs	r3, #0
 800028e:	627b      	str	r3, [r7, #36]	; 0x24

  if (HAL_RCC_ClockConfig(&RCC_ClkInitStruct, FLASH_LATENCY_2) != HAL_OK)
 8000290:	f107 0314 	add.w	r3, r7, #20
 8000294:	2102      	movs	r1, #2
 8000296:	4618      	mov	r0, r3
 8000298:	f002 fff8 	bl	800328c <HAL_RCC_ClockConfig>
 800029c:	4603      	mov	r3, r0
 800029e:	2b00      	cmp	r3, #0
 80002a0:	d001      	beq.n	80002a6 <SystemClock_Config+0x92>
  {
    Error_Handler();
 80002a2:	f000 f9b1 	bl	8000608 <Error_Handler>
  }
  PeriphClkInit.PeriphClockSelection = RCC_PERIPHCLK_ADC|RCC_PERIPHCLK_USB;
 80002a6:	2312      	movs	r3, #18
 80002a8:	607b      	str	r3, [r7, #4]
  PeriphClkInit.AdcClockSelection = RCC_ADCPCLK2_DIV6;
 80002aa:	f44f 4300 	mov.w	r3, #32768	; 0x8000
 80002ae:	60fb      	str	r3, [r7, #12]
  PeriphClkInit.UsbClockSelection = RCC_USBCLKSOURCE_PLL_DIV1_5;
 80002b0:	2300      	movs	r3, #0
 80002b2:	613b      	str	r3, [r7, #16]
  if (HAL_RCCEx_PeriphCLKConfig(&PeriphClkInit) != HAL_OK)
 80002b4:	1d3b      	adds	r3, r7, #4
 80002b6:	4618      	mov	r0, r3
 80002b8:	f003 f970 	bl	800359c <HAL_RCCEx_PeriphCLKConfig>
 80002bc:	4603      	mov	r3, r0
 80002be:	2b00      	cmp	r3, #0
 80002c0:	d001      	beq.n	80002c6 <SystemClock_Config+0xb2>
  {
    Error_Handler();
 80002c2:	f000 f9a1 	bl	8000608 <Error_Handler>
  }
}
 80002c6:	bf00      	nop
 80002c8:	3750      	adds	r7, #80	; 0x50
 80002ca:	46bd      	mov	sp, r7
 80002cc:	bd80      	pop	{r7, pc}

080002ce <MX_NVIC_Init>:
/**
  * @brief NVIC Configuration.
  * @retval None
  */
static void MX_NVIC_Init(void)
{
 80002ce:	b580      	push	{r7, lr}
 80002d0:	af00      	add	r7, sp, #0
  /* TIM2_IRQn interrupt configuration */
  HAL_NVIC_SetPriority(TIM2_IRQn, 0, 0);
 80002d2:	2200      	movs	r2, #0
 80002d4:	2100      	movs	r1, #0
 80002d6:	201c      	movs	r0, #28
 80002d8:	f000 fef3 	bl	80010c2 <HAL_NVIC_SetPriority>
  HAL_NVIC_EnableIRQ(TIM2_IRQn);
 80002dc:	201c      	movs	r0, #28
 80002de:	f000 ff0c 	bl	80010fa <HAL_NVIC_EnableIRQ>
}
 80002e2:	bf00      	nop
 80002e4:	bd80      	pop	{r7, pc}
	...

080002e8 <MX_ADC1_Init>:
  * @brief ADC1 Initialization Function
  * @param None
  * @retval None
  */
static void MX_ADC1_Init(void)
{
 80002e8:	b580      	push	{r7, lr}
 80002ea:	b084      	sub	sp, #16
 80002ec:	af00      	add	r7, sp, #0

  /* USER CODE BEGIN ADC1_Init 0 */

  /* USER CODE END ADC1_Init 0 */

  ADC_ChannelConfTypeDef sConfig = {0};
 80002ee:	1d3b      	adds	r3, r7, #4
 80002f0:	2200      	movs	r2, #0
 80002f2:	601a      	str	r2, [r3, #0]
 80002f4:	605a      	str	r2, [r3, #4]
 80002f6:	609a      	str	r2, [r3, #8]
  /* USER CODE BEGIN ADC1_Init 1 */

  /* USER CODE END ADC1_Init 1 */
  /** Common config
  */
  hadc1.Instance = ADC1;
 80002f8:	4b18      	ldr	r3, [pc, #96]	; (800035c <MX_ADC1_Init+0x74>)
 80002fa:	4a19      	ldr	r2, [pc, #100]	; (8000360 <MX_ADC1_Init+0x78>)
 80002fc:	601a      	str	r2, [r3, #0]
  hadc1.Init.ScanConvMode = ADC_SCAN_DISABLE;
 80002fe:	4b17      	ldr	r3, [pc, #92]	; (800035c <MX_ADC1_Init+0x74>)
 8000300:	2200      	movs	r2, #0
 8000302:	609a      	str	r2, [r3, #8]
  hadc1.Init.ContinuousConvMode = DISABLE;
 8000304:	4b15      	ldr	r3, [pc, #84]	; (800035c <MX_ADC1_Init+0x74>)
 8000306:	2200      	movs	r2, #0
 8000308:	731a      	strb	r2, [r3, #12]
  hadc1.Init.DiscontinuousConvMode = DISABLE;
 800030a:	4b14      	ldr	r3, [pc, #80]	; (800035c <MX_ADC1_Init+0x74>)
 800030c:	2200      	movs	r2, #0
 800030e:	751a      	strb	r2, [r3, #20]
  hadc1.Init.ExternalTrigConv = ADC_SOFTWARE_START;
 8000310:	4b12      	ldr	r3, [pc, #72]	; (800035c <MX_ADC1_Init+0x74>)
 8000312:	f44f 2260 	mov.w	r2, #917504	; 0xe0000
 8000316:	61da      	str	r2, [r3, #28]
  hadc1.Init.DataAlign = ADC_DATAALIGN_RIGHT;
 8000318:	4b10      	ldr	r3, [pc, #64]	; (800035c <MX_ADC1_Init+0x74>)
 800031a:	2200      	movs	r2, #0
 800031c:	605a      	str	r2, [r3, #4]
  hadc1.Init.NbrOfConversion = 1;
 800031e:	4b0f      	ldr	r3, [pc, #60]	; (800035c <MX_ADC1_Init+0x74>)
 8000320:	2201      	movs	r2, #1
 8000322:	611a      	str	r2, [r3, #16]
  if (HAL_ADC_Init(&hadc1) != HAL_OK)
 8000324:	480d      	ldr	r0, [pc, #52]	; (800035c <MX_ADC1_Init+0x74>)
 8000326:	f000 fbeb 	bl	8000b00 <HAL_ADC_Init>
 800032a:	4603      	mov	r3, r0
 800032c:	2b00      	cmp	r3, #0
 800032e:	d001      	beq.n	8000334 <MX_ADC1_Init+0x4c>
  {
    Error_Handler();
 8000330:	f000 f96a 	bl	8000608 <Error_Handler>
  }
  /** Configure Regular Channel
  */
  sConfig.Channel = ADC_CHANNEL_0;
 8000334:	2300      	movs	r3, #0
 8000336:	607b      	str	r3, [r7, #4]
  sConfig.Rank = ADC_REGULAR_RANK_1;
 8000338:	2301      	movs	r3, #1
 800033a:	60bb      	str	r3, [r7, #8]
  sConfig.SamplingTime = ADC_SAMPLETIME_1CYCLE_5;
 800033c:	2300      	movs	r3, #0
 800033e:	60fb      	str	r3, [r7, #12]
  if (HAL_ADC_ConfigChannel(&hadc1, &sConfig) != HAL_OK)
 8000340:	1d3b      	adds	r3, r7, #4
 8000342:	4619      	mov	r1, r3
 8000344:	4805      	ldr	r0, [pc, #20]	; (800035c <MX_ADC1_Init+0x74>)
 8000346:	f000 fcb3 	bl	8000cb0 <HAL_ADC_ConfigChannel>
 800034a:	4603      	mov	r3, r0
 800034c:	2b00      	cmp	r3, #0
 800034e:	d001      	beq.n	8000354 <MX_ADC1_Init+0x6c>
  {
    Error_Handler();
 8000350:	f000 f95a 	bl	8000608 <Error_Handler>
  }
  /* USER CODE BEGIN ADC1_Init 2 */

  /* USER CODE END ADC1_Init 2 */

}
 8000354:	bf00      	nop
 8000356:	3710      	adds	r7, #16
 8000358:	46bd      	mov	sp, r7
 800035a:	bd80      	pop	{r7, pc}
 800035c:	20000488 	.word	0x20000488
 8000360:	40012400 	.word	0x40012400

08000364 <MX_I2C1_Init>:
  * @brief I2C1 Initialization Function
  * @param None
  * @retval None
  */
static void MX_I2C1_Init(void)
{
 8000364:	b580      	push	{r7, lr}
 8000366:	af00      	add	r7, sp, #0
  /* USER CODE END I2C1_Init 0 */

  /* USER CODE BEGIN I2C1_Init 1 */

  /* USER CODE END I2C1_Init 1 */
  hi2c1.Instance = I2C1;
 8000368:	4b12      	ldr	r3, [pc, #72]	; (80003b4 <MX_I2C1_Init+0x50>)
 800036a:	4a13      	ldr	r2, [pc, #76]	; (80003b8 <MX_I2C1_Init+0x54>)
 800036c:	601a      	str	r2, [r3, #0]
  hi2c1.Init.ClockSpeed = 400000;
 800036e:	4b11      	ldr	r3, [pc, #68]	; (80003b4 <MX_I2C1_Init+0x50>)
 8000370:	4a12      	ldr	r2, [pc, #72]	; (80003bc <MX_I2C1_Init+0x58>)
 8000372:	605a      	str	r2, [r3, #4]
  hi2c1.Init.DutyCycle = I2C_DUTYCYCLE_2;
 8000374:	4b0f      	ldr	r3, [pc, #60]	; (80003b4 <MX_I2C1_Init+0x50>)
 8000376:	2200      	movs	r2, #0
 8000378:	609a      	str	r2, [r3, #8]
  hi2c1.Init.OwnAddress1 = 0;
 800037a:	4b0e      	ldr	r3, [pc, #56]	; (80003b4 <MX_I2C1_Init+0x50>)
 800037c:	2200      	movs	r2, #0
 800037e:	60da      	str	r2, [r3, #12]
  hi2c1.Init.AddressingMode = I2C_ADDRESSINGMODE_7BIT;
 8000380:	4b0c      	ldr	r3, [pc, #48]	; (80003b4 <MX_I2C1_Init+0x50>)
 8000382:	f44f 4280 	mov.w	r2, #16384	; 0x4000
 8000386:	611a      	str	r2, [r3, #16]
  hi2c1.Init.DualAddressMode = I2C_DUALADDRESS_DISABLE;
 8000388:	4b0a      	ldr	r3, [pc, #40]	; (80003b4 <MX_I2C1_Init+0x50>)
 800038a:	2200      	movs	r2, #0
 800038c:	615a      	str	r2, [r3, #20]
  hi2c1.Init.OwnAddress2 = 0;
 800038e:	4b09      	ldr	r3, [pc, #36]	; (80003b4 <MX_I2C1_Init+0x50>)
 8000390:	2200      	movs	r2, #0
 8000392:	619a      	str	r2, [r3, #24]
  hi2c1.Init.GeneralCallMode = I2C_GENERALCALL_DISABLE;
 8000394:	4b07      	ldr	r3, [pc, #28]	; (80003b4 <MX_I2C1_Init+0x50>)
 8000396:	2200      	movs	r2, #0
 8000398:	61da      	str	r2, [r3, #28]
  hi2c1.Init.NoStretchMode = I2C_NOSTRETCH_DISABLE;
 800039a:	4b06      	ldr	r3, [pc, #24]	; (80003b4 <MX_I2C1_Init+0x50>)
 800039c:	2200      	movs	r2, #0
 800039e:	621a      	str	r2, [r3, #32]
  if (HAL_I2C_Init(&hi2c1) != HAL_OK)
 80003a0:	4804      	ldr	r0, [pc, #16]	; (80003b4 <MX_I2C1_Init+0x50>)
 80003a2:	f001 f837 	bl	8001414 <HAL_I2C_Init>
 80003a6:	4603      	mov	r3, r0
 80003a8:	2b00      	cmp	r3, #0
 80003aa:	d001      	beq.n	80003b0 <MX_I2C1_Init+0x4c>
  {
    Error_Handler();
 80003ac:	f000 f92c 	bl	8000608 <Error_Handler>
  }
  /* USER CODE BEGIN I2C1_Init 2 */

  /* USER CODE END I2C1_Init 2 */

}
 80003b0:	bf00      	nop
 80003b2:	bd80      	pop	{r7, pc}
 80003b4:	200003e0 	.word	0x200003e0
 80003b8:	40005400 	.word	0x40005400
 80003bc:	00061a80 	.word	0x00061a80

080003c0 <MX_I2C2_Init>:
  * @brief I2C2 Initialization Function
  * @param None
  * @retval None
  */
static void MX_I2C2_Init(void)
{
 80003c0:	b580      	push	{r7, lr}
 80003c2:	af00      	add	r7, sp, #0
  /* USER CODE END I2C2_Init 0 */

  /* USER CODE BEGIN I2C2_Init 1 */

  /* USER CODE END I2C2_Init 1 */
  hi2c2.Instance = I2C2;
 80003c4:	4b12      	ldr	r3, [pc, #72]	; (8000410 <MX_I2C2_Init+0x50>)
 80003c6:	4a13      	ldr	r2, [pc, #76]	; (8000414 <MX_I2C2_Init+0x54>)
 80003c8:	601a      	str	r2, [r3, #0]
  hi2c2.Init.ClockSpeed = 400000;
 80003ca:	4b11      	ldr	r3, [pc, #68]	; (8000410 <MX_I2C2_Init+0x50>)
 80003cc:	4a12      	ldr	r2, [pc, #72]	; (8000418 <MX_I2C2_Init+0x58>)
 80003ce:	605a      	str	r2, [r3, #4]
  hi2c2.Init.DutyCycle = I2C_DUTYCYCLE_2;
 80003d0:	4b0f      	ldr	r3, [pc, #60]	; (8000410 <MX_I2C2_Init+0x50>)
 80003d2:	2200      	movs	r2, #0
 80003d4:	609a      	str	r2, [r3, #8]
  hi2c2.Init.OwnAddress1 = 0;
 80003d6:	4b0e      	ldr	r3, [pc, #56]	; (8000410 <MX_I2C2_Init+0x50>)
 80003d8:	2200      	movs	r2, #0
 80003da:	60da      	str	r2, [r3, #12]
  hi2c2.Init.AddressingMode = I2C_ADDRESSINGMODE_7BIT;
 80003dc:	4b0c      	ldr	r3, [pc, #48]	; (8000410 <MX_I2C2_Init+0x50>)
 80003de:	f44f 4280 	mov.w	r2, #16384	; 0x4000
 80003e2:	611a      	str	r2, [r3, #16]
  hi2c2.Init.DualAddressMode = I2C_DUALADDRESS_DISABLE;
 80003e4:	4b0a      	ldr	r3, [pc, #40]	; (8000410 <MX_I2C2_Init+0x50>)
 80003e6:	2200      	movs	r2, #0
 80003e8:	615a      	str	r2, [r3, #20]
  hi2c2.Init.OwnAddress2 = 0;
 80003ea:	4b09      	ldr	r3, [pc, #36]	; (8000410 <MX_I2C2_Init+0x50>)
 80003ec:	2200      	movs	r2, #0
 80003ee:	619a      	str	r2, [r3, #24]
  hi2c2.Init.GeneralCallMode = I2C_GENERALCALL_DISABLE;
 80003f0:	4b07      	ldr	r3, [pc, #28]	; (8000410 <MX_I2C2_Init+0x50>)
 80003f2:	2200      	movs	r2, #0
 80003f4:	61da      	str	r2, [r3, #28]
  hi2c2.Init.NoStretchMode = I2C_NOSTRETCH_DISABLE;
 80003f6:	4b06      	ldr	r3, [pc, #24]	; (8000410 <MX_I2C2_Init+0x50>)
 80003f8:	2200      	movs	r2, #0
 80003fa:	621a      	str	r2, [r3, #32]
  if (HAL_I2C_Init(&hi2c2) != HAL_OK)
 80003fc:	4804      	ldr	r0, [pc, #16]	; (8000410 <MX_I2C2_Init+0x50>)
 80003fe:	f001 f809 	bl	8001414 <HAL_I2C_Init>
 8000402:	4603      	mov	r3, r0
 8000404:	2b00      	cmp	r3, #0
 8000406:	d001      	beq.n	800040c <MX_I2C2_Init+0x4c>
  {
    Error_Handler();
 8000408:	f000 f8fe 	bl	8000608 <Error_Handler>
  }
  /* USER CODE BEGIN I2C2_Init 2 */

  /* USER CODE END I2C2_Init 2 */

}
 800040c:	bf00      	nop
 800040e:	bd80      	pop	{r7, pc}
 8000410:	20000434 	.word	0x20000434
 8000414:	40005800 	.word	0x40005800
 8000418:	00061a80 	.word	0x00061a80

0800041c <MX_TIM2_Init>:
  * @brief TIM2 Initialization Function
  * @param None
  * @retval None
  */
static void MX_TIM2_Init(void)
{
 800041c:	b580      	push	{r7, lr}
 800041e:	b086      	sub	sp, #24
 8000420:	af00      	add	r7, sp, #0

  /* USER CODE BEGIN TIM2_Init 0 */

  /* USER CODE END TIM2_Init 0 */

  TIM_ClockConfigTypeDef sClockSourceConfig = {0};
 8000422:	f107 0308 	add.w	r3, r7, #8
 8000426:	2200      	movs	r2, #0
 8000428:	601a      	str	r2, [r3, #0]
 800042a:	605a      	str	r2, [r3, #4]
 800042c:	609a      	str	r2, [r3, #8]
 800042e:	60da      	str	r2, [r3, #12]
  TIM_MasterConfigTypeDef sMasterConfig = {0};
 8000430:	463b      	mov	r3, r7
 8000432:	2200      	movs	r2, #0
 8000434:	601a      	str	r2, [r3, #0]
 8000436:	605a      	str	r2, [r3, #4]

  /* USER CODE BEGIN TIM2_Init 1 */

  /* USER CODE END TIM2_Init 1 */
  htim2.Instance = TIM2;
 8000438:	4b29      	ldr	r3, [pc, #164]	; (80004e0 <MX_TIM2_Init+0xc4>)
 800043a:	f04f 4280 	mov.w	r2, #1073741824	; 0x40000000
 800043e:	601a      	str	r2, [r3, #0]
  htim2.Init.Prescaler = 1;
 8000440:	4b27      	ldr	r3, [pc, #156]	; (80004e0 <MX_TIM2_Init+0xc4>)
 8000442:	2201      	movs	r2, #1
 8000444:	605a      	str	r2, [r3, #4]
  htim2.Init.CounterMode = TIM_COUNTERMODE_UP;
 8000446:	4b26      	ldr	r3, [pc, #152]	; (80004e0 <MX_TIM2_Init+0xc4>)
 8000448:	2200      	movs	r2, #0
 800044a:	609a      	str	r2, [r3, #8]
  htim2.Init.Period = 63;
 800044c:	4b24      	ldr	r3, [pc, #144]	; (80004e0 <MX_TIM2_Init+0xc4>)
 800044e:	223f      	movs	r2, #63	; 0x3f
 8000450:	60da      	str	r2, [r3, #12]
  htim2.Init.ClockDivision = TIM_CLOCKDIVISION_DIV1;
 8000452:	4b23      	ldr	r3, [pc, #140]	; (80004e0 <MX_TIM2_Init+0xc4>)
 8000454:	2200      	movs	r2, #0
 8000456:	611a      	str	r2, [r3, #16]
  htim2.Init.AutoReloadPreload = TIM_AUTORELOAD_PRELOAD_DISABLE;
 8000458:	4b21      	ldr	r3, [pc, #132]	; (80004e0 <MX_TIM2_Init+0xc4>)
 800045a:	2200      	movs	r2, #0
 800045c:	619a      	str	r2, [r3, #24]
  if (HAL_TIM_Base_Init(&htim2) != HAL_OK)
 800045e:	4820      	ldr	r0, [pc, #128]	; (80004e0 <MX_TIM2_Init+0xc4>)
 8000460:	f003 f952 	bl	8003708 <HAL_TIM_Base_Init>
 8000464:	4603      	mov	r3, r0
 8000466:	2b00      	cmp	r3, #0
 8000468:	d001      	beq.n	800046e <MX_TIM2_Init+0x52>
  {
    Error_Handler();
 800046a:	f000 f8cd 	bl	8000608 <Error_Handler>
  }
  sClockSourceConfig.ClockSource = TIM_CLOCKSOURCE_INTERNAL;
 800046e:	f44f 5380 	mov.w	r3, #4096	; 0x1000
 8000472:	60bb      	str	r3, [r7, #8]
  if (HAL_TIM_ConfigClockSource(&htim2, &sClockSourceConfig) != HAL_OK)
 8000474:	f107 0308 	add.w	r3, r7, #8
 8000478:	4619      	mov	r1, r3
 800047a:	4819      	ldr	r0, [pc, #100]	; (80004e0 <MX_TIM2_Init+0xc4>)
 800047c:	f003 fa9b 	bl	80039b6 <HAL_TIM_ConfigClockSource>
 8000480:	4603      	mov	r3, r0
 8000482:	2b00      	cmp	r3, #0
 8000484:	d001      	beq.n	800048a <MX_TIM2_Init+0x6e>
  {
    Error_Handler();
 8000486:	f000 f8bf 	bl	8000608 <Error_Handler>
  }
  sMasterConfig.MasterOutputTrigger = TIM_TRGO_RESET;
 800048a:	2300      	movs	r3, #0
 800048c:	603b      	str	r3, [r7, #0]
  sMasterConfig.MasterSlaveMode = TIM_MASTERSLAVEMODE_DISABLE;
 800048e:	2300      	movs	r3, #0
 8000490:	607b      	str	r3, [r7, #4]
  if (HAL_TIMEx_MasterConfigSynchronization(&htim2, &sMasterConfig) != HAL_OK)
 8000492:	463b      	mov	r3, r7
 8000494:	4619      	mov	r1, r3
 8000496:	4812      	ldr	r0, [pc, #72]	; (80004e0 <MX_TIM2_Init+0xc4>)
 8000498:	f003 fc6a 	bl	8003d70 <HAL_TIMEx_MasterConfigSynchronization>
 800049c:	4603      	mov	r3, r0
 800049e:	2b00      	cmp	r3, #0
 80004a0:	d001      	beq.n	80004a6 <MX_TIM2_Init+0x8a>
  {
    Error_Handler();
 80004a2:	f000 f8b1 	bl	8000608 <Error_Handler>
  }
  /* USER CODE BEGIN TIM2_Init 2 */
  TIM2->CR1 &= ~(1<<1); //Clear the UDIS bit to ensure the BAM Interrupt is triggered
 80004a6:	f04f 4380 	mov.w	r3, #1073741824	; 0x40000000
 80004aa:	681b      	ldr	r3, [r3, #0]
 80004ac:	f04f 4280 	mov.w	r2, #1073741824	; 0x40000000
 80004b0:	f023 0302 	bic.w	r3, r3, #2
 80004b4:	6013      	str	r3, [r2, #0]
  TIM2->DIER |= 1; //Update interrupt enable
 80004b6:	f04f 4380 	mov.w	r3, #1073741824	; 0x40000000
 80004ba:	68db      	ldr	r3, [r3, #12]
 80004bc:	f04f 4280 	mov.w	r2, #1073741824	; 0x40000000
 80004c0:	f043 0301 	orr.w	r3, r3, #1
 80004c4:	60d3      	str	r3, [r2, #12]
  TIM2->CR1 |= 1; //enable BAM Driver
 80004c6:	f04f 4380 	mov.w	r3, #1073741824	; 0x40000000
 80004ca:	681b      	ldr	r3, [r3, #0]
 80004cc:	f04f 4280 	mov.w	r2, #1073741824	; 0x40000000
 80004d0:	f043 0301 	orr.w	r3, r3, #1
 80004d4:	6013      	str	r3, [r2, #0]
  /* USER CODE END TIM2_Init 2 */

}
 80004d6:	bf00      	nop
 80004d8:	3718      	adds	r7, #24
 80004da:	46bd      	mov	sp, r7
 80004dc:	bd80      	pop	{r7, pc}
 80004de:	bf00      	nop
 80004e0:	200004b8 	.word	0x200004b8

080004e4 <MX_GPIO_Init>:
  * @brief GPIO Initialization Function
  * @param None
  * @retval None
  */
static void MX_GPIO_Init(void)
{
 80004e4:	b580      	push	{r7, lr}
 80004e6:	b088      	sub	sp, #32
 80004e8:	af00      	add	r7, sp, #0
  GPIO_InitTypeDef GPIO_InitStruct = {0};
 80004ea:	f107 0310 	add.w	r3, r7, #16
 80004ee:	2200      	movs	r2, #0
 80004f0:	601a      	str	r2, [r3, #0]
 80004f2:	605a      	str	r2, [r3, #4]
 80004f4:	609a      	str	r2, [r3, #8]
 80004f6:	60da      	str	r2, [r3, #12]

  /* GPIO Ports Clock Enable */
  __HAL_RCC_GPIOC_CLK_ENABLE();
 80004f8:	4b3f      	ldr	r3, [pc, #252]	; (80005f8 <MX_GPIO_Init+0x114>)
 80004fa:	699b      	ldr	r3, [r3, #24]
 80004fc:	4a3e      	ldr	r2, [pc, #248]	; (80005f8 <MX_GPIO_Init+0x114>)
 80004fe:	f043 0310 	orr.w	r3, r3, #16
 8000502:	6193      	str	r3, [r2, #24]
 8000504:	4b3c      	ldr	r3, [pc, #240]	; (80005f8 <MX_GPIO_Init+0x114>)
 8000506:	699b      	ldr	r3, [r3, #24]
 8000508:	f003 0310 	and.w	r3, r3, #16
 800050c:	60fb      	str	r3, [r7, #12]
 800050e:	68fb      	ldr	r3, [r7, #12]
  __HAL_RCC_GPIOD_CLK_ENABLE();
 8000510:	4b39      	ldr	r3, [pc, #228]	; (80005f8 <MX_GPIO_Init+0x114>)
 8000512:	699b      	ldr	r3, [r3, #24]
 8000514:	4a38      	ldr	r2, [pc, #224]	; (80005f8 <MX_GPIO_Init+0x114>)
 8000516:	f043 0320 	orr.w	r3, r3, #32
 800051a:	6193      	str	r3, [r2, #24]
 800051c:	4b36      	ldr	r3, [pc, #216]	; (80005f8 <MX_GPIO_Init+0x114>)
 800051e:	699b      	ldr	r3, [r3, #24]
 8000520:	f003 0320 	and.w	r3, r3, #32
 8000524:	60bb      	str	r3, [r7, #8]
 8000526:	68bb      	ldr	r3, [r7, #8]
  __HAL_RCC_GPIOA_CLK_ENABLE();
 8000528:	4b33      	ldr	r3, [pc, #204]	; (80005f8 <MX_GPIO_Init+0x114>)
 800052a:	699b      	ldr	r3, [r3, #24]
 800052c:	4a32      	ldr	r2, [pc, #200]	; (80005f8 <MX_GPIO_Init+0x114>)
 800052e:	f043 0304 	orr.w	r3, r3, #4
 8000532:	6193      	str	r3, [r2, #24]
 8000534:	4b30      	ldr	r3, [pc, #192]	; (80005f8 <MX_GPIO_Init+0x114>)
 8000536:	699b      	ldr	r3, [r3, #24]
 8000538:	f003 0304 	and.w	r3, r3, #4
 800053c:	607b      	str	r3, [r7, #4]
 800053e:	687b      	ldr	r3, [r7, #4]
  __HAL_RCC_GPIOB_CLK_ENABLE();
 8000540:	4b2d      	ldr	r3, [pc, #180]	; (80005f8 <MX_GPIO_Init+0x114>)
 8000542:	699b      	ldr	r3, [r3, #24]
 8000544:	4a2c      	ldr	r2, [pc, #176]	; (80005f8 <MX_GPIO_Init+0x114>)
 8000546:	f043 0308 	orr.w	r3, r3, #8
 800054a:	6193      	str	r3, [r2, #24]
 800054c:	4b2a      	ldr	r3, [pc, #168]	; (80005f8 <MX_GPIO_Init+0x114>)
 800054e:	699b      	ldr	r3, [r3, #24]
 8000550:	f003 0308 	and.w	r3, r3, #8
 8000554:	603b      	str	r3, [r7, #0]
 8000556:	683b      	ldr	r3, [r7, #0]

  /*Configure GPIO pin Output Level */
  HAL_GPIO_WritePin(GPIOC, GPIO_PIN_13|GPIO_PIN_14|GPIO_PIN_15, GPIO_PIN_RESET);
 8000558:	2200      	movs	r2, #0
 800055a:	f44f 4160 	mov.w	r1, #57344	; 0xe000
 800055e:	4827      	ldr	r0, [pc, #156]	; (80005fc <MX_GPIO_Init+0x118>)
 8000560:	f000 ff40 	bl	80013e4 <HAL_GPIO_WritePin>

  /*Configure GPIO pin Output Level */
  HAL_GPIO_WritePin(GPIOB, GPIO_PIN_12|GPIO_PIN_13|GPIO_PIN_14|GPIO_PIN_15, GPIO_PIN_RESET);
 8000564:	2200      	movs	r2, #0
 8000566:	f44f 4170 	mov.w	r1, #61440	; 0xf000
 800056a:	4825      	ldr	r0, [pc, #148]	; (8000600 <MX_GPIO_Init+0x11c>)
 800056c:	f000 ff3a 	bl	80013e4 <HAL_GPIO_WritePin>

  /*Configure GPIO pin Output Level */
  HAL_GPIO_WritePin(GPIOA, GPIO_PIN_15, GPIO_PIN_RESET);
 8000570:	2200      	movs	r2, #0
 8000572:	f44f 4100 	mov.w	r1, #32768	; 0x8000
 8000576:	4823      	ldr	r0, [pc, #140]	; (8000604 <MX_GPIO_Init+0x120>)
 8000578:	f000 ff34 	bl	80013e4 <HAL_GPIO_WritePin>

  /*Configure GPIO pins : PC13 PC14 PC15 */
  GPIO_InitStruct.Pin = GPIO_PIN_13|GPIO_PIN_14|GPIO_PIN_15;
 800057c:	f44f 4360 	mov.w	r3, #57344	; 0xe000
 8000580:	613b      	str	r3, [r7, #16]
  GPIO_InitStruct.Mode = GPIO_MODE_OUTPUT_PP;
 8000582:	2301      	movs	r3, #1
 8000584:	617b      	str	r3, [r7, #20]
  GPIO_InitStruct.Pull = GPIO_NOPULL;
 8000586:	2300      	movs	r3, #0
 8000588:	61bb      	str	r3, [r7, #24]
  GPIO_InitStruct.Speed = GPIO_SPEED_FREQ_HIGH;
 800058a:	2303      	movs	r3, #3
 800058c:	61fb      	str	r3, [r7, #28]
  HAL_GPIO_Init(GPIOC, &GPIO_InitStruct);
 800058e:	f107 0310 	add.w	r3, r7, #16
 8000592:	4619      	mov	r1, r3
 8000594:	4819      	ldr	r0, [pc, #100]	; (80005fc <MX_GPIO_Init+0x118>)
 8000596:	f000 fdcb 	bl	8001130 <HAL_GPIO_Init>

  /*Configure GPIO pins : PB12 PB13 PB14 PB15 */
  GPIO_InitStruct.Pin = GPIO_PIN_12|GPIO_PIN_13|GPIO_PIN_14|GPIO_PIN_15;
 800059a:	f44f 4370 	mov.w	r3, #61440	; 0xf000
 800059e:	613b      	str	r3, [r7, #16]
  GPIO_InitStruct.Mode = GPIO_MODE_OUTPUT_PP;
 80005a0:	2301      	movs	r3, #1
 80005a2:	617b      	str	r3, [r7, #20]
  GPIO_InitStruct.Pull = GPIO_NOPULL;
 80005a4:	2300      	movs	r3, #0
 80005a6:	61bb      	str	r3, [r7, #24]
  GPIO_InitStruct.Speed = GPIO_SPEED_FREQ_HIGH;
 80005a8:	2303      	movs	r3, #3
 80005aa:	61fb      	str	r3, [r7, #28]
  HAL_GPIO_Init(GPIOB, &GPIO_InitStruct);
 80005ac:	f107 0310 	add.w	r3, r7, #16
 80005b0:	4619      	mov	r1, r3
 80005b2:	4813      	ldr	r0, [pc, #76]	; (8000600 <MX_GPIO_Init+0x11c>)
 80005b4:	f000 fdbc 	bl	8001130 <HAL_GPIO_Init>

  /*Configure GPIO pins : PA9 PA10 */
  GPIO_InitStruct.Pin = GPIO_PIN_9|GPIO_PIN_10;
 80005b8:	f44f 63c0 	mov.w	r3, #1536	; 0x600
 80005bc:	613b      	str	r3, [r7, #16]
  GPIO_InitStruct.Mode = GPIO_MODE_INPUT;
 80005be:	2300      	movs	r3, #0
 80005c0:	617b      	str	r3, [r7, #20]
  GPIO_InitStruct.Pull = GPIO_NOPULL;
 80005c2:	2300      	movs	r3, #0
 80005c4:	61bb      	str	r3, [r7, #24]
  HAL_GPIO_Init(GPIOA, &GPIO_InitStruct);
 80005c6:	f107 0310 	add.w	r3, r7, #16
 80005ca:	4619      	mov	r1, r3
 80005cc:	480d      	ldr	r0, [pc, #52]	; (8000604 <MX_GPIO_Init+0x120>)
 80005ce:	f000 fdaf 	bl	8001130 <HAL_GPIO_Init>

  /*Configure GPIO pin : PA15 */
  GPIO_InitStruct.Pin = GPIO_PIN_15;
 80005d2:	f44f 4300 	mov.w	r3, #32768	; 0x8000
 80005d6:	613b      	str	r3, [r7, #16]
  GPIO_InitStruct.Mode = GPIO_MODE_OUTPUT_PP;
 80005d8:	2301      	movs	r3, #1
 80005da:	617b      	str	r3, [r7, #20]
  GPIO_InitStruct.Pull = GPIO_NOPULL;
 80005dc:	2300      	movs	r3, #0
 80005de:	61bb      	str	r3, [r7, #24]
  GPIO_InitStruct.Speed = GPIO_SPEED_FREQ_LOW;
 80005e0:	2302      	movs	r3, #2
 80005e2:	61fb      	str	r3, [r7, #28]
  HAL_GPIO_Init(GPIOA, &GPIO_InitStruct);
 80005e4:	f107 0310 	add.w	r3, r7, #16
 80005e8:	4619      	mov	r1, r3
 80005ea:	4806      	ldr	r0, [pc, #24]	; (8000604 <MX_GPIO_Init+0x120>)
 80005ec:	f000 fda0 	bl	8001130 <HAL_GPIO_Init>

}
 80005f0:	bf00      	nop
 80005f2:	3720      	adds	r7, #32
 80005f4:	46bd      	mov	sp, r7
 80005f6:	bd80      	pop	{r7, pc}
 80005f8:	40021000 	.word	0x40021000
 80005fc:	40011000 	.word	0x40011000
 8000600:	40010c00 	.word	0x40010c00
 8000604:	40010800 	.word	0x40010800

08000608 <Error_Handler>:
/**
  * @brief  This function is executed in case of error occurrence.
  * @retval None
  */
void Error_Handler(void)
{
 8000608:	b480      	push	{r7}
 800060a:	af00      	add	r7, sp, #0
  \details Disables IRQ interrupts by setting the I-bit in the CPSR.
           Can only be executed in Privileged modes.
 */
__STATIC_FORCEINLINE void __disable_irq(void)
{
  __ASM volatile ("cpsid i" : : : "memory");
 800060c:	b672      	cpsid	i
  /* USER CODE BEGIN Error_Handler_Debug */
  /* User can add his own implementation to report the HAL error return state */
  __disable_irq();
  while (1)
 800060e:	e7fe      	b.n	800060e <Error_Handler+0x6>

08000610 <HAL_MspInit>:
 8000610:	b480      	push	{r7}
 8000612:	b085      	sub	sp, #20
 8000614:	af00      	add	r7, sp, #0
 8000616:	4b15      	ldr	r3, [pc, #84]	; (800066c <HAL_MspInit+0x5c>)
 8000618:	699b      	ldr	r3, [r3, #24]
 800061a:	4a14      	ldr	r2, [pc, #80]	; (800066c <HAL_MspInit+0x5c>)
 800061c:	f043 0301 	orr.w	r3, r3, #1
 8000620:	6193      	str	r3, [r2, #24]
 8000622:	4b12      	ldr	r3, [pc, #72]	; (800066c <HAL_MspInit+0x5c>)
 8000624:	699b      	ldr	r3, [r3, #24]
 8000626:	f003 0301 	and.w	r3, r3, #1
 800062a:	60bb      	str	r3, [r7, #8]
 800062c:	68bb      	ldr	r3, [r7, #8]
 800062e:	4b0f      	ldr	r3, [pc, #60]	; (800066c <HAL_MspInit+0x5c>)
 8000630:	69db      	ldr	r3, [r3, #28]
 8000632:	4a0e      	ldr	r2, [pc, #56]	; (800066c <HAL_MspInit+0x5c>)
 8000634:	f043 5380 	orr.w	r3, r3, #268435456	; 0x10000000
 8000638:	61d3      	str	r3, [r2, #28]
 800063a:	4b0c      	ldr	r3, [pc, #48]	; (800066c <HAL_MspInit+0x5c>)
 800063c:	69db      	ldr	r3, [r3, #28]
 800063e:	f003 5380 	and.w	r3, r3, #268435456	; 0x10000000
 8000642:	607b      	str	r3, [r7, #4]
 8000644:	687b      	ldr	r3, [r7, #4]
 8000646:	4b0a      	ldr	r3, [pc, #40]	; (8000670 <HAL_MspInit+0x60>)
 8000648:	685b      	ldr	r3, [r3, #4]
 800064a:	60fb      	str	r3, [r7, #12]
 800064c:	68fb      	ldr	r3, [r7, #12]
 800064e:	f023 63e0 	bic.w	r3, r3, #117440512	; 0x7000000
 8000652:	60fb      	str	r3, [r7, #12]
 8000654:	68fb      	ldr	r3, [r7, #12]
 8000656:	f043 6380 	orr.w	r3, r3, #67108864	; 0x4000000
 800065a:	60fb      	str	r3, [r7, #12]
 800065c:	4a04      	ldr	r2, [pc, #16]	; (8000670 <HAL_MspInit+0x60>)
 800065e:	68fb      	ldr	r3, [r7, #12]
 8000660:	6053      	str	r3, [r2, #4]
 8000662:	bf00      	nop
 8000664:	3714      	adds	r7, #20
 8000666:	46bd      	mov	sp, r7
 8000668:	bc80      	pop	{r7}
 800066a:	4770      	bx	lr
 800066c:	40021000 	.word	0x40021000
 8000670:	40010000 	.word	0x40010000

08000674 <HAL_ADC_MspInit>:
 8000674:	b580      	push	{r7, lr}
 8000676:	b088      	sub	sp, #32
 8000678:	af00      	add	r7, sp, #0
 800067a:	6078      	str	r0, [r7, #4]
 800067c:	f107 0310 	add.w	r3, r7, #16
 8000680:	2200      	movs	r2, #0
 8000682:	601a      	str	r2, [r3, #0]
 8000684:	605a      	str	r2, [r3, #4]
 8000686:	609a      	str	r2, [r3, #8]
 8000688:	60da      	str	r2, [r3, #12]
 800068a:	687b      	ldr	r3, [r7, #4]
 800068c:	681b      	ldr	r3, [r3, #0]
 800068e:	4a14      	ldr	r2, [pc, #80]	; (80006e0 <HAL_ADC_MspInit+0x6c>)
 8000690:	4293      	cmp	r3, r2
 8000692:	d121      	bne.n	80006d8 <HAL_ADC_MspInit+0x64>
 8000694:	4b13      	ldr	r3, [pc, #76]	; (80006e4 <HAL_ADC_MspInit+0x70>)
 8000696:	699b      	ldr	r3, [r3, #24]
 8000698:	4a12      	ldr	r2, [pc, #72]	; (80006e4 <HAL_ADC_MspInit+0x70>)
 800069a:	f443 7300 	orr.w	r3, r3, #512	; 0x200
 800069e:	6193      	str	r3, [r2, #24]
 80006a0:	4b10      	ldr	r3, [pc, #64]	; (80006e4 <HAL_ADC_MspInit+0x70>)
 80006a2:	699b      	ldr	r3, [r3, #24]
 80006a4:	f403 7300 	and.w	r3, r3, #512	; 0x200
 80006a8:	60fb      	str	r3, [r7, #12]
 80006aa:	68fb      	ldr	r3, [r7, #12]
 80006ac:	4b0d      	ldr	r3, [pc, #52]	; (80006e4 <HAL_ADC_MspInit+0x70>)
 80006ae:	699b      	ldr	r3, [r3, #24]
 80006b0:	4a0c      	ldr	r2, [pc, #48]	; (80006e4 <HAL_ADC_MspInit+0x70>)
 80006b2:	f043 0304 	orr.w	r3, r3, #4
 80006b6:	6193      	str	r3, [r2, #24]
 80006b8:	4b0a      	ldr	r3, [pc, #40]	; (80006e4 <HAL_ADC_MspInit+0x70>)
 80006ba:	699b      	ldr	r3, [r3, #24]
 80006bc:	f003 0304 	and.w	r3, r3, #4
 80006c0:	60bb      	str	r3, [r7, #8]
 80006c2:	68bb      	ldr	r3, [r7, #8]
 80006c4:	230f      	movs	r3, #15
 80006c6:	613b      	str	r3, [r7, #16]
 80006c8:	2303      	movs	r3, #3
 80006ca:	617b      	str	r3, [r7, #20]
 80006cc:	f107 0310 	add.w	r3, r7, #16
 80006d0:	4619      	mov	r1, r3
 80006d2:	4805      	ldr	r0, [pc, #20]	; (80006e8 <HAL_ADC_MspInit+0x74>)
 80006d4:	f000 fd2c 	bl	8001130 <HAL_GPIO_Init>
 80006d8:	bf00      	nop
 80006da:	3720      	adds	r7, #32
 80006dc:	46bd      	mov	sp, r7
 80006de:	bd80      	pop	{r7, pc}
 80006e0:	40012400 	.word	0x40012400
 80006e4:	40021000 	.word	0x40021000
 80006e8:	40010800 	.word	0x40010800

080006ec <HAL_I2C_MspInit>:
 80006ec:	b580      	push	{r7, lr}
 80006ee:	b08c      	sub	sp, #48	; 0x30
 80006f0:	af00      	add	r7, sp, #0
 80006f2:	6078      	str	r0, [r7, #4]
 80006f4:	f107 031c 	add.w	r3, r7, #28
 80006f8:	2200      	movs	r2, #0
 80006fa:	601a      	str	r2, [r3, #0]
 80006fc:	605a      	str	r2, [r3, #4]
 80006fe:	609a      	str	r2, [r3, #8]
 8000700:	60da      	str	r2, [r3, #12]
 8000702:	687b      	ldr	r3, [r7, #4]
 8000704:	681b      	ldr	r3, [r3, #0]
 8000706:	4a32      	ldr	r2, [pc, #200]	; (80007d0 <HAL_I2C_MspInit+0xe4>)
 8000708:	4293      	cmp	r3, r2
 800070a:	d133      	bne.n	8000774 <HAL_I2C_MspInit+0x88>
 800070c:	4b31      	ldr	r3, [pc, #196]	; (80007d4 <HAL_I2C_MspInit+0xe8>)
 800070e:	699b      	ldr	r3, [r3, #24]
 8000710:	4a30      	ldr	r2, [pc, #192]	; (80007d4 <HAL_I2C_MspInit+0xe8>)
 8000712:	f043 0308 	orr.w	r3, r3, #8
 8000716:	6193      	str	r3, [r2, #24]
 8000718:	4b2e      	ldr	r3, [pc, #184]	; (80007d4 <HAL_I2C_MspInit+0xe8>)
 800071a:	699b      	ldr	r3, [r3, #24]
 800071c:	f003 0308 	and.w	r3, r3, #8
 8000720:	61bb      	str	r3, [r7, #24]
 8000722:	69bb      	ldr	r3, [r7, #24]
 8000724:	f44f 7340 	mov.w	r3, #768	; 0x300
 8000728:	61fb      	str	r3, [r7, #28]
 800072a:	2312      	movs	r3, #18
 800072c:	623b      	str	r3, [r7, #32]
 800072e:	2303      	movs	r3, #3
 8000730:	62bb      	str	r3, [r7, #40]	; 0x28
 8000732:	f107 031c 	add.w	r3, r7, #28
 8000736:	4619      	mov	r1, r3
 8000738:	4827      	ldr	r0, [pc, #156]	; (80007d8 <HAL_I2C_MspInit+0xec>)
 800073a:	f000 fcf9 	bl	8001130 <HAL_GPIO_Init>
 800073e:	4b27      	ldr	r3, [pc, #156]	; (80007dc <HAL_I2C_MspInit+0xf0>)
 8000740:	685b      	ldr	r3, [r3, #4]
 8000742:	62fb      	str	r3, [r7, #44]	; 0x2c
 8000744:	6afb      	ldr	r3, [r7, #44]	; 0x2c
 8000746:	f043 63e0 	orr.w	r3, r3, #117440512	; 0x7000000
 800074a:	62fb      	str	r3, [r7, #44]	; 0x2c
 800074c:	6afb      	ldr	r3, [r7, #44]	; 0x2c
 800074e:	f043 0302 	orr.w	r3, r3, #2
 8000752:	62fb      	str	r3, [r7, #44]	; 0x2c
 8000754:	4a21      	ldr	r2, [pc, #132]	; (80007dc <HAL_I2C_MspInit+0xf0>)
 8000756:	6afb      	ldr	r3, [r7, #44]	; 0x2c
 8000758:	6053      	str	r3, [r2, #4]
 800075a:	4b1e      	ldr	r3, [pc, #120]	; (80007d4 <HAL_I2C_MspInit+0xe8>)
 800075c:	69db      	ldr	r3, [r3, #28]
 800075e:	4a1d      	ldr	r2, [pc, #116]	; (80007d4 <HAL_I2C_MspInit+0xe8>)
 8000760:	f443 1300 	orr.w	r3, r3, #2097152	; 0x200000
 8000764:	61d3      	str	r3, [r2, #28]
 8000766:	4b1b      	ldr	r3, [pc, #108]	; (80007d4 <HAL_I2C_MspInit+0xe8>)
 8000768:	69db      	ldr	r3, [r3, #28]
 800076a:	f403 1300 	and.w	r3, r3, #2097152	; 0x200000
 800076e:	617b      	str	r3, [r7, #20]
 8000770:	697b      	ldr	r3, [r7, #20]
 8000772:	e029      	b.n	80007c8 <HAL_I2C_MspInit+0xdc>
 8000774:	687b      	ldr	r3, [r7, #4]
 8000776:	681b      	ldr	r3, [r3, #0]
 8000778:	4a19      	ldr	r2, [pc, #100]	; (80007e0 <HAL_I2C_MspInit+0xf4>)
 800077a:	4293      	cmp	r3, r2
 800077c:	d124      	bne.n	80007c8 <HAL_I2C_MspInit+0xdc>
 800077e:	4b15      	ldr	r3, [pc, #84]	; (80007d4 <HAL_I2C_MspInit+0xe8>)
 8000780:	699b      	ldr	r3, [r3, #24]
 8000782:	4a14      	ldr	r2, [pc, #80]	; (80007d4 <HAL_I2C_MspInit+0xe8>)
 8000784:	f043 0308 	orr.w	r3, r3, #8
 8000788:	6193      	str	r3, [r2, #24]
 800078a:	4b12      	ldr	r3, [pc, #72]	; (80007d4 <HAL_I2C_MspInit+0xe8>)
 800078c:	699b      	ldr	r3, [r3, #24]
 800078e:	f003 0308 	and.w	r3, r3, #8
 8000792:	613b      	str	r3, [r7, #16]
 8000794:	693b      	ldr	r3, [r7, #16]
 8000796:	f44f 6340 	mov.w	r3, #3072	; 0xc00
 800079a:	61fb      	str	r3, [r7, #28]
 800079c:	2312      	movs	r3, #18
 800079e:	623b      	str	r3, [r7, #32]
 80007a0:	2303      	movs	r3, #3
 80007a2:	62bb      	str	r3, [r7, #40]	; 0x28
 80007a4:	f107 031c 	add.w	r3, r7, #28
 80007a8:	4619      	mov	r1, r3
 80007aa:	480b      	ldr	r0, [pc, #44]	; (80007d8 <HAL_I2C_MspInit+0xec>)
 80007ac:	f000 fcc0 	bl	8001130 <HAL_GPIO_Init>
 80007b0:	4b08      	ldr	r3, [pc, #32]	; (80007d4 <HAL_I2C_MspInit+0xe8>)
 80007b2:	69db      	ldr	r3, [r3, #28]
 80007b4:	4a07      	ldr	r2, [pc, #28]	; (80007d4 <HAL_I2C_MspInit+0xe8>)
 80007b6:	f443 0380 	orr.w	r3, r3, #4194304	; 0x400000
 80007ba:	61d3      	str	r3, [r2, #28]
 80007bc:	4b05      	ldr	r3, [pc, #20]	; (80007d4 <HAL_I2C_MspInit+0xe8>)
 80007be:	69db      	ldr	r3, [r3, #28]
 80007c0:	f403 0380 	and.w	r3, r3, #4194304	; 0x400000
 80007c4:	60fb      	str	r3, [r7, #12]
 80007c6:	68fb      	ldr	r3, [r7, #12]
 80007c8:	bf00      	nop
 80007ca:	3730      	adds	r7, #48	; 0x30
 80007cc:	46bd      	mov	sp, r7
 80007ce:	bd80      	pop	{r7, pc}
 80007d0:	40005400 	.word	0x40005400
 80007d4:	40021000 	.word	0x40021000
 80007d8:	40010c00 	.word	0x40010c00
 80007dc:	40010000 	.word	0x40010000
 80007e0:	40005800 	.word	0x40005800

080007e4 <HAL_TIM_Base_MspInit>:
 80007e4:	b480      	push	{r7}
 80007e6:	b085      	sub	sp, #20
 80007e8:	af00      	add	r7, sp, #0
 80007ea:	6078      	str	r0, [r7, #4]
 80007ec:	687b      	ldr	r3, [r7, #4]
 80007ee:	681b      	ldr	r3, [r3, #0]
 80007f0:	f1b3 4f80 	cmp.w	r3, #1073741824	; 0x40000000
 80007f4:	d10b      	bne.n	800080e <HAL_TIM_Base_MspInit+0x2a>
 80007f6:	4b08      	ldr	r3, [pc, #32]	; (8000818 <HAL_TIM_Base_MspInit+0x34>)
 80007f8:	69db      	ldr	r3, [r3, #28]
 80007fa:	4a07      	ldr	r2, [pc, #28]	; (8000818 <HAL_TIM_Base_MspInit+0x34>)
 80007fc:	f043 0301 	orr.w	r3, r3, #1
 8000800:	61d3      	str	r3, [r2, #28]
 8000802:	4b05      	ldr	r3, [pc, #20]	; (8000818 <HAL_TIM_Base_MspInit+0x34>)
 8000804:	69db      	ldr	r3, [r3, #28]
 8000806:	f003 0301 	and.w	r3, r3, #1
 800080a:	60fb      	str	r3, [r7, #12]
 800080c:	68fb      	ldr	r3, [r7, #12]
 800080e:	bf00      	nop
 8000810:	3714      	adds	r7, #20
 8000812:	46bd      	mov	sp, r7
 8000814:	bc80      	pop	{r7}
 8000816:	4770      	bx	lr
 8000818:	40021000 	.word	0x40021000

0800081c <NMI_Handler>:
/******************************************************************************/
/**
  * @brief This function handles Non maskable interrupt.
  */
void NMI_Handler(void)
{
 800081c:	b480      	push	{r7}
 800081e:	af00      	add	r7, sp, #0
  /* USER CODE BEGIN NonMaskableInt_IRQn 0 */

  /* USER CODE END NonMaskableInt_IRQn 0 */
  /* USER CODE BEGIN NonMaskableInt_IRQn 1 */
  while (1)
 8000820:	e7fe      	b.n	8000820 <NMI_Handler+0x4>

08000822 <HardFault_Handler>:

/**
  * @brief This function handles Hard fault interrupt.
  */
void HardFault_Handler(void)
{
 8000822:	b480      	push	{r7}
 8000824:	af00      	add	r7, sp, #0
  /* USER CODE BEGIN HardFault_IRQn 0 */

  /* USER CODE END HardFault_IRQn 0 */
  while (1)
 8000826:	e7fe      	b.n	8000826 <HardFault_Handler+0x4>

08000828 <MemManage_Handler>:

/**
  * @brief This function handles Memory management fault.
  */
void MemManage_Handler(void)
{
 8000828:	b480      	push	{r7}
 800082a:	af00      	add	r7, sp, #0
  /* USER CODE BEGIN MemoryManagement_IRQn 0 */

  /* USER CODE END MemoryManagement_IRQn 0 */
  while (1)
 800082c:	e7fe      	b.n	800082c <MemManage_Handler+0x4>

0800082e <BusFault_Handler>:

/**
  * @brief This function handles Prefetch fault, memory access fault.
  */
void BusFault_Handler(void)
{
 800082e:	b480      	push	{r7}
 8000830:	af00      	add	r7, sp, #0
  /* USER CODE BEGIN BusFault_IRQn 0 */

  /* USER CODE END BusFault_IRQn 0 */
  while (1)
 8000832:	e7fe      	b.n	8000832 <BusFault_Handler+0x4>

08000834 <UsageFault_Handler>:

/**
  * @brief This function handles Undefined instruction or illegal state.
  */
void UsageFault_Handler(void)
{
 8000834:	b480      	push	{r7}
 8000836:	af00      	add	r7, sp, #0
  /* USER CODE BEGIN UsageFault_IRQn 0 */

  /* USER CODE END UsageFault_IRQn 0 */
  while (1)
 8000838:	e7fe      	b.n	8000838 <UsageFault_Handler+0x4>

0800083a <SVC_Handler>:

/**
  * @brief This function handles System service call via SWI instruction.
  */
void SVC_Handler(void)
{
 800083a:	b480      	push	{r7}
 800083c:	af00      	add	r7, sp, #0

  /* USER CODE END SVCall_IRQn 0 */
  /* USER CODE BEGIN SVCall_IRQn 1 */

  /* USER CODE END SVCall_IRQn 1 */
}
 800083e:	bf00      	nop
 8000840:	46bd      	mov	sp, r7
 8000842:	bc80      	pop	{r7}
 8000844:	4770      	bx	lr

08000846 <DebugMon_Handler>:

/**
  * @brief This function handles Debug monitor.
  */
void DebugMon_Handler(void)
{
 8000846:	b480      	push	{r7}
 8000848:	af00      	add	r7, sp, #0

  /* USER CODE END DebugMonitor_IRQn 0 */
  /* USER CODE BEGIN DebugMonitor_IRQn 1 */

  /* USER CODE END DebugMonitor_IRQn 1 */
}
 800084a:	bf00      	nop
 800084c:	46bd      	mov	sp, r7
 800084e:	bc80      	pop	{r7}
 8000850:	4770      	bx	lr

08000852 <PendSV_Handler>:

/**
  * @brief This function handles Pendable request for system service.
  */
void PendSV_Handler(void)
{
 8000852:	b480      	push	{r7}
 8000854:	af00      	add	r7, sp, #0

  /* USER CODE END PendSV_IRQn 0 */
  /* USER CODE BEGIN PendSV_IRQn 1 */

  /* USER CODE END PendSV_IRQn 1 */
}
 8000856:	bf00      	nop
 8000858:	46bd      	mov	sp, r7
 800085a:	bc80      	pop	{r7}
 800085c:	4770      	bx	lr

0800085e <SysTick_Handler>:

/**
  * @brief This function handles System tick timer.
  */
void SysTick_Handler(void)
{
 800085e:	b580      	push	{r7, lr}
 8000860:	af00      	add	r7, sp, #0
  /* USER CODE BEGIN SysTick_IRQn 0 */

  /* USER CODE END SysTick_IRQn 0 */
  HAL_IncTick();
 8000862:	f000 f931 	bl	8000ac8 <HAL_IncTick>
  /* USER CODE BEGIN SysTick_IRQn 1 */

  /* USER CODE END SysTick_IRQn 1 */
}
 8000866:	bf00      	nop
 8000868:	bd80      	pop	{r7, pc}
	...

0800086c <USB_LP_CAN1_RX0_IRQHandler>:

/**
  * @brief This function handles USB low priority or CAN RX0 interrupts.
  */
void USB_LP_CAN1_RX0_IRQHandler(void)
{
 800086c:	b580      	push	{r7, lr}
 800086e:	af00      	add	r7, sp, #0
  /* USER CODE BEGIN USB_LP_CAN1_RX0_IRQn 0 */

  /* USER CODE END USB_LP_CAN1_RX0_IRQn 0 */
  HAL_PCD_IRQHandler(&hpcd_USB_FS);
 8000870:	4802      	ldr	r0, [pc, #8]	; (800087c <USB_LP_CAN1_RX0_IRQHandler+0x10>)
 8000872:	f001 f838 	bl	80018e6 <HAL_PCD_IRQHandler>
  /* USER CODE BEGIN USB_LP_CAN1_RX0_IRQn 1 */

  /* USER CODE END USB_LP_CAN1_RX0_IRQn 1 */
}
 8000876:	bf00      	nop
 8000878:	bd80      	pop	{r7, pc}
 800087a:	bf00      	nop
 800087c:	20001198 	.word	0x20001198

08000880 <TIM2_IRQHandler>:

/**
  * @brief This function handles TIM2 global interrupt.
  */
void TIM2_IRQHandler(void)
{
 8000880:	b580      	push	{r7, lr}
 8000882:	b082      	sub	sp, #8
 8000884:	af00      	add	r7, sp, #0
  /* USER CODE BEGIN TIM2_IRQn 0 */

	for(int i = 0; i < 4; i++){ //BAM all 4 LED's
 8000886:	2300      	movs	r3, #0
 8000888:	607b      	str	r3, [r7, #4]
 800088a:	e01c      	b.n	80008c6 <TIM2_IRQHandler+0x46>

		if(brightness[i] & (1 << BAMIndex)){
 800088c:	4a4b      	ldr	r2, [pc, #300]	; (80009bc <TIM2_IRQHandler+0x13c>)
 800088e:	687b      	ldr	r3, [r7, #4]
 8000890:	4413      	add	r3, r2
 8000892:	781b      	ldrb	r3, [r3, #0]
 8000894:	461a      	mov	r2, r3
 8000896:	4b4a      	ldr	r3, [pc, #296]	; (80009c0 <TIM2_IRQHandler+0x140>)
 8000898:	781b      	ldrb	r3, [r3, #0]
 800089a:	fa42 f303 	asr.w	r3, r2, r3
 800089e:	f003 0301 	and.w	r3, r3, #1
 80008a2:	2b00      	cmp	r3, #0
 80008a4:	d006      	beq.n	80008b4 <TIM2_IRQHandler+0x34>
			GPIOB->BSRR = (1<<(i+12));
 80008a6:	687b      	ldr	r3, [r7, #4]
 80008a8:	330c      	adds	r3, #12
 80008aa:	2201      	movs	r2, #1
 80008ac:	409a      	lsls	r2, r3
 80008ae:	4b45      	ldr	r3, [pc, #276]	; (80009c4 <TIM2_IRQHandler+0x144>)
 80008b0:	611a      	str	r2, [r3, #16]
 80008b2:	e005      	b.n	80008c0 <TIM2_IRQHandler+0x40>
		}
		else{
			GPIOB->BRR = (1<<(i+12));
 80008b4:	687b      	ldr	r3, [r7, #4]
 80008b6:	330c      	adds	r3, #12
 80008b8:	2201      	movs	r2, #1
 80008ba:	409a      	lsls	r2, r3
 80008bc:	4b41      	ldr	r3, [pc, #260]	; (80009c4 <TIM2_IRQHandler+0x144>)
 80008be:	615a      	str	r2, [r3, #20]
	for(int i = 0; i < 4; i++){ //BAM all 4 LED's
 80008c0:	687b      	ldr	r3, [r7, #4]
 80008c2:	3301      	adds	r3, #1
 80008c4:	607b      	str	r3, [r7, #4]
 80008c6:	687b      	ldr	r3, [r7, #4]
 80008c8:	2b03      	cmp	r3, #3
 80008ca:	dddf      	ble.n	800088c <TIM2_IRQHandler+0xc>
		}

	}

	if(BAMIndex == 7){ //We've passed one BAM cycle
 80008cc:	4b3c      	ldr	r3, [pc, #240]	; (80009c0 <TIM2_IRQHandler+0x140>)
 80008ce:	781b      	ldrb	r3, [r3, #0]
 80008d0:	2b07      	cmp	r3, #7
 80008d2:	d15e      	bne.n	8000992 <TIM2_IRQHandler+0x112>
		BAMIndex = 0;
 80008d4:	4b3a      	ldr	r3, [pc, #232]	; (80009c0 <TIM2_IRQHandler+0x140>)
 80008d6:	2200      	movs	r2, #0
 80008d8:	701a      	strb	r2, [r3, #0]
		TIM2->PSC = 1;
 80008da:	f04f 4380 	mov.w	r3, #1073741824	; 0x40000000
 80008de:	2201      	movs	r2, #1
 80008e0:	629a      	str	r2, [r3, #40]	; 0x28



		uint8_t currentReadoff = ((((GPIOA->IDR)>>9) & 1) << 1) | (((GPIOA->IDR)>>10) & 1); //read current encoder state
 80008e2:	4b39      	ldr	r3, [pc, #228]	; (80009c8 <TIM2_IRQHandler+0x148>)
 80008e4:	689b      	ldr	r3, [r3, #8]
 80008e6:	0a5b      	lsrs	r3, r3, #9
 80008e8:	b2db      	uxtb	r3, r3
 80008ea:	005b      	lsls	r3, r3, #1
 80008ec:	b2db      	uxtb	r3, r3
 80008ee:	f003 0302 	and.w	r3, r3, #2
 80008f2:	b2da      	uxtb	r2, r3
 80008f4:	4b34      	ldr	r3, [pc, #208]	; (80009c8 <TIM2_IRQHandler+0x148>)
 80008f6:	689b      	ldr	r3, [r3, #8]
 80008f8:	0a9b      	lsrs	r3, r3, #10
 80008fa:	b2db      	uxtb	r3, r3
 80008fc:	f003 0301 	and.w	r3, r3, #1
 8000900:	b2db      	uxtb	r3, r3
 8000902:	4313      	orrs	r3, r2
 8000904:	70fb      	strb	r3, [r7, #3]
		uint8_t index = (lastEncoder[currentEncoder]<<2) | currentReadoff;
 8000906:	4b31      	ldr	r3, [pc, #196]	; (80009cc <TIM2_IRQHandler+0x14c>)
 8000908:	781b      	ldrb	r3, [r3, #0]
 800090a:	461a      	mov	r2, r3
 800090c:	4b30      	ldr	r3, [pc, #192]	; (80009d0 <TIM2_IRQHandler+0x150>)
 800090e:	5c9b      	ldrb	r3, [r3, r2]
 8000910:	009b      	lsls	r3, r3, #2
 8000912:	b25a      	sxtb	r2, r3
 8000914:	f997 3003 	ldrsb.w	r3, [r7, #3]
 8000918:	4313      	orrs	r3, r2
 800091a:	b25b      	sxtb	r3, r3
 800091c:	70bb      	strb	r3, [r7, #2]
		encoderValues[currentEncoder] += encoderLUT[index];
 800091e:	4b2b      	ldr	r3, [pc, #172]	; (80009cc <TIM2_IRQHandler+0x14c>)
 8000920:	781b      	ldrb	r3, [r3, #0]
 8000922:	461a      	mov	r2, r3
 8000924:	4b2b      	ldr	r3, [pc, #172]	; (80009d4 <TIM2_IRQHandler+0x154>)
 8000926:	5c9a      	ldrb	r2, [r3, r2]
 8000928:	78bb      	ldrb	r3, [r7, #2]
 800092a:	492b      	ldr	r1, [pc, #172]	; (80009d8 <TIM2_IRQHandler+0x158>)
 800092c:	56cb      	ldrsb	r3, [r1, r3]
 800092e:	b2db      	uxtb	r3, r3
 8000930:	4926      	ldr	r1, [pc, #152]	; (80009cc <TIM2_IRQHandler+0x14c>)
 8000932:	7809      	ldrb	r1, [r1, #0]
 8000934:	4413      	add	r3, r2
 8000936:	b2da      	uxtb	r2, r3
 8000938:	4b26      	ldr	r3, [pc, #152]	; (80009d4 <TIM2_IRQHandler+0x154>)
 800093a:	545a      	strb	r2, [r3, r1]
		lastEncoder[currentEncoder] = currentReadoff;
 800093c:	4b23      	ldr	r3, [pc, #140]	; (80009cc <TIM2_IRQHandler+0x14c>)
 800093e:	781b      	ldrb	r3, [r3, #0]
 8000940:	4619      	mov	r1, r3
 8000942:	4a23      	ldr	r2, [pc, #140]	; (80009d0 <TIM2_IRQHandler+0x150>)
 8000944:	78fb      	ldrb	r3, [r7, #3]
 8000946:	5453      	strb	r3, [r2, r1]
		//uint8_t buffer[256];
		//sprintf(buffer, "currentReadoff %d index %d encoderValue %d\r\n", currentReadoff, index, encoderValues[0]);
		//CDC_Transmit_FS(buffer, sizeof(buffer));
		//}

		if(currentEncoder == 4) currentEncoder = 0;
 8000948:	4b20      	ldr	r3, [pc, #128]	; (80009cc <TIM2_IRQHandler+0x14c>)
 800094a:	781b      	ldrb	r3, [r3, #0]
 800094c:	2b04      	cmp	r3, #4
 800094e:	d103      	bne.n	8000958 <TIM2_IRQHandler+0xd8>
 8000950:	4b1e      	ldr	r3, [pc, #120]	; (80009cc <TIM2_IRQHandler+0x14c>)
 8000952:	2200      	movs	r2, #0
 8000954:	701a      	strb	r2, [r3, #0]
 8000956:	e005      	b.n	8000964 <TIM2_IRQHandler+0xe4>
		else currentEncoder++;
 8000958:	4b1c      	ldr	r3, [pc, #112]	; (80009cc <TIM2_IRQHandler+0x14c>)
 800095a:	781b      	ldrb	r3, [r3, #0]
 800095c:	3301      	adds	r3, #1
 800095e:	b2da      	uxtb	r2, r3
 8000960:	4b1a      	ldr	r3, [pc, #104]	; (80009cc <TIM2_IRQHandler+0x14c>)
 8000962:	701a      	strb	r2, [r3, #0]

		//select the nth encoder here to allow the mux time to settle
		GPIOC->BRR = (3<<13); //clear GPIO Pins
 8000964:	4b1d      	ldr	r3, [pc, #116]	; (80009dc <TIM2_IRQHandler+0x15c>)
 8000966:	f44f 42c0 	mov.w	r2, #24576	; 0x6000
 800096a:	615a      	str	r2, [r3, #20]
		GPIOC->BSRR = ((currentEncoder&3)<<13);
 800096c:	4b17      	ldr	r3, [pc, #92]	; (80009cc <TIM2_IRQHandler+0x14c>)
 800096e:	781b      	ldrb	r3, [r3, #0]
 8000970:	035b      	lsls	r3, r3, #13
 8000972:	4a1a      	ldr	r2, [pc, #104]	; (80009dc <TIM2_IRQHandler+0x15c>)
 8000974:	f403 43c0 	and.w	r3, r3, #24576	; 0x6000
 8000978:	6113      	str	r3, [r2, #16]
		GPIOA->BRR = (1<<15);
 800097a:	4b13      	ldr	r3, [pc, #76]	; (80009c8 <TIM2_IRQHandler+0x148>)
 800097c:	f44f 4200 	mov.w	r2, #32768	; 0x8000
 8000980:	615a      	str	r2, [r3, #20]
		GPIOA->BSRR = ((currentEncoder&4)<<13);
 8000982:	4b12      	ldr	r3, [pc, #72]	; (80009cc <TIM2_IRQHandler+0x14c>)
 8000984:	781b      	ldrb	r3, [r3, #0]
 8000986:	035b      	lsls	r3, r3, #13
 8000988:	4a0f      	ldr	r2, [pc, #60]	; (80009c8 <TIM2_IRQHandler+0x148>)
 800098a:	f403 4300 	and.w	r3, r3, #32768	; 0x8000
 800098e:	6113      	str	r3, [r2, #16]
 8000990:	e00c      	b.n	80009ac <TIM2_IRQHandler+0x12c>

	}
	else{
		BAMIndex++;
 8000992:	4b0b      	ldr	r3, [pc, #44]	; (80009c0 <TIM2_IRQHandler+0x140>)
 8000994:	781b      	ldrb	r3, [r3, #0]
 8000996:	3301      	adds	r3, #1
 8000998:	b2da      	uxtb	r2, r3
 800099a:	4b09      	ldr	r3, [pc, #36]	; (80009c0 <TIM2_IRQHandler+0x140>)
 800099c:	701a      	strb	r2, [r3, #0]
		TIM2->PSC = TIM2->PSC << 1; //set next write to occupy twice the time of this current write.
 800099e:	f04f 4380 	mov.w	r3, #1073741824	; 0x40000000
 80009a2:	6a9b      	ldr	r3, [r3, #40]	; 0x28
 80009a4:	f04f 4280 	mov.w	r2, #1073741824	; 0x40000000
 80009a8:	005b      	lsls	r3, r3, #1
 80009aa:	6293      	str	r3, [r2, #40]	; 0x28
	}
  /* USER CODE END TIM2_IRQn 0 */
  HAL_TIM_IRQHandler(&htim2);
 80009ac:	480c      	ldr	r0, [pc, #48]	; (80009e0 <TIM2_IRQHandler+0x160>)
 80009ae:	f002 fefa 	bl	80037a6 <HAL_TIM_IRQHandler>
  /* USER CODE BEGIN TIM2_IRQn 1 */

  /* USER CODE END TIM2_IRQn 1 */
}
 80009b2:	bf00      	nop
 80009b4:	3708      	adds	r7, #8
 80009b6:	46bd      	mov	sp, r7
 80009b8:	bd80      	pop	{r7, pc}
 80009ba:	bf00      	nop
 80009bc:	20000000 	.word	0x20000000
 80009c0:	200001ac 	.word	0x200001ac
 80009c4:	40010c00 	.word	0x40010c00
 80009c8:	40010800 	.word	0x40010800
 80009cc:	200001ad 	.word	0x200001ad
 80009d0:	200001b0 	.word	0x200001b0
 80009d4:	200001b8 	.word	0x200001b8
 80009d8:	20000004 	.word	0x20000004
 80009dc:	40011000 	.word	0x40011000
 80009e0:	200004b8 	.word	0x200004b8

080009e4 <SystemInit>:
 80009e4:	b480      	push	{r7}
 80009e6:	af00      	add	r7, sp, #0
 80009e8:	bf00      	nop
 80009ea:	46bd      	mov	sp, r7
 80009ec:	bc80      	pop	{r7}
 80009ee:	4770      	bx	lr

080009f0 <Reset_Handler>:
 80009f0:	2100      	movs	r1, #0
 80009f2:	e003      	b.n	80009fc <LoopCopyDataInit>

080009f4 <CopyDataInit>:
 80009f4:	4b0b      	ldr	r3, [pc, #44]	; (8000a24 <LoopFillZerobss+0x14>)
 80009f6:	585b      	ldr	r3, [r3, r1]
 80009f8:	5043      	str	r3, [r0, r1]
 80009fa:	3104      	adds	r1, #4

080009fc <LoopCopyDataInit>:
 80009fc:	480a      	ldr	r0, [pc, #40]	; (8000a28 <LoopFillZerobss+0x18>)
 80009fe:	4b0b      	ldr	r3, [pc, #44]	; (8000a2c <LoopFillZerobss+0x1c>)
 8000a00:	1842      	adds	r2, r0, r1
 8000a02:	429a      	cmp	r2, r3
 8000a04:	d3f6      	bcc.n	80009f4 <CopyDataInit>
 8000a06:	4a0a      	ldr	r2, [pc, #40]	; (8000a30 <LoopFillZerobss+0x20>)
 8000a08:	e002      	b.n	8000a10 <LoopFillZerobss>

08000a0a <FillZerobss>:
 8000a0a:	2300      	movs	r3, #0
 8000a0c:	f842 3b04 	str.w	r3, [r2], #4

08000a10 <LoopFillZerobss>:
 8000a10:	4b08      	ldr	r3, [pc, #32]	; (8000a34 <LoopFillZerobss+0x24>)
 8000a12:	429a      	cmp	r2, r3
 8000a14:	d3f9      	bcc.n	8000a0a <FillZerobss>
 8000a16:	f7ff ffe5 	bl	80009e4 <SystemInit>
 8000a1a:	f007 fa71 	bl	8007f00 <__libc_init_array>
 8000a1e:	f7ff fbc5 	bl	80001ac <main>
 8000a22:	4770      	bx	lr
 8000a24:	08007fec 	.word	0x08007fec
 8000a28:	20000000 	.word	0x20000000
 8000a2c:	20000190 	.word	0x20000190
 8000a30:	20000190 	.word	0x20000190
 8000a34:	20001484 	.word	0x20001484

08000a38 <ADC1_2_IRQHandler>:
 8000a38:	e7fe      	b.n	8000a38 <ADC1_2_IRQHandler>
	...

08000a3c <HAL_Init>:
 8000a3c:	b580      	push	{r7, lr}
 8000a3e:	af00      	add	r7, sp, #0
 8000a40:	4b08      	ldr	r3, [pc, #32]	; (8000a64 <HAL_Init+0x28>)
 8000a42:	681b      	ldr	r3, [r3, #0]
 8000a44:	4a07      	ldr	r2, [pc, #28]	; (8000a64 <HAL_Init+0x28>)
 8000a46:	f043 0310 	orr.w	r3, r3, #16
 8000a4a:	6013      	str	r3, [r2, #0]
 8000a4c:	2003      	movs	r0, #3
 8000a4e:	f000 fb2d 	bl	80010ac <HAL_NVIC_SetPriorityGrouping>
 8000a52:	2000      	movs	r0, #0
 8000a54:	f000 f808 	bl	8000a68 <HAL_InitTick>
 8000a58:	f7ff fdda 	bl	8000610 <HAL_MspInit>
 8000a5c:	2300      	movs	r3, #0
 8000a5e:	4618      	mov	r0, r3
 8000a60:	bd80      	pop	{r7, pc}
 8000a62:	bf00      	nop
 8000a64:	40022000 	.word	0x40022000

08000a68 <HAL_InitTick>:
 8000a68:	b580      	push	{r7, lr}
 8000a6a:	b082      	sub	sp, #8
 8000a6c:	af00      	add	r7, sp, #0
 8000a6e:	6078      	str	r0, [r7, #4]
 8000a70:	4b12      	ldr	r3, [pc, #72]	; (8000abc <HAL_InitTick+0x54>)
 8000a72:	681a      	ldr	r2, [r3, #0]
 8000a74:	4b12      	ldr	r3, [pc, #72]	; (8000ac0 <HAL_InitTick+0x58>)
 8000a76:	781b      	ldrb	r3, [r3, #0]
 8000a78:	4619      	mov	r1, r3
 8000a7a:	f44f 737a 	mov.w	r3, #1000	; 0x3e8
 8000a7e:	fbb3 f3f1 	udiv	r3, r3, r1
 8000a82:	fbb2 f3f3 	udiv	r3, r2, r3
 8000a86:	4618      	mov	r0, r3
 8000a88:	f000 fb45 	bl	8001116 <HAL_SYSTICK_Config>
 8000a8c:	4603      	mov	r3, r0
 8000a8e:	2b00      	cmp	r3, #0
 8000a90:	d001      	beq.n	8000a96 <HAL_InitTick+0x2e>
 8000a92:	2301      	movs	r3, #1
 8000a94:	e00e      	b.n	8000ab4 <HAL_InitTick+0x4c>
 8000a96:	687b      	ldr	r3, [r7, #4]
 8000a98:	2b0f      	cmp	r3, #15
 8000a9a:	d80a      	bhi.n	8000ab2 <HAL_InitTick+0x4a>
 8000a9c:	2200      	movs	r2, #0
 8000a9e:	6879      	ldr	r1, [r7, #4]
 8000aa0:	f04f 30ff 	mov.w	r0, #4294967295
 8000aa4:	f000 fb0d 	bl	80010c2 <HAL_NVIC_SetPriority>
 8000aa8:	4a06      	ldr	r2, [pc, #24]	; (8000ac4 <HAL_InitTick+0x5c>)
 8000aaa:	687b      	ldr	r3, [r7, #4]
 8000aac:	6013      	str	r3, [r2, #0]
 8000aae:	2300      	movs	r3, #0
 8000ab0:	e000      	b.n	8000ab4 <HAL_InitTick+0x4c>
 8000ab2:	2301      	movs	r3, #1
 8000ab4:	4618      	mov	r0, r3
 8000ab6:	3708      	adds	r7, #8
 8000ab8:	46bd      	mov	sp, r7
 8000aba:	bd80      	pop	{r7, pc}
 8000abc:	20000014 	.word	0x20000014
 8000ac0:	2000001c 	.word	0x2000001c
 8000ac4:	20000018 	.word	0x20000018

08000ac8 <HAL_IncTick>:
 8000ac8:	b480      	push	{r7}
 8000aca:	af00      	add	r7, sp, #0
 8000acc:	4b05      	ldr	r3, [pc, #20]	; (8000ae4 <HAL_IncTick+0x1c>)
 8000ace:	781b      	ldrb	r3, [r3, #0]
 8000ad0:	461a      	mov	r2, r3
 8000ad2:	4b05      	ldr	r3, [pc, #20]	; (8000ae8 <HAL_IncTick+0x20>)
 8000ad4:	681b      	ldr	r3, [r3, #0]
 8000ad6:	4413      	add	r3, r2
 8000ad8:	4a03      	ldr	r2, [pc, #12]	; (8000ae8 <HAL_IncTick+0x20>)
 8000ada:	6013      	str	r3, [r2, #0]
 8000adc:	bf00      	nop
 8000ade:	46bd      	mov	sp, r7
 8000ae0:	bc80      	pop	{r7}
 8000ae2:	4770      	bx	lr
 8000ae4:	2000001c 	.word	0x2000001c
 8000ae8:	20000500 	.word	0x20000500

08000aec <HAL_GetTick>:
 8000aec:	b480      	push	{r7}
 8000aee:	af00      	add	r7, sp, #0
 8000af0:	4b02      	ldr	r3, [pc, #8]	; (8000afc <HAL_GetTick+0x10>)
 8000af2:	681b      	ldr	r3, [r3, #0]
 8000af4:	4618      	mov	r0, r3
 8000af6:	46bd      	mov	sp, r7
 8000af8:	bc80      	pop	{r7}
 8000afa:	4770      	bx	lr
 8000afc:	20000500 	.word	0x20000500

08000b00 <HAL_ADC_Init>:
 8000b00:	b580      	push	{r7, lr}
 8000b02:	b086      	sub	sp, #24
 8000b04:	af00      	add	r7, sp, #0
 8000b06:	6078      	str	r0, [r7, #4]
 8000b08:	2300      	movs	r3, #0
 8000b0a:	75fb      	strb	r3, [r7, #23]
 8000b0c:	2300      	movs	r3, #0
 8000b0e:	613b      	str	r3, [r7, #16]
 8000b10:	2300      	movs	r3, #0
 8000b12:	60bb      	str	r3, [r7, #8]
 8000b14:	2300      	movs	r3, #0
 8000b16:	60fb      	str	r3, [r7, #12]
 8000b18:	687b      	ldr	r3, [r7, #4]
 8000b1a:	2b00      	cmp	r3, #0
 8000b1c:	d101      	bne.n	8000b22 <HAL_ADC_Init+0x22>
 8000b1e:	2301      	movs	r3, #1
 8000b20:	e0be      	b.n	8000ca0 <HAL_ADC_Init+0x1a0>
 8000b22:	687b      	ldr	r3, [r7, #4]
 8000b24:	689b      	ldr	r3, [r3, #8]
 8000b26:	2b00      	cmp	r3, #0
 8000b28:	687b      	ldr	r3, [r7, #4]
 8000b2a:	6a9b      	ldr	r3, [r3, #40]	; 0x28
 8000b2c:	2b00      	cmp	r3, #0
 8000b2e:	d109      	bne.n	8000b44 <HAL_ADC_Init+0x44>
 8000b30:	687b      	ldr	r3, [r7, #4]
 8000b32:	2200      	movs	r2, #0
 8000b34:	62da      	str	r2, [r3, #44]	; 0x2c
 8000b36:	687b      	ldr	r3, [r7, #4]
 8000b38:	2200      	movs	r2, #0
 8000b3a:	f883 2024 	strb.w	r2, [r3, #36]	; 0x24
 8000b3e:	6878      	ldr	r0, [r7, #4]
 8000b40:	f7ff fd98 	bl	8000674 <HAL_ADC_MspInit>
 8000b44:	6878      	ldr	r0, [r7, #4]
 8000b46:	f000 f9ab 	bl	8000ea0 <ADC_ConversionStop_Disable>
 8000b4a:	4603      	mov	r3, r0
 8000b4c:	75fb      	strb	r3, [r7, #23]
 8000b4e:	687b      	ldr	r3, [r7, #4]
 8000b50:	6a9b      	ldr	r3, [r3, #40]	; 0x28
 8000b52:	f003 0310 	and.w	r3, r3, #16
 8000b56:	2b00      	cmp	r3, #0
 8000b58:	f040 8099 	bne.w	8000c8e <HAL_ADC_Init+0x18e>
 8000b5c:	7dfb      	ldrb	r3, [r7, #23]
 8000b5e:	2b00      	cmp	r3, #0
 8000b60:	f040 8095 	bne.w	8000c8e <HAL_ADC_Init+0x18e>
 8000b64:	687b      	ldr	r3, [r7, #4]
 8000b66:	6a9b      	ldr	r3, [r3, #40]	; 0x28
 8000b68:	f423 5388 	bic.w	r3, r3, #4352	; 0x1100
 8000b6c:	f023 0302 	bic.w	r3, r3, #2
 8000b70:	f043 0202 	orr.w	r2, r3, #2
 8000b74:	687b      	ldr	r3, [r7, #4]
 8000b76:	629a      	str	r2, [r3, #40]	; 0x28
 8000b78:	687b      	ldr	r3, [r7, #4]
 8000b7a:	685a      	ldr	r2, [r3, #4]
 8000b7c:	687b      	ldr	r3, [r7, #4]
 8000b7e:	69db      	ldr	r3, [r3, #28]
 8000b80:	431a      	orrs	r2, r3
 8000b82:	687b      	ldr	r3, [r7, #4]
 8000b84:	7b1b      	ldrb	r3, [r3, #12]
 8000b86:	005b      	lsls	r3, r3, #1
 8000b88:	4313      	orrs	r3, r2
 8000b8a:	68ba      	ldr	r2, [r7, #8]
 8000b8c:	4313      	orrs	r3, r2
 8000b8e:	60bb      	str	r3, [r7, #8]
 8000b90:	687b      	ldr	r3, [r7, #4]
 8000b92:	689b      	ldr	r3, [r3, #8]
 8000b94:	f5b3 7f80 	cmp.w	r3, #256	; 0x100
 8000b98:	d003      	beq.n	8000ba2 <HAL_ADC_Init+0xa2>
 8000b9a:	687b      	ldr	r3, [r7, #4]
 8000b9c:	689b      	ldr	r3, [r3, #8]
 8000b9e:	2b01      	cmp	r3, #1
 8000ba0:	d102      	bne.n	8000ba8 <HAL_ADC_Init+0xa8>
 8000ba2:	f44f 7380 	mov.w	r3, #256	; 0x100
 8000ba6:	e000      	b.n	8000baa <HAL_ADC_Init+0xaa>
 8000ba8:	2300      	movs	r3, #0
 8000baa:	693a      	ldr	r2, [r7, #16]
 8000bac:	4313      	orrs	r3, r2
 8000bae:	613b      	str	r3, [r7, #16]
 8000bb0:	687b      	ldr	r3, [r7, #4]
 8000bb2:	7d1b      	ldrb	r3, [r3, #20]
 8000bb4:	2b01      	cmp	r3, #1
 8000bb6:	d119      	bne.n	8000bec <HAL_ADC_Init+0xec>
 8000bb8:	687b      	ldr	r3, [r7, #4]
 8000bba:	7b1b      	ldrb	r3, [r3, #12]
 8000bbc:	2b00      	cmp	r3, #0
 8000bbe:	d109      	bne.n	8000bd4 <HAL_ADC_Init+0xd4>
 8000bc0:	687b      	ldr	r3, [r7, #4]
 8000bc2:	699b      	ldr	r3, [r3, #24]
 8000bc4:	3b01      	subs	r3, #1
 8000bc6:	035a      	lsls	r2, r3, #13
 8000bc8:	693b      	ldr	r3, [r7, #16]
 8000bca:	4313      	orrs	r3, r2
 8000bcc:	f443 6300 	orr.w	r3, r3, #2048	; 0x800
 8000bd0:	613b      	str	r3, [r7, #16]
 8000bd2:	e00b      	b.n	8000bec <HAL_ADC_Init+0xec>
 8000bd4:	687b      	ldr	r3, [r7, #4]
 8000bd6:	6a9b      	ldr	r3, [r3, #40]	; 0x28
 8000bd8:	f043 0220 	orr.w	r2, r3, #32
 8000bdc:	687b      	ldr	r3, [r7, #4]
 8000bde:	629a      	str	r2, [r3, #40]	; 0x28
 8000be0:	687b      	ldr	r3, [r7, #4]
 8000be2:	6adb      	ldr	r3, [r3, #44]	; 0x2c
 8000be4:	f043 0201 	orr.w	r2, r3, #1
 8000be8:	687b      	ldr	r3, [r7, #4]
 8000bea:	62da      	str	r2, [r3, #44]	; 0x2c
 8000bec:	687b      	ldr	r3, [r7, #4]
 8000bee:	681b      	ldr	r3, [r3, #0]
 8000bf0:	685b      	ldr	r3, [r3, #4]
 8000bf2:	f423 4169 	bic.w	r1, r3, #59648	; 0xe900
 8000bf6:	687b      	ldr	r3, [r7, #4]
 8000bf8:	681b      	ldr	r3, [r3, #0]
 8000bfa:	693a      	ldr	r2, [r7, #16]
 8000bfc:	430a      	orrs	r2, r1
 8000bfe:	605a      	str	r2, [r3, #4]
 8000c00:	687b      	ldr	r3, [r7, #4]
 8000c02:	681b      	ldr	r3, [r3, #0]
 8000c04:	689a      	ldr	r2, [r3, #8]
 8000c06:	4b28      	ldr	r3, [pc, #160]	; (8000ca8 <HAL_ADC_Init+0x1a8>)
 8000c08:	4013      	ands	r3, r2
 8000c0a:	687a      	ldr	r2, [r7, #4]
 8000c0c:	6812      	ldr	r2, [r2, #0]
 8000c0e:	68b9      	ldr	r1, [r7, #8]
 8000c10:	430b      	orrs	r3, r1
 8000c12:	6093      	str	r3, [r2, #8]
 8000c14:	687b      	ldr	r3, [r7, #4]
 8000c16:	689b      	ldr	r3, [r3, #8]
 8000c18:	f5b3 7f80 	cmp.w	r3, #256	; 0x100
 8000c1c:	d003      	beq.n	8000c26 <HAL_ADC_Init+0x126>
 8000c1e:	687b      	ldr	r3, [r7, #4]
 8000c20:	689b      	ldr	r3, [r3, #8]
 8000c22:	2b01      	cmp	r3, #1
 8000c24:	d104      	bne.n	8000c30 <HAL_ADC_Init+0x130>
 8000c26:	687b      	ldr	r3, [r7, #4]
 8000c28:	691b      	ldr	r3, [r3, #16]
 8000c2a:	3b01      	subs	r3, #1
 8000c2c:	051b      	lsls	r3, r3, #20
 8000c2e:	60fb      	str	r3, [r7, #12]
 8000c30:	687b      	ldr	r3, [r7, #4]
 8000c32:	681b      	ldr	r3, [r3, #0]
 8000c34:	6adb      	ldr	r3, [r3, #44]	; 0x2c
 8000c36:	f423 0170 	bic.w	r1, r3, #15728640	; 0xf00000
 8000c3a:	687b      	ldr	r3, [r7, #4]
 8000c3c:	681b      	ldr	r3, [r3, #0]
 8000c3e:	68fa      	ldr	r2, [r7, #12]
 8000c40:	430a      	orrs	r2, r1
 8000c42:	62da      	str	r2, [r3, #44]	; 0x2c
 8000c44:	687b      	ldr	r3, [r7, #4]
 8000c46:	681b      	ldr	r3, [r3, #0]
 8000c48:	689a      	ldr	r2, [r3, #8]
 8000c4a:	4b18      	ldr	r3, [pc, #96]	; (8000cac <HAL_ADC_Init+0x1ac>)
 8000c4c:	4013      	ands	r3, r2
 8000c4e:	68ba      	ldr	r2, [r7, #8]
 8000c50:	429a      	cmp	r2, r3
 8000c52:	d10b      	bne.n	8000c6c <HAL_ADC_Init+0x16c>
 8000c54:	687b      	ldr	r3, [r7, #4]
 8000c56:	2200      	movs	r2, #0
 8000c58:	62da      	str	r2, [r3, #44]	; 0x2c
 8000c5a:	687b      	ldr	r3, [r7, #4]
 8000c5c:	6a9b      	ldr	r3, [r3, #40]	; 0x28
 8000c5e:	f023 0303 	bic.w	r3, r3, #3
 8000c62:	f043 0201 	orr.w	r2, r3, #1
 8000c66:	687b      	ldr	r3, [r7, #4]
 8000c68:	629a      	str	r2, [r3, #40]	; 0x28
 8000c6a:	e018      	b.n	8000c9e <HAL_ADC_Init+0x19e>
 8000c6c:	687b      	ldr	r3, [r7, #4]
 8000c6e:	6a9b      	ldr	r3, [r3, #40]	; 0x28
 8000c70:	f023 0312 	bic.w	r3, r3, #18
 8000c74:	f043 0210 	orr.w	r2, r3, #16
 8000c78:	687b      	ldr	r3, [r7, #4]
 8000c7a:	629a      	str	r2, [r3, #40]	; 0x28
 8000c7c:	687b      	ldr	r3, [r7, #4]
 8000c7e:	6adb      	ldr	r3, [r3, #44]	; 0x2c
 8000c80:	f043 0201 	orr.w	r2, r3, #1
 8000c84:	687b      	ldr	r3, [r7, #4]
 8000c86:	62da      	str	r2, [r3, #44]	; 0x2c
 8000c88:	2301      	movs	r3, #1
 8000c8a:	75fb      	strb	r3, [r7, #23]
 8000c8c:	e007      	b.n	8000c9e <HAL_ADC_Init+0x19e>
 8000c8e:	687b      	ldr	r3, [r7, #4]
 8000c90:	6a9b      	ldr	r3, [r3, #40]	; 0x28
 8000c92:	f043 0210 	orr.w	r2, r3, #16
 8000c96:	687b      	ldr	r3, [r7, #4]
 8000c98:	629a      	str	r2, [r3, #40]	; 0x28
 8000c9a:	2301      	movs	r3, #1
 8000c9c:	75fb      	strb	r3, [r7, #23]
 8000c9e:	7dfb      	ldrb	r3, [r7, #23]
 8000ca0:	4618      	mov	r0, r3
 8000ca2:	3718      	adds	r7, #24
 8000ca4:	46bd      	mov	sp, r7
 8000ca6:	bd80      	pop	{r7, pc}
 8000ca8:	ffe1f7fd 	.word	0xffe1f7fd
 8000cac:	ff1f0efe 	.word	0xff1f0efe

08000cb0 <HAL_ADC_ConfigChannel>:
 8000cb0:	b480      	push	{r7}
 8000cb2:	b085      	sub	sp, #20
 8000cb4:	af00      	add	r7, sp, #0
 8000cb6:	6078      	str	r0, [r7, #4]
 8000cb8:	6039      	str	r1, [r7, #0]
 8000cba:	2300      	movs	r3, #0
 8000cbc:	73fb      	strb	r3, [r7, #15]
 8000cbe:	2300      	movs	r3, #0
 8000cc0:	60bb      	str	r3, [r7, #8]
 8000cc2:	687b      	ldr	r3, [r7, #4]
 8000cc4:	f893 3024 	ldrb.w	r3, [r3, #36]	; 0x24
 8000cc8:	2b01      	cmp	r3, #1
 8000cca:	d101      	bne.n	8000cd0 <HAL_ADC_ConfigChannel+0x20>
 8000ccc:	2302      	movs	r3, #2
 8000cce:	e0dc      	b.n	8000e8a <HAL_ADC_ConfigChannel+0x1da>
 8000cd0:	687b      	ldr	r3, [r7, #4]
 8000cd2:	2201      	movs	r2, #1
 8000cd4:	f883 2024 	strb.w	r2, [r3, #36]	; 0x24
 8000cd8:	683b      	ldr	r3, [r7, #0]
 8000cda:	685b      	ldr	r3, [r3, #4]
 8000cdc:	2b06      	cmp	r3, #6
 8000cde:	d81c      	bhi.n	8000d1a <HAL_ADC_ConfigChannel+0x6a>
 8000ce0:	687b      	ldr	r3, [r7, #4]
 8000ce2:	681b      	ldr	r3, [r3, #0]
 8000ce4:	6b59      	ldr	r1, [r3, #52]	; 0x34
 8000ce6:	683b      	ldr	r3, [r7, #0]
 8000ce8:	685a      	ldr	r2, [r3, #4]
 8000cea:	4613      	mov	r3, r2
 8000cec:	009b      	lsls	r3, r3, #2
 8000cee:	4413      	add	r3, r2
 8000cf0:	3b05      	subs	r3, #5
 8000cf2:	221f      	movs	r2, #31
 8000cf4:	fa02 f303 	lsl.w	r3, r2, r3
 8000cf8:	43db      	mvns	r3, r3
 8000cfa:	4019      	ands	r1, r3
 8000cfc:	683b      	ldr	r3, [r7, #0]
 8000cfe:	6818      	ldr	r0, [r3, #0]
 8000d00:	683b      	ldr	r3, [r7, #0]
 8000d02:	685a      	ldr	r2, [r3, #4]
 8000d04:	4613      	mov	r3, r2
 8000d06:	009b      	lsls	r3, r3, #2
 8000d08:	4413      	add	r3, r2
 8000d0a:	3b05      	subs	r3, #5
 8000d0c:	fa00 f203 	lsl.w	r2, r0, r3
 8000d10:	687b      	ldr	r3, [r7, #4]
 8000d12:	681b      	ldr	r3, [r3, #0]
 8000d14:	430a      	orrs	r2, r1
 8000d16:	635a      	str	r2, [r3, #52]	; 0x34
 8000d18:	e03c      	b.n	8000d94 <HAL_ADC_ConfigChannel+0xe4>
 8000d1a:	683b      	ldr	r3, [r7, #0]
 8000d1c:	685b      	ldr	r3, [r3, #4]
 8000d1e:	2b0c      	cmp	r3, #12
 8000d20:	d81c      	bhi.n	8000d5c <HAL_ADC_ConfigChannel+0xac>
 8000d22:	687b      	ldr	r3, [r7, #4]
 8000d24:	681b      	ldr	r3, [r3, #0]
 8000d26:	6b19      	ldr	r1, [r3, #48]	; 0x30
 8000d28:	683b      	ldr	r3, [r7, #0]
 8000d2a:	685a      	ldr	r2, [r3, #4]
 8000d2c:	4613      	mov	r3, r2
 8000d2e:	009b      	lsls	r3, r3, #2
 8000d30:	4413      	add	r3, r2
 8000d32:	3b23      	subs	r3, #35	; 0x23
 8000d34:	221f      	movs	r2, #31
 8000d36:	fa02 f303 	lsl.w	r3, r2, r3
 8000d3a:	43db      	mvns	r3, r3
 8000d3c:	4019      	ands	r1, r3
 8000d3e:	683b      	ldr	r3, [r7, #0]
 8000d40:	6818      	ldr	r0, [r3, #0]
 8000d42:	683b      	ldr	r3, [r7, #0]
 8000d44:	685a      	ldr	r2, [r3, #4]
 8000d46:	4613      	mov	r3, r2
 8000d48:	009b      	lsls	r3, r3, #2
 8000d4a:	4413      	add	r3, r2
 8000d4c:	3b23      	subs	r3, #35	; 0x23
 8000d4e:	fa00 f203 	lsl.w	r2, r0, r3
 8000d52:	687b      	ldr	r3, [r7, #4]
 8000d54:	681b      	ldr	r3, [r3, #0]
 8000d56:	430a      	orrs	r2, r1
 8000d58:	631a      	str	r2, [r3, #48]	; 0x30
 8000d5a:	e01b      	b.n	8000d94 <HAL_ADC_ConfigChannel+0xe4>
 8000d5c:	687b      	ldr	r3, [r7, #4]
 8000d5e:	681b      	ldr	r3, [r3, #0]
 8000d60:	6ad9      	ldr	r1, [r3, #44]	; 0x2c
 8000d62:	683b      	ldr	r3, [r7, #0]
 8000d64:	685a      	ldr	r2, [r3, #4]
 8000d66:	4613      	mov	r3, r2
 8000d68:	009b      	lsls	r3, r3, #2
 8000d6a:	4413      	add	r3, r2
 8000d6c:	3b41      	subs	r3, #65	; 0x41
 8000d6e:	221f      	movs	r2, #31
 8000d70:	fa02 f303 	lsl.w	r3, r2, r3
 8000d74:	43db      	mvns	r3, r3
 8000d76:	4019      	ands	r1, r3
 8000d78:	683b      	ldr	r3, [r7, #0]
 8000d7a:	6818      	ldr	r0, [r3, #0]
 8000d7c:	683b      	ldr	r3, [r7, #0]
 8000d7e:	685a      	ldr	r2, [r3, #4]
 8000d80:	4613      	mov	r3, r2
 8000d82:	009b      	lsls	r3, r3, #2
 8000d84:	4413      	add	r3, r2
 8000d86:	3b41      	subs	r3, #65	; 0x41
 8000d88:	fa00 f203 	lsl.w	r2, r0, r3
 8000d8c:	687b      	ldr	r3, [r7, #4]
 8000d8e:	681b      	ldr	r3, [r3, #0]
 8000d90:	430a      	orrs	r2, r1
 8000d92:	62da      	str	r2, [r3, #44]	; 0x2c
 8000d94:	683b      	ldr	r3, [r7, #0]
 8000d96:	681b      	ldr	r3, [r3, #0]
 8000d98:	2b09      	cmp	r3, #9
 8000d9a:	d91c      	bls.n	8000dd6 <HAL_ADC_ConfigChannel+0x126>
 8000d9c:	687b      	ldr	r3, [r7, #4]
 8000d9e:	681b      	ldr	r3, [r3, #0]
 8000da0:	68d9      	ldr	r1, [r3, #12]
 8000da2:	683b      	ldr	r3, [r7, #0]
 8000da4:	681a      	ldr	r2, [r3, #0]
 8000da6:	4613      	mov	r3, r2
 8000da8:	005b      	lsls	r3, r3, #1
 8000daa:	4413      	add	r3, r2
 8000dac:	3b1e      	subs	r3, #30
 8000dae:	2207      	movs	r2, #7
 8000db0:	fa02 f303 	lsl.w	r3, r2, r3
 8000db4:	43db      	mvns	r3, r3
 8000db6:	4019      	ands	r1, r3
 8000db8:	683b      	ldr	r3, [r7, #0]
 8000dba:	6898      	ldr	r0, [r3, #8]
 8000dbc:	683b      	ldr	r3, [r7, #0]
 8000dbe:	681a      	ldr	r2, [r3, #0]
 8000dc0:	4613      	mov	r3, r2
 8000dc2:	005b      	lsls	r3, r3, #1
 8000dc4:	4413      	add	r3, r2
 8000dc6:	3b1e      	subs	r3, #30
 8000dc8:	fa00 f203 	lsl.w	r2, r0, r3
 8000dcc:	687b      	ldr	r3, [r7, #4]
 8000dce:	681b      	ldr	r3, [r3, #0]
 8000dd0:	430a      	orrs	r2, r1
 8000dd2:	60da      	str	r2, [r3, #12]
 8000dd4:	e019      	b.n	8000e0a <HAL_ADC_ConfigChannel+0x15a>
 8000dd6:	687b      	ldr	r3, [r7, #4]
 8000dd8:	681b      	ldr	r3, [r3, #0]
 8000dda:	6919      	ldr	r1, [r3, #16]
 8000ddc:	683b      	ldr	r3, [r7, #0]
 8000dde:	681a      	ldr	r2, [r3, #0]
 8000de0:	4613      	mov	r3, r2
 8000de2:	005b      	lsls	r3, r3, #1
 8000de4:	4413      	add	r3, r2
 8000de6:	2207      	movs	r2, #7
 8000de8:	fa02 f303 	lsl.w	r3, r2, r3
 8000dec:	43db      	mvns	r3, r3
 8000dee:	4019      	ands	r1, r3
 8000df0:	683b      	ldr	r3, [r7, #0]
 8000df2:	6898      	ldr	r0, [r3, #8]
 8000df4:	683b      	ldr	r3, [r7, #0]
 8000df6:	681a      	ldr	r2, [r3, #0]
 8000df8:	4613      	mov	r3, r2
 8000dfa:	005b      	lsls	r3, r3, #1
 8000dfc:	4413      	add	r3, r2
 8000dfe:	fa00 f203 	lsl.w	r2, r0, r3
 8000e02:	687b      	ldr	r3, [r7, #4]
 8000e04:	681b      	ldr	r3, [r3, #0]
 8000e06:	430a      	orrs	r2, r1
 8000e08:	611a      	str	r2, [r3, #16]
 8000e0a:	683b      	ldr	r3, [r7, #0]
 8000e0c:	681b      	ldr	r3, [r3, #0]
 8000e0e:	2b10      	cmp	r3, #16
 8000e10:	d003      	beq.n	8000e1a <HAL_ADC_ConfigChannel+0x16a>
 8000e12:	683b      	ldr	r3, [r7, #0]
 8000e14:	681b      	ldr	r3, [r3, #0]
 8000e16:	2b11      	cmp	r3, #17
 8000e18:	d132      	bne.n	8000e80 <HAL_ADC_ConfigChannel+0x1d0>
 8000e1a:	687b      	ldr	r3, [r7, #4]
 8000e1c:	681b      	ldr	r3, [r3, #0]
 8000e1e:	4a1d      	ldr	r2, [pc, #116]	; (8000e94 <HAL_ADC_ConfigChannel+0x1e4>)
 8000e20:	4293      	cmp	r3, r2
 8000e22:	d125      	bne.n	8000e70 <HAL_ADC_ConfigChannel+0x1c0>
 8000e24:	687b      	ldr	r3, [r7, #4]
 8000e26:	681b      	ldr	r3, [r3, #0]
 8000e28:	689b      	ldr	r3, [r3, #8]
 8000e2a:	f403 0300 	and.w	r3, r3, #8388608	; 0x800000
 8000e2e:	2b00      	cmp	r3, #0
 8000e30:	d126      	bne.n	8000e80 <HAL_ADC_ConfigChannel+0x1d0>
 8000e32:	687b      	ldr	r3, [r7, #4]
 8000e34:	681b      	ldr	r3, [r3, #0]
 8000e36:	689a      	ldr	r2, [r3, #8]
 8000e38:	687b      	ldr	r3, [r7, #4]
 8000e3a:	681b      	ldr	r3, [r3, #0]
 8000e3c:	f442 0200 	orr.w	r2, r2, #8388608	; 0x800000
 8000e40:	609a      	str	r2, [r3, #8]
 8000e42:	683b      	ldr	r3, [r7, #0]
 8000e44:	681b      	ldr	r3, [r3, #0]
 8000e46:	2b10      	cmp	r3, #16
 8000e48:	d11a      	bne.n	8000e80 <HAL_ADC_ConfigChannel+0x1d0>
 8000e4a:	4b13      	ldr	r3, [pc, #76]	; (8000e98 <HAL_ADC_ConfigChannel+0x1e8>)
 8000e4c:	681b      	ldr	r3, [r3, #0]
 8000e4e:	4a13      	ldr	r2, [pc, #76]	; (8000e9c <HAL_ADC_ConfigChannel+0x1ec>)
 8000e50:	fba2 2303 	umull	r2, r3, r2, r3
 8000e54:	0c9a      	lsrs	r2, r3, #18
 8000e56:	4613      	mov	r3, r2
 8000e58:	009b      	lsls	r3, r3, #2
 8000e5a:	4413      	add	r3, r2
 8000e5c:	005b      	lsls	r3, r3, #1
 8000e5e:	60bb      	str	r3, [r7, #8]
 8000e60:	e002      	b.n	8000e68 <HAL_ADC_ConfigChannel+0x1b8>
 8000e62:	68bb      	ldr	r3, [r7, #8]
 8000e64:	3b01      	subs	r3, #1
 8000e66:	60bb      	str	r3, [r7, #8]
 8000e68:	68bb      	ldr	r3, [r7, #8]
 8000e6a:	2b00      	cmp	r3, #0
 8000e6c:	d1f9      	bne.n	8000e62 <HAL_ADC_ConfigChannel+0x1b2>
 8000e6e:	e007      	b.n	8000e80 <HAL_ADC_ConfigChannel+0x1d0>
 8000e70:	687b      	ldr	r3, [r7, #4]
 8000e72:	6a9b      	ldr	r3, [r3, #40]	; 0x28
 8000e74:	f043 0220 	orr.w	r2, r3, #32
 8000e78:	687b      	ldr	r3, [r7, #4]
 8000e7a:	629a      	str	r2, [r3, #40]	; 0x28
 8000e7c:	2301      	movs	r3, #1
 8000e7e:	73fb      	strb	r3, [r7, #15]
 8000e80:	687b      	ldr	r3, [r7, #4]
 8000e82:	2200      	movs	r2, #0
 8000e84:	f883 2024 	strb.w	r2, [r3, #36]	; 0x24
 8000e88:	7bfb      	ldrb	r3, [r7, #15]
 8000e8a:	4618      	mov	r0, r3
 8000e8c:	3714      	adds	r7, #20
 8000e8e:	46bd      	mov	sp, r7
 8000e90:	bc80      	pop	{r7}
 8000e92:	4770      	bx	lr
 8000e94:	40012400 	.word	0x40012400
 8000e98:	20000014 	.word	0x20000014
 8000e9c:	431bde83 	.word	0x431bde83

08000ea0 <ADC_ConversionStop_Disable>:
 8000ea0:	b580      	push	{r7, lr}
 8000ea2:	b084      	sub	sp, #16
 8000ea4:	af00      	add	r7, sp, #0
 8000ea6:	6078      	str	r0, [r7, #4]
 8000ea8:	2300      	movs	r3, #0
 8000eaa:	60fb      	str	r3, [r7, #12]
 8000eac:	687b      	ldr	r3, [r7, #4]
 8000eae:	681b      	ldr	r3, [r3, #0]
 8000eb0:	689b      	ldr	r3, [r3, #8]
 8000eb2:	f003 0301 	and.w	r3, r3, #1
 8000eb6:	2b01      	cmp	r3, #1
 8000eb8:	d127      	bne.n	8000f0a <ADC_ConversionStop_Disable+0x6a>
 8000eba:	687b      	ldr	r3, [r7, #4]
 8000ebc:	681b      	ldr	r3, [r3, #0]
 8000ebe:	689a      	ldr	r2, [r3, #8]
 8000ec0:	687b      	ldr	r3, [r7, #4]
 8000ec2:	681b      	ldr	r3, [r3, #0]
 8000ec4:	f022 0201 	bic.w	r2, r2, #1
 8000ec8:	609a      	str	r2, [r3, #8]
 8000eca:	f7ff fe0f 	bl	8000aec <HAL_GetTick>
 8000ece:	60f8      	str	r0, [r7, #12]
 8000ed0:	e014      	b.n	8000efc <ADC_ConversionStop_Disable+0x5c>
 8000ed2:	f7ff fe0b 	bl	8000aec <HAL_GetTick>
 8000ed6:	4602      	mov	r2, r0
 8000ed8:	68fb      	ldr	r3, [r7, #12]
 8000eda:	1ad3      	subs	r3, r2, r3
 8000edc:	2b02      	cmp	r3, #2
 8000ede:	d90d      	bls.n	8000efc <ADC_ConversionStop_Disable+0x5c>
 8000ee0:	687b      	ldr	r3, [r7, #4]
 8000ee2:	6a9b      	ldr	r3, [r3, #40]	; 0x28
 8000ee4:	f043 0210 	orr.w	r2, r3, #16
 8000ee8:	687b      	ldr	r3, [r7, #4]
 8000eea:	629a      	str	r2, [r3, #40]	; 0x28
 8000eec:	687b      	ldr	r3, [r7, #4]
 8000eee:	6adb      	ldr	r3, [r3, #44]	; 0x2c
 8000ef0:	f043 0201 	orr.w	r2, r3, #1
 8000ef4:	687b      	ldr	r3, [r7, #4]
 8000ef6:	62da      	str	r2, [r3, #44]	; 0x2c
 8000ef8:	2301      	movs	r3, #1
 8000efa:	e007      	b.n	8000f0c <ADC_ConversionStop_Disable+0x6c>
 8000efc:	687b      	ldr	r3, [r7, #4]
 8000efe:	681b      	ldr	r3, [r3, #0]
 8000f00:	689b      	ldr	r3, [r3, #8]
 8000f02:	f003 0301 	and.w	r3, r3, #1
 8000f06:	2b01      	cmp	r3, #1
 8000f08:	d0e3      	beq.n	8000ed2 <ADC_ConversionStop_Disable+0x32>
 8000f0a:	2300      	movs	r3, #0
 8000f0c:	4618      	mov	r0, r3
 8000f0e:	3710      	adds	r7, #16
 8000f10:	46bd      	mov	sp, r7
 8000f12:	bd80      	pop	{r7, pc}

08000f14 <__NVIC_SetPriorityGrouping>:
 8000f14:	b480      	push	{r7}
 8000f16:	b085      	sub	sp, #20
 8000f18:	af00      	add	r7, sp, #0
 8000f1a:	6078      	str	r0, [r7, #4]
 8000f1c:	687b      	ldr	r3, [r7, #4]
 8000f1e:	f003 0307 	and.w	r3, r3, #7
 8000f22:	60fb      	str	r3, [r7, #12]
 8000f24:	4b0c      	ldr	r3, [pc, #48]	; (8000f58 <__NVIC_SetPriorityGrouping+0x44>)
 8000f26:	68db      	ldr	r3, [r3, #12]
 8000f28:	60bb      	str	r3, [r7, #8]
 8000f2a:	68ba      	ldr	r2, [r7, #8]
 8000f2c:	f64f 03ff 	movw	r3, #63743	; 0xf8ff
 8000f30:	4013      	ands	r3, r2
 8000f32:	60bb      	str	r3, [r7, #8]
 8000f34:	68fb      	ldr	r3, [r7, #12]
 8000f36:	021a      	lsls	r2, r3, #8
 8000f38:	68bb      	ldr	r3, [r7, #8]
 8000f3a:	4313      	orrs	r3, r2
 8000f3c:	f043 63bf 	orr.w	r3, r3, #100139008	; 0x5f80000
 8000f40:	f443 3300 	orr.w	r3, r3, #131072	; 0x20000
 8000f44:	60bb      	str	r3, [r7, #8]
 8000f46:	4a04      	ldr	r2, [pc, #16]	; (8000f58 <__NVIC_SetPriorityGrouping+0x44>)
 8000f48:	68bb      	ldr	r3, [r7, #8]
 8000f4a:	60d3      	str	r3, [r2, #12]
 8000f4c:	bf00      	nop
 8000f4e:	3714      	adds	r7, #20
 8000f50:	46bd      	mov	sp, r7
 8000f52:	bc80      	pop	{r7}
 8000f54:	4770      	bx	lr
 8000f56:	bf00      	nop
 8000f58:	e000ed00 	.word	0xe000ed00

08000f5c <__NVIC_GetPriorityGrouping>:
 8000f5c:	b480      	push	{r7}
 8000f5e:	af00      	add	r7, sp, #0
 8000f60:	4b04      	ldr	r3, [pc, #16]	; (8000f74 <__NVIC_GetPriorityGrouping+0x18>)
 8000f62:	68db      	ldr	r3, [r3, #12]
 8000f64:	0a1b      	lsrs	r3, r3, #8
 8000f66:	f003 0307 	and.w	r3, r3, #7
 8000f6a:	4618      	mov	r0, r3
 8000f6c:	46bd      	mov	sp, r7
 8000f6e:	bc80      	pop	{r7}
 8000f70:	4770      	bx	lr
 8000f72:	bf00      	nop
 8000f74:	e000ed00 	.word	0xe000ed00

08000f78 <__NVIC_EnableIRQ>:
 8000f78:	b480      	push	{r7}
 8000f7a:	b083      	sub	sp, #12
 8000f7c:	af00      	add	r7, sp, #0
 8000f7e:	4603      	mov	r3, r0
 8000f80:	71fb      	strb	r3, [r7, #7]
 8000f82:	f997 3007 	ldrsb.w	r3, [r7, #7]
 8000f86:	2b00      	cmp	r3, #0
 8000f88:	db0b      	blt.n	8000fa2 <__NVIC_EnableIRQ+0x2a>
 8000f8a:	79fb      	ldrb	r3, [r7, #7]
 8000f8c:	f003 021f 	and.w	r2, r3, #31
 8000f90:	4906      	ldr	r1, [pc, #24]	; (8000fac <__NVIC_EnableIRQ+0x34>)
 8000f92:	f997 3007 	ldrsb.w	r3, [r7, #7]
 8000f96:	095b      	lsrs	r3, r3, #5
 8000f98:	2001      	movs	r0, #1
 8000f9a:	fa00 f202 	lsl.w	r2, r0, r2
 8000f9e:	f841 2023 	str.w	r2, [r1, r3, lsl #2]
 8000fa2:	bf00      	nop
 8000fa4:	370c      	adds	r7, #12
 8000fa6:	46bd      	mov	sp, r7
 8000fa8:	bc80      	pop	{r7}
 8000faa:	4770      	bx	lr
 8000fac:	e000e100 	.word	0xe000e100

08000fb0 <__NVIC_SetPriority>:
 8000fb0:	b480      	push	{r7}
 8000fb2:	b083      	sub	sp, #12
 8000fb4:	af00      	add	r7, sp, #0
 8000fb6:	4603      	mov	r3, r0
 8000fb8:	6039      	str	r1, [r7, #0]
 8000fba:	71fb      	strb	r3, [r7, #7]
 8000fbc:	f997 3007 	ldrsb.w	r3, [r7, #7]
 8000fc0:	2b00      	cmp	r3, #0
 8000fc2:	db0a      	blt.n	8000fda <__NVIC_SetPriority+0x2a>
 8000fc4:	683b      	ldr	r3, [r7, #0]
 8000fc6:	b2da      	uxtb	r2, r3
 8000fc8:	490c      	ldr	r1, [pc, #48]	; (8000ffc <__NVIC_SetPriority+0x4c>)
 8000fca:	f997 3007 	ldrsb.w	r3, [r7, #7]
 8000fce:	0112      	lsls	r2, r2, #4
 8000fd0:	b2d2      	uxtb	r2, r2
 8000fd2:	440b      	add	r3, r1
 8000fd4:	f883 2300 	strb.w	r2, [r3, #768]	; 0x300
 8000fd8:	e00a      	b.n	8000ff0 <__NVIC_SetPriority+0x40>
 8000fda:	683b      	ldr	r3, [r7, #0]
 8000fdc:	b2da      	uxtb	r2, r3
 8000fde:	4908      	ldr	r1, [pc, #32]	; (8001000 <__NVIC_SetPriority+0x50>)
 8000fe0:	79fb      	ldrb	r3, [r7, #7]
 8000fe2:	f003 030f 	and.w	r3, r3, #15
 8000fe6:	3b04      	subs	r3, #4
 8000fe8:	0112      	lsls	r2, r2, #4
 8000fea:	b2d2      	uxtb	r2, r2
 8000fec:	440b      	add	r3, r1
 8000fee:	761a      	strb	r2, [r3, #24]
 8000ff0:	bf00      	nop
 8000ff2:	370c      	adds	r7, #12
 8000ff4:	46bd      	mov	sp, r7
 8000ff6:	bc80      	pop	{r7}
 8000ff8:	4770      	bx	lr
 8000ffa:	bf00      	nop
 8000ffc:	e000e100 	.word	0xe000e100
 8001000:	e000ed00 	.word	0xe000ed00

08001004 <NVIC_EncodePriority>:
 8001004:	b480      	push	{r7}
 8001006:	b089      	sub	sp, #36	; 0x24
 8001008:	af00      	add	r7, sp, #0
 800100a:	60f8      	str	r0, [r7, #12]
 800100c:	60b9      	str	r1, [r7, #8]
 800100e:	607a      	str	r2, [r7, #4]
 8001010:	68fb      	ldr	r3, [r7, #12]
 8001012:	f003 0307 	and.w	r3, r3, #7
 8001016:	61fb      	str	r3, [r7, #28]
 8001018:	69fb      	ldr	r3, [r7, #28]
 800101a:	f1c3 0307 	rsb	r3, r3, #7
 800101e:	2b04      	cmp	r3, #4
 8001020:	bf28      	it	cs
 8001022:	2304      	movcs	r3, #4
 8001024:	61bb      	str	r3, [r7, #24]
 8001026:	69fb      	ldr	r3, [r7, #28]
 8001028:	3304      	adds	r3, #4
 800102a:	2b06      	cmp	r3, #6
 800102c:	d902      	bls.n	8001034 <NVIC_EncodePriority+0x30>
 800102e:	69fb      	ldr	r3, [r7, #28]
 8001030:	3b03      	subs	r3, #3
 8001032:	e000      	b.n	8001036 <NVIC_EncodePriority+0x32>
 8001034:	2300      	movs	r3, #0
 8001036:	617b      	str	r3, [r7, #20]
 8001038:	f04f 32ff 	mov.w	r2, #4294967295
 800103c:	69bb      	ldr	r3, [r7, #24]
 800103e:	fa02 f303 	lsl.w	r3, r2, r3
 8001042:	43da      	mvns	r2, r3
 8001044:	68bb      	ldr	r3, [r7, #8]
 8001046:	401a      	ands	r2, r3
 8001048:	697b      	ldr	r3, [r7, #20]
 800104a:	409a      	lsls	r2, r3
 800104c:	f04f 31ff 	mov.w	r1, #4294967295
 8001050:	697b      	ldr	r3, [r7, #20]
 8001052:	fa01 f303 	lsl.w	r3, r1, r3
 8001056:	43d9      	mvns	r1, r3
 8001058:	687b      	ldr	r3, [r7, #4]
 800105a:	400b      	ands	r3, r1
 800105c:	4313      	orrs	r3, r2
 800105e:	4618      	mov	r0, r3
 8001060:	3724      	adds	r7, #36	; 0x24
 8001062:	46bd      	mov	sp, r7
 8001064:	bc80      	pop	{r7}
 8001066:	4770      	bx	lr

08001068 <SysTick_Config>:
 8001068:	b580      	push	{r7, lr}
 800106a:	b082      	sub	sp, #8
 800106c:	af00      	add	r7, sp, #0
 800106e:	6078      	str	r0, [r7, #4]
 8001070:	687b      	ldr	r3, [r7, #4]
 8001072:	3b01      	subs	r3, #1
 8001074:	f1b3 7f80 	cmp.w	r3, #16777216	; 0x1000000
 8001078:	d301      	bcc.n	800107e <SysTick_Config+0x16>
 800107a:	2301      	movs	r3, #1
 800107c:	e00f      	b.n	800109e <SysTick_Config+0x36>
 800107e:	4a0a      	ldr	r2, [pc, #40]	; (80010a8 <SysTick_Config+0x40>)
 8001080:	687b      	ldr	r3, [r7, #4]
 8001082:	3b01      	subs	r3, #1
 8001084:	6053      	str	r3, [r2, #4]
 8001086:	210f      	movs	r1, #15
 8001088:	f04f 30ff 	mov.w	r0, #4294967295
 800108c:	f7ff ff90 	bl	8000fb0 <__NVIC_SetPriority>
 8001090:	4b05      	ldr	r3, [pc, #20]	; (80010a8 <SysTick_Config+0x40>)
 8001092:	2200      	movs	r2, #0
 8001094:	609a      	str	r2, [r3, #8]
 8001096:	4b04      	ldr	r3, [pc, #16]	; (80010a8 <SysTick_Config+0x40>)
 8001098:	2207      	movs	r2, #7
 800109a:	601a      	str	r2, [r3, #0]
 800109c:	2300      	movs	r3, #0
 800109e:	4618      	mov	r0, r3
 80010a0:	3708      	adds	r7, #8
 80010a2:	46bd      	mov	sp, r7
 80010a4:	bd80      	pop	{r7, pc}
 80010a6:	bf00      	nop
 80010a8:	e000e010 	.word	0xe000e010

080010ac <HAL_NVIC_SetPriorityGrouping>:
 80010ac:	b580      	push	{r7, lr}
 80010ae:	b082      	sub	sp, #8
 80010b0:	af00      	add	r7, sp, #0
 80010b2:	6078      	str	r0, [r7, #4]
 80010b4:	6878      	ldr	r0, [r7, #4]
 80010b6:	f7ff ff2d 	bl	8000f14 <__NVIC_SetPriorityGrouping>
 80010ba:	bf00      	nop
 80010bc:	3708      	adds	r7, #8
 80010be:	46bd      	mov	sp, r7
 80010c0:	bd80      	pop	{r7, pc}

080010c2 <HAL_NVIC_SetPriority>:
 80010c2:	b580      	push	{r7, lr}
 80010c4:	b086      	sub	sp, #24
 80010c6:	af00      	add	r7, sp, #0
 80010c8:	4603      	mov	r3, r0
 80010ca:	60b9      	str	r1, [r7, #8]
 80010cc:	607a      	str	r2, [r7, #4]
 80010ce:	73fb      	strb	r3, [r7, #15]
 80010d0:	2300      	movs	r3, #0
 80010d2:	617b      	str	r3, [r7, #20]
 80010d4:	f7ff ff42 	bl	8000f5c <__NVIC_GetPriorityGrouping>
 80010d8:	6178      	str	r0, [r7, #20]
 80010da:	687a      	ldr	r2, [r7, #4]
 80010dc:	68b9      	ldr	r1, [r7, #8]
 80010de:	6978      	ldr	r0, [r7, #20]
 80010e0:	f7ff ff90 	bl	8001004 <NVIC_EncodePriority>
 80010e4:	4602      	mov	r2, r0
 80010e6:	f997 300f 	ldrsb.w	r3, [r7, #15]
 80010ea:	4611      	mov	r1, r2
 80010ec:	4618      	mov	r0, r3
 80010ee:	f7ff ff5f 	bl	8000fb0 <__NVIC_SetPriority>
 80010f2:	bf00      	nop
 80010f4:	3718      	adds	r7, #24
 80010f6:	46bd      	mov	sp, r7
 80010f8:	bd80      	pop	{r7, pc}

080010fa <HAL_NVIC_EnableIRQ>:
 80010fa:	b580      	push	{r7, lr}
 80010fc:	b082      	sub	sp, #8
 80010fe:	af00      	add	r7, sp, #0
 8001100:	4603      	mov	r3, r0
 8001102:	71fb      	strb	r3, [r7, #7]
 8001104:	f997 3007 	ldrsb.w	r3, [r7, #7]
 8001108:	4618      	mov	r0, r3
 800110a:	f7ff ff35 	bl	8000f78 <__NVIC_EnableIRQ>
 800110e:	bf00      	nop
 8001110:	3708      	adds	r7, #8
 8001112:	46bd      	mov	sp, r7
 8001114:	bd80      	pop	{r7, pc}

08001116 <HAL_SYSTICK_Config>:
 8001116:	b580      	push	{r7, lr}
 8001118:	b082      	sub	sp, #8
 800111a:	af00      	add	r7, sp, #0
 800111c:	6078      	str	r0, [r7, #4]
 800111e:	6878      	ldr	r0, [r7, #4]
 8001120:	f7ff ffa2 	bl	8001068 <SysTick_Config>
 8001124:	4603      	mov	r3, r0
 8001126:	4618      	mov	r0, r3
 8001128:	3708      	adds	r7, #8
 800112a:	46bd      	mov	sp, r7
 800112c:	bd80      	pop	{r7, pc}
	...

08001130 <HAL_GPIO_Init>:
 8001130:	b480      	push	{r7}
 8001132:	b08b      	sub	sp, #44	; 0x2c
 8001134:	af00      	add	r7, sp, #0
 8001136:	6078      	str	r0, [r7, #4]
 8001138:	6039      	str	r1, [r7, #0]
 800113a:	2300      	movs	r3, #0
 800113c:	627b      	str	r3, [r7, #36]	; 0x24
 800113e:	2300      	movs	r3, #0
 8001140:	623b      	str	r3, [r7, #32]
 8001142:	e127      	b.n	8001394 <HAL_GPIO_Init+0x264>
 8001144:	2201      	movs	r2, #1
 8001146:	6a7b      	ldr	r3, [r7, #36]	; 0x24
 8001148:	fa02 f303 	lsl.w	r3, r2, r3
 800114c:	61fb      	str	r3, [r7, #28]
 800114e:	683b      	ldr	r3, [r7, #0]
 8001150:	681b      	ldr	r3, [r3, #0]
 8001152:	69fa      	ldr	r2, [r7, #28]
 8001154:	4013      	ands	r3, r2
 8001156:	61bb      	str	r3, [r7, #24]
 8001158:	69ba      	ldr	r2, [r7, #24]
 800115a:	69fb      	ldr	r3, [r7, #28]
 800115c:	429a      	cmp	r2, r3
 800115e:	f040 8116 	bne.w	800138e <HAL_GPIO_Init+0x25e>
 8001162:	683b      	ldr	r3, [r7, #0]
 8001164:	685b      	ldr	r3, [r3, #4]
 8001166:	2b12      	cmp	r3, #18
 8001168:	d034      	beq.n	80011d4 <HAL_GPIO_Init+0xa4>
 800116a:	2b12      	cmp	r3, #18
 800116c:	d80d      	bhi.n	800118a <HAL_GPIO_Init+0x5a>
 800116e:	2b02      	cmp	r3, #2
 8001170:	d02b      	beq.n	80011ca <HAL_GPIO_Init+0x9a>
 8001172:	2b02      	cmp	r3, #2
 8001174:	d804      	bhi.n	8001180 <HAL_GPIO_Init+0x50>
 8001176:	2b00      	cmp	r3, #0
 8001178:	d031      	beq.n	80011de <HAL_GPIO_Init+0xae>
 800117a:	2b01      	cmp	r3, #1
 800117c:	d01c      	beq.n	80011b8 <HAL_GPIO_Init+0x88>
 800117e:	e048      	b.n	8001212 <HAL_GPIO_Init+0xe2>
 8001180:	2b03      	cmp	r3, #3
 8001182:	d043      	beq.n	800120c <HAL_GPIO_Init+0xdc>
 8001184:	2b11      	cmp	r3, #17
 8001186:	d01b      	beq.n	80011c0 <HAL_GPIO_Init+0x90>
 8001188:	e043      	b.n	8001212 <HAL_GPIO_Init+0xe2>
 800118a:	4a89      	ldr	r2, [pc, #548]	; (80013b0 <HAL_GPIO_Init+0x280>)
 800118c:	4293      	cmp	r3, r2
 800118e:	d026      	beq.n	80011de <HAL_GPIO_Init+0xae>
 8001190:	4a87      	ldr	r2, [pc, #540]	; (80013b0 <HAL_GPIO_Init+0x280>)
 8001192:	4293      	cmp	r3, r2
 8001194:	d806      	bhi.n	80011a4 <HAL_GPIO_Init+0x74>
 8001196:	4a87      	ldr	r2, [pc, #540]	; (80013b4 <HAL_GPIO_Init+0x284>)
 8001198:	4293      	cmp	r3, r2
 800119a:	d020      	beq.n	80011de <HAL_GPIO_Init+0xae>
 800119c:	4a86      	ldr	r2, [pc, #536]	; (80013b8 <HAL_GPIO_Init+0x288>)
 800119e:	4293      	cmp	r3, r2
 80011a0:	d01d      	beq.n	80011de <HAL_GPIO_Init+0xae>
 80011a2:	e036      	b.n	8001212 <HAL_GPIO_Init+0xe2>
 80011a4:	4a85      	ldr	r2, [pc, #532]	; (80013bc <HAL_GPIO_Init+0x28c>)
 80011a6:	4293      	cmp	r3, r2
 80011a8:	d019      	beq.n	80011de <HAL_GPIO_Init+0xae>
 80011aa:	4a85      	ldr	r2, [pc, #532]	; (80013c0 <HAL_GPIO_Init+0x290>)
 80011ac:	4293      	cmp	r3, r2
 80011ae:	d016      	beq.n	80011de <HAL_GPIO_Init+0xae>
 80011b0:	4a84      	ldr	r2, [pc, #528]	; (80013c4 <HAL_GPIO_Init+0x294>)
 80011b2:	4293      	cmp	r3, r2
 80011b4:	d013      	beq.n	80011de <HAL_GPIO_Init+0xae>
 80011b6:	e02c      	b.n	8001212 <HAL_GPIO_Init+0xe2>
 80011b8:	683b      	ldr	r3, [r7, #0]
 80011ba:	68db      	ldr	r3, [r3, #12]
 80011bc:	623b      	str	r3, [r7, #32]
 80011be:	e028      	b.n	8001212 <HAL_GPIO_Init+0xe2>
 80011c0:	683b      	ldr	r3, [r7, #0]
 80011c2:	68db      	ldr	r3, [r3, #12]
 80011c4:	3304      	adds	r3, #4
 80011c6:	623b      	str	r3, [r7, #32]
 80011c8:	e023      	b.n	8001212 <HAL_GPIO_Init+0xe2>
 80011ca:	683b      	ldr	r3, [r7, #0]
 80011cc:	68db      	ldr	r3, [r3, #12]
 80011ce:	3308      	adds	r3, #8
 80011d0:	623b      	str	r3, [r7, #32]
 80011d2:	e01e      	b.n	8001212 <HAL_GPIO_Init+0xe2>
 80011d4:	683b      	ldr	r3, [r7, #0]
 80011d6:	68db      	ldr	r3, [r3, #12]
 80011d8:	330c      	adds	r3, #12
 80011da:	623b      	str	r3, [r7, #32]
 80011dc:	e019      	b.n	8001212 <HAL_GPIO_Init+0xe2>
 80011de:	683b      	ldr	r3, [r7, #0]
 80011e0:	689b      	ldr	r3, [r3, #8]
 80011e2:	2b00      	cmp	r3, #0
 80011e4:	d102      	bne.n	80011ec <HAL_GPIO_Init+0xbc>
 80011e6:	2304      	movs	r3, #4
 80011e8:	623b      	str	r3, [r7, #32]
 80011ea:	e012      	b.n	8001212 <HAL_GPIO_Init+0xe2>
 80011ec:	683b      	ldr	r3, [r7, #0]
 80011ee:	689b      	ldr	r3, [r3, #8]
 80011f0:	2b01      	cmp	r3, #1
 80011f2:	d105      	bne.n	8001200 <HAL_GPIO_Init+0xd0>
 80011f4:	2308      	movs	r3, #8
 80011f6:	623b      	str	r3, [r7, #32]
 80011f8:	687b      	ldr	r3, [r7, #4]
 80011fa:	69fa      	ldr	r2, [r7, #28]
 80011fc:	611a      	str	r2, [r3, #16]
 80011fe:	e008      	b.n	8001212 <HAL_GPIO_Init+0xe2>
 8001200:	2308      	movs	r3, #8
 8001202:	623b      	str	r3, [r7, #32]
 8001204:	687b      	ldr	r3, [r7, #4]
 8001206:	69fa      	ldr	r2, [r7, #28]
 8001208:	615a      	str	r2, [r3, #20]
 800120a:	e002      	b.n	8001212 <HAL_GPIO_Init+0xe2>
 800120c:	2300      	movs	r3, #0
 800120e:	623b      	str	r3, [r7, #32]
 8001210:	bf00      	nop
 8001212:	69bb      	ldr	r3, [r7, #24]
 8001214:	2bff      	cmp	r3, #255	; 0xff
 8001216:	d801      	bhi.n	800121c <HAL_GPIO_Init+0xec>
 8001218:	687b      	ldr	r3, [r7, #4]
 800121a:	e001      	b.n	8001220 <HAL_GPIO_Init+0xf0>
 800121c:	687b      	ldr	r3, [r7, #4]
 800121e:	3304      	adds	r3, #4
 8001220:	617b      	str	r3, [r7, #20]
 8001222:	69bb      	ldr	r3, [r7, #24]
 8001224:	2bff      	cmp	r3, #255	; 0xff
 8001226:	d802      	bhi.n	800122e <HAL_GPIO_Init+0xfe>
 8001228:	6a7b      	ldr	r3, [r7, #36]	; 0x24
 800122a:	009b      	lsls	r3, r3, #2
 800122c:	e002      	b.n	8001234 <HAL_GPIO_Init+0x104>
 800122e:	6a7b      	ldr	r3, [r7, #36]	; 0x24
 8001230:	3b08      	subs	r3, #8
 8001232:	009b      	lsls	r3, r3, #2
 8001234:	613b      	str	r3, [r7, #16]
 8001236:	697b      	ldr	r3, [r7, #20]
 8001238:	681a      	ldr	r2, [r3, #0]
 800123a:	210f      	movs	r1, #15
 800123c:	693b      	ldr	r3, [r7, #16]
 800123e:	fa01 f303 	lsl.w	r3, r1, r3
 8001242:	43db      	mvns	r3, r3
 8001244:	401a      	ands	r2, r3
 8001246:	6a39      	ldr	r1, [r7, #32]
 8001248:	693b      	ldr	r3, [r7, #16]
 800124a:	fa01 f303 	lsl.w	r3, r1, r3
 800124e:	431a      	orrs	r2, r3
 8001250:	697b      	ldr	r3, [r7, #20]
 8001252:	601a      	str	r2, [r3, #0]
 8001254:	683b      	ldr	r3, [r7, #0]
 8001256:	685b      	ldr	r3, [r3, #4]
 8001258:	f003 5380 	and.w	r3, r3, #268435456	; 0x10000000
 800125c:	2b00      	cmp	r3, #0
 800125e:	f000 8096 	beq.w	800138e <HAL_GPIO_Init+0x25e>
 8001262:	4b59      	ldr	r3, [pc, #356]	; (80013c8 <HAL_GPIO_Init+0x298>)
 8001264:	699b      	ldr	r3, [r3, #24]
 8001266:	4a58      	ldr	r2, [pc, #352]	; (80013c8 <HAL_GPIO_Init+0x298>)
 8001268:	f043 0301 	orr.w	r3, r3, #1
 800126c:	6193      	str	r3, [r2, #24]
 800126e:	4b56      	ldr	r3, [pc, #344]	; (80013c8 <HAL_GPIO_Init+0x298>)
 8001270:	699b      	ldr	r3, [r3, #24]
 8001272:	f003 0301 	and.w	r3, r3, #1
 8001276:	60bb      	str	r3, [r7, #8]
 8001278:	68bb      	ldr	r3, [r7, #8]
 800127a:	4a54      	ldr	r2, [pc, #336]	; (80013cc <HAL_GPIO_Init+0x29c>)
 800127c:	6a7b      	ldr	r3, [r7, #36]	; 0x24
 800127e:	089b      	lsrs	r3, r3, #2
 8001280:	3302      	adds	r3, #2
 8001282:	f852 3023 	ldr.w	r3, [r2, r3, lsl #2]
 8001286:	60fb      	str	r3, [r7, #12]
 8001288:	6a7b      	ldr	r3, [r7, #36]	; 0x24
 800128a:	f003 0303 	and.w	r3, r3, #3
 800128e:	009b      	lsls	r3, r3, #2
 8001290:	220f      	movs	r2, #15
 8001292:	fa02 f303 	lsl.w	r3, r2, r3
 8001296:	43db      	mvns	r3, r3
 8001298:	68fa      	ldr	r2, [r7, #12]
 800129a:	4013      	ands	r3, r2
 800129c:	60fb      	str	r3, [r7, #12]
 800129e:	687b      	ldr	r3, [r7, #4]
 80012a0:	4a4b      	ldr	r2, [pc, #300]	; (80013d0 <HAL_GPIO_Init+0x2a0>)
 80012a2:	4293      	cmp	r3, r2
 80012a4:	d013      	beq.n	80012ce <HAL_GPIO_Init+0x19e>
 80012a6:	687b      	ldr	r3, [r7, #4]
 80012a8:	4a4a      	ldr	r2, [pc, #296]	; (80013d4 <HAL_GPIO_Init+0x2a4>)
 80012aa:	4293      	cmp	r3, r2
 80012ac:	d00d      	beq.n	80012ca <HAL_GPIO_Init+0x19a>
 80012ae:	687b      	ldr	r3, [r7, #4]
 80012b0:	4a49      	ldr	r2, [pc, #292]	; (80013d8 <HAL_GPIO_Init+0x2a8>)
 80012b2:	4293      	cmp	r3, r2
 80012b4:	d007      	beq.n	80012c6 <HAL_GPIO_Init+0x196>
 80012b6:	687b      	ldr	r3, [r7, #4]
 80012b8:	4a48      	ldr	r2, [pc, #288]	; (80013dc <HAL_GPIO_Init+0x2ac>)
 80012ba:	4293      	cmp	r3, r2
 80012bc:	d101      	bne.n	80012c2 <HAL_GPIO_Init+0x192>
 80012be:	2303      	movs	r3, #3
 80012c0:	e006      	b.n	80012d0 <HAL_GPIO_Init+0x1a0>
 80012c2:	2304      	movs	r3, #4
 80012c4:	e004      	b.n	80012d0 <HAL_GPIO_Init+0x1a0>
 80012c6:	2302      	movs	r3, #2
 80012c8:	e002      	b.n	80012d0 <HAL_GPIO_Init+0x1a0>
 80012ca:	2301      	movs	r3, #1
 80012cc:	e000      	b.n	80012d0 <HAL_GPIO_Init+0x1a0>
 80012ce:	2300      	movs	r3, #0
 80012d0:	6a7a      	ldr	r2, [r7, #36]	; 0x24
 80012d2:	f002 0203 	and.w	r2, r2, #3
 80012d6:	0092      	lsls	r2, r2, #2
 80012d8:	4093      	lsls	r3, r2
 80012da:	68fa      	ldr	r2, [r7, #12]
 80012dc:	4313      	orrs	r3, r2
 80012de:	60fb      	str	r3, [r7, #12]
 80012e0:	493a      	ldr	r1, [pc, #232]	; (80013cc <HAL_GPIO_Init+0x29c>)
 80012e2:	6a7b      	ldr	r3, [r7, #36]	; 0x24
 80012e4:	089b      	lsrs	r3, r3, #2
 80012e6:	3302      	adds	r3, #2
 80012e8:	68fa      	ldr	r2, [r7, #12]
 80012ea:	f841 2023 	str.w	r2, [r1, r3, lsl #2]
 80012ee:	683b      	ldr	r3, [r7, #0]
 80012f0:	685b      	ldr	r3, [r3, #4]
 80012f2:	f403 3380 	and.w	r3, r3, #65536	; 0x10000
 80012f6:	2b00      	cmp	r3, #0
 80012f8:	d006      	beq.n	8001308 <HAL_GPIO_Init+0x1d8>
 80012fa:	4b39      	ldr	r3, [pc, #228]	; (80013e0 <HAL_GPIO_Init+0x2b0>)
 80012fc:	681a      	ldr	r2, [r3, #0]
 80012fe:	4938      	ldr	r1, [pc, #224]	; (80013e0 <HAL_GPIO_Init+0x2b0>)
 8001300:	69bb      	ldr	r3, [r7, #24]
 8001302:	4313      	orrs	r3, r2
 8001304:	600b      	str	r3, [r1, #0]
 8001306:	e006      	b.n	8001316 <HAL_GPIO_Init+0x1e6>
 8001308:	4b35      	ldr	r3, [pc, #212]	; (80013e0 <HAL_GPIO_Init+0x2b0>)
 800130a:	681a      	ldr	r2, [r3, #0]
 800130c:	69bb      	ldr	r3, [r7, #24]
 800130e:	43db      	mvns	r3, r3
 8001310:	4933      	ldr	r1, [pc, #204]	; (80013e0 <HAL_GPIO_Init+0x2b0>)
 8001312:	4013      	ands	r3, r2
 8001314:	600b      	str	r3, [r1, #0]
 8001316:	683b      	ldr	r3, [r7, #0]
 8001318:	685b      	ldr	r3, [r3, #4]
 800131a:	f403 3300 	and.w	r3, r3, #131072	; 0x20000
 800131e:	2b00      	cmp	r3, #0
 8001320:	d006      	beq.n	8001330 <HAL_GPIO_Init+0x200>
 8001322:	4b2f      	ldr	r3, [pc, #188]	; (80013e0 <HAL_GPIO_Init+0x2b0>)
 8001324:	685a      	ldr	r2, [r3, #4]
 8001326:	492e      	ldr	r1, [pc, #184]	; (80013e0 <HAL_GPIO_Init+0x2b0>)
 8001328:	69bb      	ldr	r3, [r7, #24]
 800132a:	4313      	orrs	r3, r2
 800132c:	604b      	str	r3, [r1, #4]
 800132e:	e006      	b.n	800133e <HAL_GPIO_Init+0x20e>
 8001330:	4b2b      	ldr	r3, [pc, #172]	; (80013e0 <HAL_GPIO_Init+0x2b0>)
 8001332:	685a      	ldr	r2, [r3, #4]
 8001334:	69bb      	ldr	r3, [r7, #24]
 8001336:	43db      	mvns	r3, r3
 8001338:	4929      	ldr	r1, [pc, #164]	; (80013e0 <HAL_GPIO_Init+0x2b0>)
 800133a:	4013      	ands	r3, r2
 800133c:	604b      	str	r3, [r1, #4]
 800133e:	683b      	ldr	r3, [r7, #0]
 8001340:	685b      	ldr	r3, [r3, #4]
 8001342:	f403 1380 	and.w	r3, r3, #1048576	; 0x100000
 8001346:	2b00      	cmp	r3, #0
 8001348:	d006      	beq.n	8001358 <HAL_GPIO_Init+0x228>
 800134a:	4b25      	ldr	r3, [pc, #148]	; (80013e0 <HAL_GPIO_Init+0x2b0>)
 800134c:	689a      	ldr	r2, [r3, #8]
 800134e:	4924      	ldr	r1, [pc, #144]	; (80013e0 <HAL_GPIO_Init+0x2b0>)
 8001350:	69bb      	ldr	r3, [r7, #24]
 8001352:	4313      	orrs	r3, r2
 8001354:	608b      	str	r3, [r1, #8]
 8001356:	e006      	b.n	8001366 <HAL_GPIO_Init+0x236>
 8001358:	4b21      	ldr	r3, [pc, #132]	; (80013e0 <HAL_GPIO_Init+0x2b0>)
 800135a:	689a      	ldr	r2, [r3, #8]
 800135c:	69bb      	ldr	r3, [r7, #24]
 800135e:	43db      	mvns	r3, r3
 8001360:	491f      	ldr	r1, [pc, #124]	; (80013e0 <HAL_GPIO_Init+0x2b0>)
 8001362:	4013      	ands	r3, r2
 8001364:	608b      	str	r3, [r1, #8]
 8001366:	683b      	ldr	r3, [r7, #0]
 8001368:	685b      	ldr	r3, [r3, #4]
 800136a:	f403 1300 	and.w	r3, r3, #2097152	; 0x200000
 800136e:	2b00      	cmp	r3, #0
 8001370:	d006      	beq.n	8001380 <HAL_GPIO_Init+0x250>
 8001372:	4b1b      	ldr	r3, [pc, #108]	; (80013e0 <HAL_GPIO_Init+0x2b0>)
 8001374:	68da      	ldr	r2, [r3, #12]
 8001376:	491a      	ldr	r1, [pc, #104]	; (80013e0 <HAL_GPIO_Init+0x2b0>)
 8001378:	69bb      	ldr	r3, [r7, #24]
 800137a:	4313      	orrs	r3, r2
 800137c:	60cb      	str	r3, [r1, #12]
 800137e:	e006      	b.n	800138e <HAL_GPIO_Init+0x25e>
 8001380:	4b17      	ldr	r3, [pc, #92]	; (80013e0 <HAL_GPIO_Init+0x2b0>)
 8001382:	68da      	ldr	r2, [r3, #12]
 8001384:	69bb      	ldr	r3, [r7, #24]
 8001386:	43db      	mvns	r3, r3
 8001388:	4915      	ldr	r1, [pc, #84]	; (80013e0 <HAL_GPIO_Init+0x2b0>)
 800138a:	4013      	ands	r3, r2
 800138c:	60cb      	str	r3, [r1, #12]
 800138e:	6a7b      	ldr	r3, [r7, #36]	; 0x24
 8001390:	3301      	adds	r3, #1
 8001392:	627b      	str	r3, [r7, #36]	; 0x24
 8001394:	683b      	ldr	r3, [r7, #0]
 8001396:	681a      	ldr	r2, [r3, #0]
 8001398:	6a7b      	ldr	r3, [r7, #36]	; 0x24
 800139a:	fa22 f303 	lsr.w	r3, r2, r3
 800139e:	2b00      	cmp	r3, #0
 80013a0:	f47f aed0 	bne.w	8001144 <HAL_GPIO_Init+0x14>
 80013a4:	bf00      	nop
 80013a6:	372c      	adds	r7, #44	; 0x2c
 80013a8:	46bd      	mov	sp, r7
 80013aa:	bc80      	pop	{r7}
 80013ac:	4770      	bx	lr
 80013ae:	bf00      	nop
 80013b0:	10210000 	.word	0x10210000
 80013b4:	10110000 	.word	0x10110000
 80013b8:	10120000 	.word	0x10120000
 80013bc:	10310000 	.word	0x10310000
 80013c0:	10320000 	.word	0x10320000
 80013c4:	10220000 	.word	0x10220000
 80013c8:	40021000 	.word	0x40021000
 80013cc:	40010000 	.word	0x40010000
 80013d0:	40010800 	.word	0x40010800
 80013d4:	40010c00 	.word	0x40010c00
 80013d8:	40011000 	.word	0x40011000
 80013dc:	40011400 	.word	0x40011400
 80013e0:	40010400 	.word	0x40010400

080013e4 <HAL_GPIO_WritePin>:
 80013e4:	b480      	push	{r7}
 80013e6:	b083      	sub	sp, #12
 80013e8:	af00      	add	r7, sp, #0
 80013ea:	6078      	str	r0, [r7, #4]
 80013ec:	460b      	mov	r3, r1
 80013ee:	807b      	strh	r3, [r7, #2]
 80013f0:	4613      	mov	r3, r2
 80013f2:	707b      	strb	r3, [r7, #1]
 80013f4:	787b      	ldrb	r3, [r7, #1]
 80013f6:	2b00      	cmp	r3, #0
 80013f8:	d003      	beq.n	8001402 <HAL_GPIO_WritePin+0x1e>
 80013fa:	887a      	ldrh	r2, [r7, #2]
 80013fc:	687b      	ldr	r3, [r7, #4]
 80013fe:	611a      	str	r2, [r3, #16]
 8001400:	e003      	b.n	800140a <HAL_GPIO_WritePin+0x26>
 8001402:	887b      	ldrh	r3, [r7, #2]
 8001404:	041a      	lsls	r2, r3, #16
 8001406:	687b      	ldr	r3, [r7, #4]
 8001408:	611a      	str	r2, [r3, #16]
 800140a:	bf00      	nop
 800140c:	370c      	adds	r7, #12
 800140e:	46bd      	mov	sp, r7
 8001410:	bc80      	pop	{r7}
 8001412:	4770      	bx	lr

08001414 <HAL_I2C_Init>:
 8001414:	b580      	push	{r7, lr}
 8001416:	b084      	sub	sp, #16
 8001418:	af00      	add	r7, sp, #0
 800141a:	6078      	str	r0, [r7, #4]
 800141c:	687b      	ldr	r3, [r7, #4]
 800141e:	2b00      	cmp	r3, #0
 8001420:	d101      	bne.n	8001426 <HAL_I2C_Init+0x12>
 8001422:	2301      	movs	r3, #1
 8001424:	e11f      	b.n	8001666 <HAL_I2C_Init+0x252>
 8001426:	687b      	ldr	r3, [r7, #4]
 8001428:	f893 303d 	ldrb.w	r3, [r3, #61]	; 0x3d
 800142c:	b2db      	uxtb	r3, r3
 800142e:	2b00      	cmp	r3, #0
 8001430:	d106      	bne.n	8001440 <HAL_I2C_Init+0x2c>
 8001432:	687b      	ldr	r3, [r7, #4]
 8001434:	2200      	movs	r2, #0
 8001436:	f883 203c 	strb.w	r2, [r3, #60]	; 0x3c
 800143a:	6878      	ldr	r0, [r7, #4]
 800143c:	f7ff f956 	bl	80006ec <HAL_I2C_MspInit>
 8001440:	687b      	ldr	r3, [r7, #4]
 8001442:	2224      	movs	r2, #36	; 0x24
 8001444:	f883 203d 	strb.w	r2, [r3, #61]	; 0x3d
 8001448:	687b      	ldr	r3, [r7, #4]
 800144a:	681b      	ldr	r3, [r3, #0]
 800144c:	681a      	ldr	r2, [r3, #0]
 800144e:	687b      	ldr	r3, [r7, #4]
 8001450:	681b      	ldr	r3, [r3, #0]
 8001452:	f022 0201 	bic.w	r2, r2, #1
 8001456:	601a      	str	r2, [r3, #0]
 8001458:	687b      	ldr	r3, [r7, #4]
 800145a:	681b      	ldr	r3, [r3, #0]
 800145c:	681a      	ldr	r2, [r3, #0]
 800145e:	687b      	ldr	r3, [r7, #4]
 8001460:	681b      	ldr	r3, [r3, #0]
 8001462:	f442 4200 	orr.w	r2, r2, #32768	; 0x8000
 8001466:	601a      	str	r2, [r3, #0]
 8001468:	687b      	ldr	r3, [r7, #4]
 800146a:	681b      	ldr	r3, [r3, #0]
 800146c:	681a      	ldr	r2, [r3, #0]
 800146e:	687b      	ldr	r3, [r7, #4]
 8001470:	681b      	ldr	r3, [r3, #0]
 8001472:	f422 4200 	bic.w	r2, r2, #32768	; 0x8000
 8001476:	601a      	str	r2, [r3, #0]
 8001478:	f002 f85e 	bl	8003538 <HAL_RCC_GetPCLK1Freq>
 800147c:	60f8      	str	r0, [r7, #12]
 800147e:	687b      	ldr	r3, [r7, #4]
 8001480:	685b      	ldr	r3, [r3, #4]
 8001482:	4a7b      	ldr	r2, [pc, #492]	; (8001670 <HAL_I2C_Init+0x25c>)
 8001484:	4293      	cmp	r3, r2
 8001486:	d807      	bhi.n	8001498 <HAL_I2C_Init+0x84>
 8001488:	68fb      	ldr	r3, [r7, #12]
 800148a:	4a7a      	ldr	r2, [pc, #488]	; (8001674 <HAL_I2C_Init+0x260>)
 800148c:	4293      	cmp	r3, r2
 800148e:	bf94      	ite	ls
 8001490:	2301      	movls	r3, #1
 8001492:	2300      	movhi	r3, #0
 8001494:	b2db      	uxtb	r3, r3
 8001496:	e006      	b.n	80014a6 <HAL_I2C_Init+0x92>
 8001498:	68fb      	ldr	r3, [r7, #12]
 800149a:	4a77      	ldr	r2, [pc, #476]	; (8001678 <HAL_I2C_Init+0x264>)
 800149c:	4293      	cmp	r3, r2
 800149e:	bf94      	ite	ls
 80014a0:	2301      	movls	r3, #1
 80014a2:	2300      	movhi	r3, #0
 80014a4:	b2db      	uxtb	r3, r3
 80014a6:	2b00      	cmp	r3, #0
 80014a8:	d001      	beq.n	80014ae <HAL_I2C_Init+0x9a>
 80014aa:	2301      	movs	r3, #1
 80014ac:	e0db      	b.n	8001666 <HAL_I2C_Init+0x252>
 80014ae:	68fb      	ldr	r3, [r7, #12]
 80014b0:	4a72      	ldr	r2, [pc, #456]	; (800167c <HAL_I2C_Init+0x268>)
 80014b2:	fba2 2303 	umull	r2, r3, r2, r3
 80014b6:	0c9b      	lsrs	r3, r3, #18
 80014b8:	60bb      	str	r3, [r7, #8]
 80014ba:	687b      	ldr	r3, [r7, #4]
 80014bc:	681b      	ldr	r3, [r3, #0]
 80014be:	685b      	ldr	r3, [r3, #4]
 80014c0:	f023 013f 	bic.w	r1, r3, #63	; 0x3f
 80014c4:	687b      	ldr	r3, [r7, #4]
 80014c6:	681b      	ldr	r3, [r3, #0]
 80014c8:	68ba      	ldr	r2, [r7, #8]
 80014ca:	430a      	orrs	r2, r1
 80014cc:	605a      	str	r2, [r3, #4]
 80014ce:	687b      	ldr	r3, [r7, #4]
 80014d0:	681b      	ldr	r3, [r3, #0]
 80014d2:	6a1b      	ldr	r3, [r3, #32]
 80014d4:	f023 013f 	bic.w	r1, r3, #63	; 0x3f
 80014d8:	687b      	ldr	r3, [r7, #4]
 80014da:	685b      	ldr	r3, [r3, #4]
 80014dc:	4a64      	ldr	r2, [pc, #400]	; (8001670 <HAL_I2C_Init+0x25c>)
 80014de:	4293      	cmp	r3, r2
 80014e0:	d802      	bhi.n	80014e8 <HAL_I2C_Init+0xd4>
 80014e2:	68bb      	ldr	r3, [r7, #8]
 80014e4:	3301      	adds	r3, #1
 80014e6:	e009      	b.n	80014fc <HAL_I2C_Init+0xe8>
 80014e8:	68bb      	ldr	r3, [r7, #8]
 80014ea:	f44f 7296 	mov.w	r2, #300	; 0x12c
 80014ee:	fb02 f303 	mul.w	r3, r2, r3
 80014f2:	4a63      	ldr	r2, [pc, #396]	; (8001680 <HAL_I2C_Init+0x26c>)
 80014f4:	fba2 2303 	umull	r2, r3, r2, r3
 80014f8:	099b      	lsrs	r3, r3, #6
 80014fa:	3301      	adds	r3, #1
 80014fc:	687a      	ldr	r2, [r7, #4]
 80014fe:	6812      	ldr	r2, [r2, #0]
 8001500:	430b      	orrs	r3, r1
 8001502:	6213      	str	r3, [r2, #32]
 8001504:	687b      	ldr	r3, [r7, #4]
 8001506:	681b      	ldr	r3, [r3, #0]
 8001508:	69db      	ldr	r3, [r3, #28]
 800150a:	f423 424f 	bic.w	r2, r3, #52992	; 0xcf00
 800150e:	f022 02ff 	bic.w	r2, r2, #255	; 0xff
 8001512:	687b      	ldr	r3, [r7, #4]
 8001514:	685b      	ldr	r3, [r3, #4]
 8001516:	4956      	ldr	r1, [pc, #344]	; (8001670 <HAL_I2C_Init+0x25c>)
 8001518:	428b      	cmp	r3, r1
 800151a:	d80d      	bhi.n	8001538 <HAL_I2C_Init+0x124>
 800151c:	68fb      	ldr	r3, [r7, #12]
 800151e:	1e59      	subs	r1, r3, #1
 8001520:	687b      	ldr	r3, [r7, #4]
 8001522:	685b      	ldr	r3, [r3, #4]
 8001524:	005b      	lsls	r3, r3, #1
 8001526:	fbb1 f3f3 	udiv	r3, r1, r3
 800152a:	3301      	adds	r3, #1
 800152c:	f3c3 030b 	ubfx	r3, r3, #0, #12
 8001530:	2b04      	cmp	r3, #4
 8001532:	bf38      	it	cc
 8001534:	2304      	movcc	r3, #4
 8001536:	e04f      	b.n	80015d8 <HAL_I2C_Init+0x1c4>
 8001538:	687b      	ldr	r3, [r7, #4]
 800153a:	689b      	ldr	r3, [r3, #8]
 800153c:	2b00      	cmp	r3, #0
 800153e:	d111      	bne.n	8001564 <HAL_I2C_Init+0x150>
 8001540:	68fb      	ldr	r3, [r7, #12]
 8001542:	1e58      	subs	r0, r3, #1
 8001544:	687b      	ldr	r3, [r7, #4]
 8001546:	6859      	ldr	r1, [r3, #4]
 8001548:	460b      	mov	r3, r1
 800154a:	005b      	lsls	r3, r3, #1
 800154c:	440b      	add	r3, r1
 800154e:	fbb0 f3f3 	udiv	r3, r0, r3
 8001552:	3301      	adds	r3, #1
 8001554:	f3c3 030b 	ubfx	r3, r3, #0, #12
 8001558:	2b00      	cmp	r3, #0
 800155a:	bf0c      	ite	eq
 800155c:	2301      	moveq	r3, #1
 800155e:	2300      	movne	r3, #0
 8001560:	b2db      	uxtb	r3, r3
 8001562:	e012      	b.n	800158a <HAL_I2C_Init+0x176>
 8001564:	68fb      	ldr	r3, [r7, #12]
 8001566:	1e58      	subs	r0, r3, #1
 8001568:	687b      	ldr	r3, [r7, #4]
 800156a:	6859      	ldr	r1, [r3, #4]
 800156c:	460b      	mov	r3, r1
 800156e:	009b      	lsls	r3, r3, #2
 8001570:	440b      	add	r3, r1
 8001572:	0099      	lsls	r1, r3, #2
 8001574:	440b      	add	r3, r1
 8001576:	fbb0 f3f3 	udiv	r3, r0, r3
 800157a:	3301      	adds	r3, #1
 800157c:	f3c3 030b 	ubfx	r3, r3, #0, #12
 8001580:	2b00      	cmp	r3, #0
 8001582:	bf0c      	ite	eq
 8001584:	2301      	moveq	r3, #1
 8001586:	2300      	movne	r3, #0
 8001588:	b2db      	uxtb	r3, r3
 800158a:	2b00      	cmp	r3, #0
 800158c:	d001      	beq.n	8001592 <HAL_I2C_Init+0x17e>
 800158e:	2301      	movs	r3, #1
 8001590:	e022      	b.n	80015d8 <HAL_I2C_Init+0x1c4>
 8001592:	687b      	ldr	r3, [r7, #4]
 8001594:	689b      	ldr	r3, [r3, #8]
 8001596:	2b00      	cmp	r3, #0
 8001598:	d10e      	bne.n	80015b8 <HAL_I2C_Init+0x1a4>
 800159a:	68fb      	ldr	r3, [r7, #12]
 800159c:	1e58      	subs	r0, r3, #1
 800159e:	687b      	ldr	r3, [r7, #4]
 80015a0:	6859      	ldr	r1, [r3, #4]
 80015a2:	460b      	mov	r3, r1
 80015a4:	005b      	lsls	r3, r3, #1
 80015a6:	440b      	add	r3, r1
 80015a8:	fbb0 f3f3 	udiv	r3, r0, r3
 80015ac:	3301      	adds	r3, #1
 80015ae:	f3c3 030b 	ubfx	r3, r3, #0, #12
 80015b2:	f443 4300 	orr.w	r3, r3, #32768	; 0x8000
 80015b6:	e00f      	b.n	80015d8 <HAL_I2C_Init+0x1c4>
 80015b8:	68fb      	ldr	r3, [r7, #12]
 80015ba:	1e58      	subs	r0, r3, #1
 80015bc:	687b      	ldr	r3, [r7, #4]
 80015be:	6859      	ldr	r1, [r3, #4]
 80015c0:	460b      	mov	r3, r1
 80015c2:	009b      	lsls	r3, r3, #2
 80015c4:	440b      	add	r3, r1
 80015c6:	0099      	lsls	r1, r3, #2
 80015c8:	440b      	add	r3, r1
 80015ca:	fbb0 f3f3 	udiv	r3, r0, r3
 80015ce:	3301      	adds	r3, #1
 80015d0:	f3c3 030b 	ubfx	r3, r3, #0, #12
 80015d4:	f443 4340 	orr.w	r3, r3, #49152	; 0xc000
 80015d8:	6879      	ldr	r1, [r7, #4]
 80015da:	6809      	ldr	r1, [r1, #0]
 80015dc:	4313      	orrs	r3, r2
 80015de:	61cb      	str	r3, [r1, #28]
 80015e0:	687b      	ldr	r3, [r7, #4]
 80015e2:	681b      	ldr	r3, [r3, #0]
 80015e4:	681b      	ldr	r3, [r3, #0]
 80015e6:	f023 01c0 	bic.w	r1, r3, #192	; 0xc0
 80015ea:	687b      	ldr	r3, [r7, #4]
 80015ec:	69da      	ldr	r2, [r3, #28]
 80015ee:	687b      	ldr	r3, [r7, #4]
 80015f0:	6a1b      	ldr	r3, [r3, #32]
 80015f2:	431a      	orrs	r2, r3
 80015f4:	687b      	ldr	r3, [r7, #4]
 80015f6:	681b      	ldr	r3, [r3, #0]
 80015f8:	430a      	orrs	r2, r1
 80015fa:	601a      	str	r2, [r3, #0]
 80015fc:	687b      	ldr	r3, [r7, #4]
 80015fe:	681b      	ldr	r3, [r3, #0]
 8001600:	689b      	ldr	r3, [r3, #8]
 8001602:	f423 4303 	bic.w	r3, r3, #33536	; 0x8300
 8001606:	f023 03ff 	bic.w	r3, r3, #255	; 0xff
 800160a:	687a      	ldr	r2, [r7, #4]
 800160c:	6911      	ldr	r1, [r2, #16]
 800160e:	687a      	ldr	r2, [r7, #4]
 8001610:	68d2      	ldr	r2, [r2, #12]
 8001612:	4311      	orrs	r1, r2
 8001614:	687a      	ldr	r2, [r7, #4]
 8001616:	6812      	ldr	r2, [r2, #0]
 8001618:	430b      	orrs	r3, r1
 800161a:	6093      	str	r3, [r2, #8]
 800161c:	687b      	ldr	r3, [r7, #4]
 800161e:	681b      	ldr	r3, [r3, #0]
 8001620:	68db      	ldr	r3, [r3, #12]
 8001622:	f023 01ff 	bic.w	r1, r3, #255	; 0xff
 8001626:	687b      	ldr	r3, [r7, #4]
 8001628:	695a      	ldr	r2, [r3, #20]
 800162a:	687b      	ldr	r3, [r7, #4]
 800162c:	699b      	ldr	r3, [r3, #24]
 800162e:	431a      	orrs	r2, r3
 8001630:	687b      	ldr	r3, [r7, #4]
 8001632:	681b      	ldr	r3, [r3, #0]
 8001634:	430a      	orrs	r2, r1
 8001636:	60da      	str	r2, [r3, #12]
 8001638:	687b      	ldr	r3, [r7, #4]
 800163a:	681b      	ldr	r3, [r3, #0]
 800163c:	681a      	ldr	r2, [r3, #0]
 800163e:	687b      	ldr	r3, [r7, #4]
 8001640:	681b      	ldr	r3, [r3, #0]
 8001642:	f042 0201 	orr.w	r2, r2, #1
 8001646:	601a      	str	r2, [r3, #0]
 8001648:	687b      	ldr	r3, [r7, #4]
 800164a:	2200      	movs	r2, #0
 800164c:	641a      	str	r2, [r3, #64]	; 0x40
 800164e:	687b      	ldr	r3, [r7, #4]
 8001650:	2220      	movs	r2, #32
 8001652:	f883 203d 	strb.w	r2, [r3, #61]	; 0x3d
 8001656:	687b      	ldr	r3, [r7, #4]
 8001658:	2200      	movs	r2, #0
 800165a:	631a      	str	r2, [r3, #48]	; 0x30
 800165c:	687b      	ldr	r3, [r7, #4]
 800165e:	2200      	movs	r2, #0
 8001660:	f883 203e 	strb.w	r2, [r3, #62]	; 0x3e
 8001664:	2300      	movs	r3, #0
 8001666:	4618      	mov	r0, r3
 8001668:	3710      	adds	r7, #16
 800166a:	46bd      	mov	sp, r7
 800166c:	bd80      	pop	{r7, pc}
 800166e:	bf00      	nop
 8001670:	000186a0 	.word	0x000186a0
 8001674:	001e847f 	.word	0x001e847f
 8001678:	003d08ff 	.word	0x003d08ff
 800167c:	431bde83 	.word	0x431bde83
 8001680:	10624dd3 	.word	0x10624dd3

08001684 <HAL_PCD_Init>:
 8001684:	b5f0      	push	{r4, r5, r6, r7, lr}
 8001686:	b08b      	sub	sp, #44	; 0x2c
 8001688:	af06      	add	r7, sp, #24
 800168a:	6078      	str	r0, [r7, #4]
 800168c:	687b      	ldr	r3, [r7, #4]
 800168e:	2b00      	cmp	r3, #0
 8001690:	d101      	bne.n	8001696 <HAL_PCD_Init+0x12>
 8001692:	2301      	movs	r3, #1
 8001694:	e0fd      	b.n	8001892 <HAL_PCD_Init+0x20e>
 8001696:	687b      	ldr	r3, [r7, #4]
 8001698:	f893 32a9 	ldrb.w	r3, [r3, #681]	; 0x2a9
 800169c:	b2db      	uxtb	r3, r3
 800169e:	2b00      	cmp	r3, #0
 80016a0:	d106      	bne.n	80016b0 <HAL_PCD_Init+0x2c>
 80016a2:	687b      	ldr	r3, [r7, #4]
 80016a4:	2200      	movs	r2, #0
 80016a6:	f883 22a8 	strb.w	r2, [r3, #680]	; 0x2a8
 80016aa:	6878      	ldr	r0, [r7, #4]
 80016ac:	f006 f97e 	bl	80079ac <HAL_PCD_MspInit>
 80016b0:	687b      	ldr	r3, [r7, #4]
 80016b2:	2203      	movs	r2, #3
 80016b4:	f883 22a9 	strb.w	r2, [r3, #681]	; 0x2a9
 80016b8:	687b      	ldr	r3, [r7, #4]
 80016ba:	681b      	ldr	r3, [r3, #0]
 80016bc:	4618      	mov	r0, r3
 80016be:	f002 fbed 	bl	8003e9c <USB_DisableGlobalInt>
 80016c2:	687b      	ldr	r3, [r7, #4]
 80016c4:	681b      	ldr	r3, [r3, #0]
 80016c6:	603b      	str	r3, [r7, #0]
 80016c8:	687e      	ldr	r6, [r7, #4]
 80016ca:	466d      	mov	r5, sp
 80016cc:	f106 0410 	add.w	r4, r6, #16
 80016d0:	cc0f      	ldmia	r4!, {r0, r1, r2, r3}
 80016d2:	c50f      	stmia	r5!, {r0, r1, r2, r3}
 80016d4:	6823      	ldr	r3, [r4, #0]
 80016d6:	602b      	str	r3, [r5, #0]
 80016d8:	1d33      	adds	r3, r6, #4
 80016da:	cb0e      	ldmia	r3, {r1, r2, r3}
 80016dc:	6838      	ldr	r0, [r7, #0]
 80016de:	f002 fbb7 	bl	8003e50 <USB_CoreInit>
 80016e2:	4603      	mov	r3, r0
 80016e4:	2b00      	cmp	r3, #0
 80016e6:	d005      	beq.n	80016f4 <HAL_PCD_Init+0x70>
 80016e8:	687b      	ldr	r3, [r7, #4]
 80016ea:	2202      	movs	r2, #2
 80016ec:	f883 22a9 	strb.w	r2, [r3, #681]	; 0x2a9
 80016f0:	2301      	movs	r3, #1
 80016f2:	e0ce      	b.n	8001892 <HAL_PCD_Init+0x20e>
 80016f4:	687b      	ldr	r3, [r7, #4]
 80016f6:	681b      	ldr	r3, [r3, #0]
 80016f8:	2100      	movs	r1, #0
 80016fa:	4618      	mov	r0, r3
 80016fc:	f002 fbe8 	bl	8003ed0 <USB_SetCurrentMode>
 8001700:	2300      	movs	r3, #0
 8001702:	73fb      	strb	r3, [r7, #15]
 8001704:	e04c      	b.n	80017a0 <HAL_PCD_Init+0x11c>
 8001706:	7bfb      	ldrb	r3, [r7, #15]
 8001708:	6879      	ldr	r1, [r7, #4]
 800170a:	1c5a      	adds	r2, r3, #1
 800170c:	4613      	mov	r3, r2
 800170e:	009b      	lsls	r3, r3, #2
 8001710:	4413      	add	r3, r2
 8001712:	00db      	lsls	r3, r3, #3
 8001714:	440b      	add	r3, r1
 8001716:	3301      	adds	r3, #1
 8001718:	2201      	movs	r2, #1
 800171a:	701a      	strb	r2, [r3, #0]
 800171c:	7bfb      	ldrb	r3, [r7, #15]
 800171e:	6879      	ldr	r1, [r7, #4]
 8001720:	1c5a      	adds	r2, r3, #1
 8001722:	4613      	mov	r3, r2
 8001724:	009b      	lsls	r3, r3, #2
 8001726:	4413      	add	r3, r2
 8001728:	00db      	lsls	r3, r3, #3
 800172a:	440b      	add	r3, r1
 800172c:	7bfa      	ldrb	r2, [r7, #15]
 800172e:	701a      	strb	r2, [r3, #0]
 8001730:	7bfa      	ldrb	r2, [r7, #15]
 8001732:	7bfb      	ldrb	r3, [r7, #15]
 8001734:	b298      	uxth	r0, r3
 8001736:	6879      	ldr	r1, [r7, #4]
 8001738:	4613      	mov	r3, r2
 800173a:	009b      	lsls	r3, r3, #2
 800173c:	4413      	add	r3, r2
 800173e:	00db      	lsls	r3, r3, #3
 8001740:	440b      	add	r3, r1
 8001742:	3336      	adds	r3, #54	; 0x36
 8001744:	4602      	mov	r2, r0
 8001746:	801a      	strh	r2, [r3, #0]
 8001748:	7bfb      	ldrb	r3, [r7, #15]
 800174a:	6879      	ldr	r1, [r7, #4]
 800174c:	1c5a      	adds	r2, r3, #1
 800174e:	4613      	mov	r3, r2
 8001750:	009b      	lsls	r3, r3, #2
 8001752:	4413      	add	r3, r2
 8001754:	00db      	lsls	r3, r3, #3
 8001756:	440b      	add	r3, r1
 8001758:	3303      	adds	r3, #3
 800175a:	2200      	movs	r2, #0
 800175c:	701a      	strb	r2, [r3, #0]
 800175e:	7bfa      	ldrb	r2, [r7, #15]
 8001760:	6879      	ldr	r1, [r7, #4]
 8001762:	4613      	mov	r3, r2
 8001764:	009b      	lsls	r3, r3, #2
 8001766:	4413      	add	r3, r2
 8001768:	00db      	lsls	r3, r3, #3
 800176a:	440b      	add	r3, r1
 800176c:	3338      	adds	r3, #56	; 0x38
 800176e:	2200      	movs	r2, #0
 8001770:	601a      	str	r2, [r3, #0]
 8001772:	7bfa      	ldrb	r2, [r7, #15]
 8001774:	6879      	ldr	r1, [r7, #4]
 8001776:	4613      	mov	r3, r2
 8001778:	009b      	lsls	r3, r3, #2
 800177a:	4413      	add	r3, r2
 800177c:	00db      	lsls	r3, r3, #3
 800177e:	440b      	add	r3, r1
 8001780:	333c      	adds	r3, #60	; 0x3c
 8001782:	2200      	movs	r2, #0
 8001784:	601a      	str	r2, [r3, #0]
 8001786:	7bfa      	ldrb	r2, [r7, #15]
 8001788:	6879      	ldr	r1, [r7, #4]
 800178a:	4613      	mov	r3, r2
 800178c:	009b      	lsls	r3, r3, #2
 800178e:	4413      	add	r3, r2
 8001790:	00db      	lsls	r3, r3, #3
 8001792:	440b      	add	r3, r1
 8001794:	3340      	adds	r3, #64	; 0x40
 8001796:	2200      	movs	r2, #0
 8001798:	601a      	str	r2, [r3, #0]
 800179a:	7bfb      	ldrb	r3, [r7, #15]
 800179c:	3301      	adds	r3, #1
 800179e:	73fb      	strb	r3, [r7, #15]
 80017a0:	7bfa      	ldrb	r2, [r7, #15]
 80017a2:	687b      	ldr	r3, [r7, #4]
 80017a4:	685b      	ldr	r3, [r3, #4]
 80017a6:	429a      	cmp	r2, r3
 80017a8:	d3ad      	bcc.n	8001706 <HAL_PCD_Init+0x82>
 80017aa:	2300      	movs	r3, #0
 80017ac:	73fb      	strb	r3, [r7, #15]
 80017ae:	e044      	b.n	800183a <HAL_PCD_Init+0x1b6>
 80017b0:	7bfa      	ldrb	r2, [r7, #15]
 80017b2:	6879      	ldr	r1, [r7, #4]
 80017b4:	4613      	mov	r3, r2
 80017b6:	009b      	lsls	r3, r3, #2
 80017b8:	4413      	add	r3, r2
 80017ba:	00db      	lsls	r3, r3, #3
 80017bc:	440b      	add	r3, r1
 80017be:	f203 1369 	addw	r3, r3, #361	; 0x169
 80017c2:	2200      	movs	r2, #0
 80017c4:	701a      	strb	r2, [r3, #0]
 80017c6:	7bfa      	ldrb	r2, [r7, #15]
 80017c8:	6879      	ldr	r1, [r7, #4]
 80017ca:	4613      	mov	r3, r2
 80017cc:	009b      	lsls	r3, r3, #2
 80017ce:	4413      	add	r3, r2
 80017d0:	00db      	lsls	r3, r3, #3
 80017d2:	440b      	add	r3, r1
 80017d4:	f503 73b4 	add.w	r3, r3, #360	; 0x168
 80017d8:	7bfa      	ldrb	r2, [r7, #15]
 80017da:	701a      	strb	r2, [r3, #0]
 80017dc:	7bfa      	ldrb	r2, [r7, #15]
 80017de:	6879      	ldr	r1, [r7, #4]
 80017e0:	4613      	mov	r3, r2
 80017e2:	009b      	lsls	r3, r3, #2
 80017e4:	4413      	add	r3, r2
 80017e6:	00db      	lsls	r3, r3, #3
 80017e8:	440b      	add	r3, r1
 80017ea:	f203 136b 	addw	r3, r3, #363	; 0x16b
 80017ee:	2200      	movs	r2, #0
 80017f0:	701a      	strb	r2, [r3, #0]
 80017f2:	7bfa      	ldrb	r2, [r7, #15]
 80017f4:	6879      	ldr	r1, [r7, #4]
 80017f6:	4613      	mov	r3, r2
 80017f8:	009b      	lsls	r3, r3, #2
 80017fa:	4413      	add	r3, r2
 80017fc:	00db      	lsls	r3, r3, #3
 80017fe:	440b      	add	r3, r1
 8001800:	f503 73bc 	add.w	r3, r3, #376	; 0x178
 8001804:	2200      	movs	r2, #0
 8001806:	601a      	str	r2, [r3, #0]
 8001808:	7bfa      	ldrb	r2, [r7, #15]
 800180a:	6879      	ldr	r1, [r7, #4]
 800180c:	4613      	mov	r3, r2
 800180e:	009b      	lsls	r3, r3, #2
 8001810:	4413      	add	r3, r2
 8001812:	00db      	lsls	r3, r3, #3
 8001814:	440b      	add	r3, r1
 8001816:	f503 73be 	add.w	r3, r3, #380	; 0x17c
 800181a:	2200      	movs	r2, #0
 800181c:	601a      	str	r2, [r3, #0]
 800181e:	7bfa      	ldrb	r2, [r7, #15]
 8001820:	6879      	ldr	r1, [r7, #4]
 8001822:	4613      	mov	r3, r2
 8001824:	009b      	lsls	r3, r3, #2
 8001826:	4413      	add	r3, r2
 8001828:	00db      	lsls	r3, r3, #3
 800182a:	440b      	add	r3, r1
 800182c:	f503 73c0 	add.w	r3, r3, #384	; 0x180
 8001830:	2200      	movs	r2, #0
 8001832:	601a      	str	r2, [r3, #0]
 8001834:	7bfb      	ldrb	r3, [r7, #15]
 8001836:	3301      	adds	r3, #1
 8001838:	73fb      	strb	r3, [r7, #15]
 800183a:	7bfa      	ldrb	r2, [r7, #15]
 800183c:	687b      	ldr	r3, [r7, #4]
 800183e:	685b      	ldr	r3, [r3, #4]
 8001840:	429a      	cmp	r2, r3
 8001842:	d3b5      	bcc.n	80017b0 <HAL_PCD_Init+0x12c>
 8001844:	687b      	ldr	r3, [r7, #4]
 8001846:	681b      	ldr	r3, [r3, #0]
 8001848:	603b      	str	r3, [r7, #0]
 800184a:	687e      	ldr	r6, [r7, #4]
 800184c:	466d      	mov	r5, sp
 800184e:	f106 0410 	add.w	r4, r6, #16
 8001852:	cc0f      	ldmia	r4!, {r0, r1, r2, r3}
 8001854:	c50f      	stmia	r5!, {r0, r1, r2, r3}
 8001856:	6823      	ldr	r3, [r4, #0]
 8001858:	602b      	str	r3, [r5, #0]
 800185a:	1d33      	adds	r3, r6, #4
 800185c:	cb0e      	ldmia	r3, {r1, r2, r3}
 800185e:	6838      	ldr	r0, [r7, #0]
 8001860:	f002 fb42 	bl	8003ee8 <USB_DevInit>
 8001864:	4603      	mov	r3, r0
 8001866:	2b00      	cmp	r3, #0
 8001868:	d005      	beq.n	8001876 <HAL_PCD_Init+0x1f2>
 800186a:	687b      	ldr	r3, [r7, #4]
 800186c:	2202      	movs	r2, #2
 800186e:	f883 22a9 	strb.w	r2, [r3, #681]	; 0x2a9
 8001872:	2301      	movs	r3, #1
 8001874:	e00d      	b.n	8001892 <HAL_PCD_Init+0x20e>
 8001876:	687b      	ldr	r3, [r7, #4]
 8001878:	2200      	movs	r2, #0
 800187a:	f883 2024 	strb.w	r2, [r3, #36]	; 0x24
 800187e:	687b      	ldr	r3, [r7, #4]
 8001880:	2201      	movs	r2, #1
 8001882:	f883 22a9 	strb.w	r2, [r3, #681]	; 0x2a9
 8001886:	687b      	ldr	r3, [r7, #4]
 8001888:	681b      	ldr	r3, [r3, #0]
 800188a:	4618      	mov	r0, r3
 800188c:	f004 fadc 	bl	8005e48 <USB_DevDisconnect>
 8001890:	2300      	movs	r3, #0
 8001892:	4618      	mov	r0, r3
 8001894:	3714      	adds	r7, #20
 8001896:	46bd      	mov	sp, r7
 8001898:	bdf0      	pop	{r4, r5, r6, r7, pc}

0800189a <HAL_PCD_Start>:
 800189a:	b580      	push	{r7, lr}
 800189c:	b082      	sub	sp, #8
 800189e:	af00      	add	r7, sp, #0
 80018a0:	6078      	str	r0, [r7, #4]
 80018a2:	687b      	ldr	r3, [r7, #4]
 80018a4:	f893 32a8 	ldrb.w	r3, [r3, #680]	; 0x2a8
 80018a8:	2b01      	cmp	r3, #1
 80018aa:	d101      	bne.n	80018b0 <HAL_PCD_Start+0x16>
 80018ac:	2302      	movs	r3, #2
 80018ae:	e016      	b.n	80018de <HAL_PCD_Start+0x44>
 80018b0:	687b      	ldr	r3, [r7, #4]
 80018b2:	2201      	movs	r2, #1
 80018b4:	f883 22a8 	strb.w	r2, [r3, #680]	; 0x2a8
 80018b8:	687b      	ldr	r3, [r7, #4]
 80018ba:	681b      	ldr	r3, [r3, #0]
 80018bc:	4618      	mov	r0, r3
 80018be:	f002 fad7 	bl	8003e70 <USB_EnableGlobalInt>
 80018c2:	2101      	movs	r1, #1
 80018c4:	6878      	ldr	r0, [r7, #4]
 80018c6:	f006 fae4 	bl	8007e92 <HAL_PCDEx_SetConnectionState>
 80018ca:	687b      	ldr	r3, [r7, #4]
 80018cc:	681b      	ldr	r3, [r3, #0]
 80018ce:	4618      	mov	r0, r3
 80018d0:	f004 fab0 	bl	8005e34 <USB_DevConnect>
 80018d4:	687b      	ldr	r3, [r7, #4]
 80018d6:	2200      	movs	r2, #0
 80018d8:	f883 22a8 	strb.w	r2, [r3, #680]	; 0x2a8
 80018dc:	2300      	movs	r3, #0
 80018de:	4618      	mov	r0, r3
 80018e0:	3708      	adds	r7, #8
 80018e2:	46bd      	mov	sp, r7
 80018e4:	bd80      	pop	{r7, pc}

080018e6 <HAL_PCD_IRQHandler>:
 80018e6:	b580      	push	{r7, lr}
 80018e8:	b088      	sub	sp, #32
 80018ea:	af00      	add	r7, sp, #0
 80018ec:	6078      	str	r0, [r7, #4]
 80018ee:	687b      	ldr	r3, [r7, #4]
 80018f0:	681b      	ldr	r3, [r3, #0]
 80018f2:	4618      	mov	r0, r3
 80018f4:	f004 fab2 	bl	8005e5c <USB_ReadInterrupts>
 80018f8:	4603      	mov	r3, r0
 80018fa:	f403 4300 	and.w	r3, r3, #32768	; 0x8000
 80018fe:	f5b3 4f00 	cmp.w	r3, #32768	; 0x8000
 8001902:	d102      	bne.n	800190a <HAL_PCD_IRQHandler+0x24>
 8001904:	6878      	ldr	r0, [r7, #4]
 8001906:	f000 fb61 	bl	8001fcc <PCD_EP_ISR_Handler>
 800190a:	687b      	ldr	r3, [r7, #4]
 800190c:	681b      	ldr	r3, [r3, #0]
 800190e:	4618      	mov	r0, r3
 8001910:	f004 faa4 	bl	8005e5c <USB_ReadInterrupts>
 8001914:	4603      	mov	r3, r0
 8001916:	f403 6380 	and.w	r3, r3, #1024	; 0x400
 800191a:	f5b3 6f80 	cmp.w	r3, #1024	; 0x400
 800191e:	d112      	bne.n	8001946 <HAL_PCD_IRQHandler+0x60>
 8001920:	687b      	ldr	r3, [r7, #4]
 8001922:	681b      	ldr	r3, [r3, #0]
 8001924:	f8b3 3044 	ldrh.w	r3, [r3, #68]	; 0x44
 8001928:	b29a      	uxth	r2, r3
 800192a:	687b      	ldr	r3, [r7, #4]
 800192c:	681b      	ldr	r3, [r3, #0]
 800192e:	f422 6280 	bic.w	r2, r2, #1024	; 0x400
 8001932:	b292      	uxth	r2, r2
 8001934:	f8a3 2044 	strh.w	r2, [r3, #68]	; 0x44
 8001938:	6878      	ldr	r0, [r7, #4]
 800193a:	f006 f8b2 	bl	8007aa2 <HAL_PCD_ResetCallback>
 800193e:	2100      	movs	r1, #0
 8001940:	6878      	ldr	r0, [r7, #4]
 8001942:	f000 f925 	bl	8001b90 <HAL_PCD_SetAddress>
 8001946:	687b      	ldr	r3, [r7, #4]
 8001948:	681b      	ldr	r3, [r3, #0]
 800194a:	4618      	mov	r0, r3
 800194c:	f004 fa86 	bl	8005e5c <USB_ReadInterrupts>
 8001950:	4603      	mov	r3, r0
 8001952:	f403 4380 	and.w	r3, r3, #16384	; 0x4000
 8001956:	f5b3 4f80 	cmp.w	r3, #16384	; 0x4000
 800195a:	d10b      	bne.n	8001974 <HAL_PCD_IRQHandler+0x8e>
 800195c:	687b      	ldr	r3, [r7, #4]
 800195e:	681b      	ldr	r3, [r3, #0]
 8001960:	f8b3 3044 	ldrh.w	r3, [r3, #68]	; 0x44
 8001964:	b29a      	uxth	r2, r3
 8001966:	687b      	ldr	r3, [r7, #4]
 8001968:	681b      	ldr	r3, [r3, #0]
 800196a:	f422 4280 	bic.w	r2, r2, #16384	; 0x4000
 800196e:	b292      	uxth	r2, r2
 8001970:	f8a3 2044 	strh.w	r2, [r3, #68]	; 0x44
 8001974:	687b      	ldr	r3, [r7, #4]
 8001976:	681b      	ldr	r3, [r3, #0]
 8001978:	4618      	mov	r0, r3
 800197a:	f004 fa6f 	bl	8005e5c <USB_ReadInterrupts>
 800197e:	4603      	mov	r3, r0
 8001980:	f403 5300 	and.w	r3, r3, #8192	; 0x2000
 8001984:	f5b3 5f00 	cmp.w	r3, #8192	; 0x2000
 8001988:	d10b      	bne.n	80019a2 <HAL_PCD_IRQHandler+0xbc>
 800198a:	687b      	ldr	r3, [r7, #4]
 800198c:	681b      	ldr	r3, [r3, #0]
 800198e:	f8b3 3044 	ldrh.w	r3, [r3, #68]	; 0x44
 8001992:	b29a      	uxth	r2, r3
 8001994:	687b      	ldr	r3, [r7, #4]
 8001996:	681b      	ldr	r3, [r3, #0]
 8001998:	f422 5200 	bic.w	r2, r2, #8192	; 0x2000
 800199c:	b292      	uxth	r2, r2
 800199e:	f8a3 2044 	strh.w	r2, [r3, #68]	; 0x44
 80019a2:	687b      	ldr	r3, [r7, #4]
 80019a4:	681b      	ldr	r3, [r3, #0]
 80019a6:	4618      	mov	r0, r3
 80019a8:	f004 fa58 	bl	8005e5c <USB_ReadInterrupts>
 80019ac:	4603      	mov	r3, r0
 80019ae:	f403 5380 	and.w	r3, r3, #4096	; 0x1000
 80019b2:	f5b3 5f80 	cmp.w	r3, #4096	; 0x1000
 80019b6:	d126      	bne.n	8001a06 <HAL_PCD_IRQHandler+0x120>
 80019b8:	687b      	ldr	r3, [r7, #4]
 80019ba:	681b      	ldr	r3, [r3, #0]
 80019bc:	f8b3 3040 	ldrh.w	r3, [r3, #64]	; 0x40
 80019c0:	b29a      	uxth	r2, r3
 80019c2:	687b      	ldr	r3, [r7, #4]
 80019c4:	681b      	ldr	r3, [r3, #0]
 80019c6:	f022 0204 	bic.w	r2, r2, #4
 80019ca:	b292      	uxth	r2, r2
 80019cc:	f8a3 2040 	strh.w	r2, [r3, #64]	; 0x40
 80019d0:	687b      	ldr	r3, [r7, #4]
 80019d2:	681b      	ldr	r3, [r3, #0]
 80019d4:	f8b3 3040 	ldrh.w	r3, [r3, #64]	; 0x40
 80019d8:	b29a      	uxth	r2, r3
 80019da:	687b      	ldr	r3, [r7, #4]
 80019dc:	681b      	ldr	r3, [r3, #0]
 80019de:	f022 0208 	bic.w	r2, r2, #8
 80019e2:	b292      	uxth	r2, r2
 80019e4:	f8a3 2040 	strh.w	r2, [r3, #64]	; 0x40
 80019e8:	6878      	ldr	r0, [r7, #4]
 80019ea:	f006 f893 	bl	8007b14 <HAL_PCD_ResumeCallback>
 80019ee:	687b      	ldr	r3, [r7, #4]
 80019f0:	681b      	ldr	r3, [r3, #0]
 80019f2:	f8b3 3044 	ldrh.w	r3, [r3, #68]	; 0x44
 80019f6:	b29a      	uxth	r2, r3
 80019f8:	687b      	ldr	r3, [r7, #4]
 80019fa:	681b      	ldr	r3, [r3, #0]
 80019fc:	f422 5280 	bic.w	r2, r2, #4096	; 0x1000
 8001a00:	b292      	uxth	r2, r2
 8001a02:	f8a3 2044 	strh.w	r2, [r3, #68]	; 0x44
 8001a06:	687b      	ldr	r3, [r7, #4]
 8001a08:	681b      	ldr	r3, [r3, #0]
 8001a0a:	4618      	mov	r0, r3
 8001a0c:	f004 fa26 	bl	8005e5c <USB_ReadInterrupts>
 8001a10:	4603      	mov	r3, r0
 8001a12:	f403 6300 	and.w	r3, r3, #2048	; 0x800
 8001a16:	f5b3 6f00 	cmp.w	r3, #2048	; 0x800
 8001a1a:	f040 8084 	bne.w	8001b26 <HAL_PCD_IRQHandler+0x240>
 8001a1e:	2300      	movs	r3, #0
 8001a20:	77fb      	strb	r3, [r7, #31]
 8001a22:	e011      	b.n	8001a48 <HAL_PCD_IRQHandler+0x162>
 8001a24:	687b      	ldr	r3, [r7, #4]
 8001a26:	681b      	ldr	r3, [r3, #0]
 8001a28:	461a      	mov	r2, r3
 8001a2a:	7ffb      	ldrb	r3, [r7, #31]
 8001a2c:	009b      	lsls	r3, r3, #2
 8001a2e:	441a      	add	r2, r3
 8001a30:	7ffb      	ldrb	r3, [r7, #31]
 8001a32:	8812      	ldrh	r2, [r2, #0]
 8001a34:	b292      	uxth	r2, r2
 8001a36:	005b      	lsls	r3, r3, #1
 8001a38:	f107 0120 	add.w	r1, r7, #32
 8001a3c:	440b      	add	r3, r1
 8001a3e:	f823 2c14 	strh.w	r2, [r3, #-20]
 8001a42:	7ffb      	ldrb	r3, [r7, #31]
 8001a44:	3301      	adds	r3, #1
 8001a46:	77fb      	strb	r3, [r7, #31]
 8001a48:	7ffb      	ldrb	r3, [r7, #31]
 8001a4a:	2b07      	cmp	r3, #7
 8001a4c:	d9ea      	bls.n	8001a24 <HAL_PCD_IRQHandler+0x13e>
 8001a4e:	687b      	ldr	r3, [r7, #4]
 8001a50:	681b      	ldr	r3, [r3, #0]
 8001a52:	f8b3 3040 	ldrh.w	r3, [r3, #64]	; 0x40
 8001a56:	b29a      	uxth	r2, r3
 8001a58:	687b      	ldr	r3, [r7, #4]
 8001a5a:	681b      	ldr	r3, [r3, #0]
 8001a5c:	f042 0201 	orr.w	r2, r2, #1
 8001a60:	b292      	uxth	r2, r2
 8001a62:	f8a3 2040 	strh.w	r2, [r3, #64]	; 0x40
 8001a66:	687b      	ldr	r3, [r7, #4]
 8001a68:	681b      	ldr	r3, [r3, #0]
 8001a6a:	f8b3 3040 	ldrh.w	r3, [r3, #64]	; 0x40
 8001a6e:	b29a      	uxth	r2, r3
 8001a70:	687b      	ldr	r3, [r7, #4]
 8001a72:	681b      	ldr	r3, [r3, #0]
 8001a74:	f022 0201 	bic.w	r2, r2, #1
 8001a78:	b292      	uxth	r2, r2
 8001a7a:	f8a3 2040 	strh.w	r2, [r3, #64]	; 0x40
 8001a7e:	bf00      	nop
 8001a80:	687b      	ldr	r3, [r7, #4]
 8001a82:	681b      	ldr	r3, [r3, #0]
 8001a84:	f8b3 3044 	ldrh.w	r3, [r3, #68]	; 0x44
 8001a88:	b29b      	uxth	r3, r3
 8001a8a:	f403 6380 	and.w	r3, r3, #1024	; 0x400
 8001a8e:	2b00      	cmp	r3, #0
 8001a90:	d0f6      	beq.n	8001a80 <HAL_PCD_IRQHandler+0x19a>
 8001a92:	687b      	ldr	r3, [r7, #4]
 8001a94:	681b      	ldr	r3, [r3, #0]
 8001a96:	f8b3 3044 	ldrh.w	r3, [r3, #68]	; 0x44
 8001a9a:	b29a      	uxth	r2, r3
 8001a9c:	687b      	ldr	r3, [r7, #4]
 8001a9e:	681b      	ldr	r3, [r3, #0]
 8001aa0:	f422 6280 	bic.w	r2, r2, #1024	; 0x400
 8001aa4:	b292      	uxth	r2, r2
 8001aa6:	f8a3 2044 	strh.w	r2, [r3, #68]	; 0x44
 8001aaa:	2300      	movs	r3, #0
 8001aac:	77fb      	strb	r3, [r7, #31]
 8001aae:	e010      	b.n	8001ad2 <HAL_PCD_IRQHandler+0x1ec>
 8001ab0:	7ffb      	ldrb	r3, [r7, #31]
 8001ab2:	687a      	ldr	r2, [r7, #4]
 8001ab4:	6812      	ldr	r2, [r2, #0]
 8001ab6:	4611      	mov	r1, r2
 8001ab8:	7ffa      	ldrb	r2, [r7, #31]
 8001aba:	0092      	lsls	r2, r2, #2
 8001abc:	440a      	add	r2, r1
 8001abe:	005b      	lsls	r3, r3, #1
 8001ac0:	f107 0120 	add.w	r1, r7, #32
 8001ac4:	440b      	add	r3, r1
 8001ac6:	f833 3c14 	ldrh.w	r3, [r3, #-20]
 8001aca:	8013      	strh	r3, [r2, #0]
 8001acc:	7ffb      	ldrb	r3, [r7, #31]
 8001ace:	3301      	adds	r3, #1
 8001ad0:	77fb      	strb	r3, [r7, #31]
 8001ad2:	7ffb      	ldrb	r3, [r7, #31]
 8001ad4:	2b07      	cmp	r3, #7
 8001ad6:	d9eb      	bls.n	8001ab0 <HAL_PCD_IRQHandler+0x1ca>
 8001ad8:	687b      	ldr	r3, [r7, #4]
 8001ada:	681b      	ldr	r3, [r3, #0]
 8001adc:	f8b3 3040 	ldrh.w	r3, [r3, #64]	; 0x40
 8001ae0:	b29a      	uxth	r2, r3
 8001ae2:	687b      	ldr	r3, [r7, #4]
 8001ae4:	681b      	ldr	r3, [r3, #0]
 8001ae6:	f042 0208 	orr.w	r2, r2, #8
 8001aea:	b292      	uxth	r2, r2
 8001aec:	f8a3 2040 	strh.w	r2, [r3, #64]	; 0x40
 8001af0:	687b      	ldr	r3, [r7, #4]
 8001af2:	681b      	ldr	r3, [r3, #0]
 8001af4:	f8b3 3044 	ldrh.w	r3, [r3, #68]	; 0x44
 8001af8:	b29a      	uxth	r2, r3
 8001afa:	687b      	ldr	r3, [r7, #4]
 8001afc:	681b      	ldr	r3, [r3, #0]
 8001afe:	f422 6200 	bic.w	r2, r2, #2048	; 0x800
 8001b02:	b292      	uxth	r2, r2
 8001b04:	f8a3 2044 	strh.w	r2, [r3, #68]	; 0x44
 8001b08:	687b      	ldr	r3, [r7, #4]
 8001b0a:	681b      	ldr	r3, [r3, #0]
 8001b0c:	f8b3 3040 	ldrh.w	r3, [r3, #64]	; 0x40
 8001b10:	b29a      	uxth	r2, r3
 8001b12:	687b      	ldr	r3, [r7, #4]
 8001b14:	681b      	ldr	r3, [r3, #0]
 8001b16:	f042 0204 	orr.w	r2, r2, #4
 8001b1a:	b292      	uxth	r2, r2
 8001b1c:	f8a3 2040 	strh.w	r2, [r3, #64]	; 0x40
 8001b20:	6878      	ldr	r0, [r7, #4]
 8001b22:	f005 ffdd 	bl	8007ae0 <HAL_PCD_SuspendCallback>
 8001b26:	687b      	ldr	r3, [r7, #4]
 8001b28:	681b      	ldr	r3, [r3, #0]
 8001b2a:	4618      	mov	r0, r3
 8001b2c:	f004 f996 	bl	8005e5c <USB_ReadInterrupts>
 8001b30:	4603      	mov	r3, r0
 8001b32:	f403 7300 	and.w	r3, r3, #512	; 0x200
 8001b36:	f5b3 7f00 	cmp.w	r3, #512	; 0x200
 8001b3a:	d10e      	bne.n	8001b5a <HAL_PCD_IRQHandler+0x274>
 8001b3c:	687b      	ldr	r3, [r7, #4]
 8001b3e:	681b      	ldr	r3, [r3, #0]
 8001b40:	f8b3 3044 	ldrh.w	r3, [r3, #68]	; 0x44
 8001b44:	b29a      	uxth	r2, r3
 8001b46:	687b      	ldr	r3, [r7, #4]
 8001b48:	681b      	ldr	r3, [r3, #0]
 8001b4a:	f422 7200 	bic.w	r2, r2, #512	; 0x200
 8001b4e:	b292      	uxth	r2, r2
 8001b50:	f8a3 2044 	strh.w	r2, [r3, #68]	; 0x44
 8001b54:	6878      	ldr	r0, [r7, #4]
 8001b56:	f005 ff96 	bl	8007a86 <HAL_PCD_SOFCallback>
 8001b5a:	687b      	ldr	r3, [r7, #4]
 8001b5c:	681b      	ldr	r3, [r3, #0]
 8001b5e:	4618      	mov	r0, r3
 8001b60:	f004 f97c 	bl	8005e5c <USB_ReadInterrupts>
 8001b64:	4603      	mov	r3, r0
 8001b66:	f403 7380 	and.w	r3, r3, #256	; 0x100
 8001b6a:	f5b3 7f80 	cmp.w	r3, #256	; 0x100
 8001b6e:	d10b      	bne.n	8001b88 <HAL_PCD_IRQHandler+0x2a2>
 8001b70:	687b      	ldr	r3, [r7, #4]
 8001b72:	681b      	ldr	r3, [r3, #0]
 8001b74:	f8b3 3044 	ldrh.w	r3, [r3, #68]	; 0x44
 8001b78:	b29a      	uxth	r2, r3
 8001b7a:	687b      	ldr	r3, [r7, #4]
 8001b7c:	681b      	ldr	r3, [r3, #0]
 8001b7e:	f422 7280 	bic.w	r2, r2, #256	; 0x100
 8001b82:	b292      	uxth	r2, r2
 8001b84:	f8a3 2044 	strh.w	r2, [r3, #68]	; 0x44
 8001b88:	bf00      	nop
 8001b8a:	3720      	adds	r7, #32
 8001b8c:	46bd      	mov	sp, r7
 8001b8e:	bd80      	pop	{r7, pc}

08001b90 <HAL_PCD_SetAddress>:
 8001b90:	b580      	push	{r7, lr}
 8001b92:	b082      	sub	sp, #8
 8001b94:	af00      	add	r7, sp, #0
 8001b96:	6078      	str	r0, [r7, #4]
 8001b98:	460b      	mov	r3, r1
 8001b9a:	70fb      	strb	r3, [r7, #3]
 8001b9c:	687b      	ldr	r3, [r7, #4]
 8001b9e:	f893 32a8 	ldrb.w	r3, [r3, #680]	; 0x2a8
 8001ba2:	2b01      	cmp	r3, #1
 8001ba4:	d101      	bne.n	8001baa <HAL_PCD_SetAddress+0x1a>
 8001ba6:	2302      	movs	r3, #2
 8001ba8:	e013      	b.n	8001bd2 <HAL_PCD_SetAddress+0x42>
 8001baa:	687b      	ldr	r3, [r7, #4]
 8001bac:	2201      	movs	r2, #1
 8001bae:	f883 22a8 	strb.w	r2, [r3, #680]	; 0x2a8
 8001bb2:	687b      	ldr	r3, [r7, #4]
 8001bb4:	78fa      	ldrb	r2, [r7, #3]
 8001bb6:	f883 2024 	strb.w	r2, [r3, #36]	; 0x24
 8001bba:	687b      	ldr	r3, [r7, #4]
 8001bbc:	681b      	ldr	r3, [r3, #0]
 8001bbe:	78fa      	ldrb	r2, [r7, #3]
 8001bc0:	4611      	mov	r1, r2
 8001bc2:	4618      	mov	r0, r3
 8001bc4:	f004 f923 	bl	8005e0e <USB_SetDevAddress>
 8001bc8:	687b      	ldr	r3, [r7, #4]
 8001bca:	2200      	movs	r2, #0
 8001bcc:	f883 22a8 	strb.w	r2, [r3, #680]	; 0x2a8
 8001bd0:	2300      	movs	r3, #0
 8001bd2:	4618      	mov	r0, r3
 8001bd4:	3708      	adds	r7, #8
 8001bd6:	46bd      	mov	sp, r7
 8001bd8:	bd80      	pop	{r7, pc}

08001bda <HAL_PCD_EP_Open>:
 8001bda:	b580      	push	{r7, lr}
 8001bdc:	b084      	sub	sp, #16
 8001bde:	af00      	add	r7, sp, #0
 8001be0:	6078      	str	r0, [r7, #4]
 8001be2:	4608      	mov	r0, r1
 8001be4:	4611      	mov	r1, r2
 8001be6:	461a      	mov	r2, r3
 8001be8:	4603      	mov	r3, r0
 8001bea:	70fb      	strb	r3, [r7, #3]
 8001bec:	460b      	mov	r3, r1
 8001bee:	803b      	strh	r3, [r7, #0]
 8001bf0:	4613      	mov	r3, r2
 8001bf2:	70bb      	strb	r3, [r7, #2]
 8001bf4:	2300      	movs	r3, #0
 8001bf6:	72fb      	strb	r3, [r7, #11]
 8001bf8:	f997 3003 	ldrsb.w	r3, [r7, #3]
 8001bfc:	2b00      	cmp	r3, #0
 8001bfe:	da0e      	bge.n	8001c1e <HAL_PCD_EP_Open+0x44>
 8001c00:	78fb      	ldrb	r3, [r7, #3]
 8001c02:	f003 0307 	and.w	r3, r3, #7
 8001c06:	1c5a      	adds	r2, r3, #1
 8001c08:	4613      	mov	r3, r2
 8001c0a:	009b      	lsls	r3, r3, #2
 8001c0c:	4413      	add	r3, r2
 8001c0e:	00db      	lsls	r3, r3, #3
 8001c10:	687a      	ldr	r2, [r7, #4]
 8001c12:	4413      	add	r3, r2
 8001c14:	60fb      	str	r3, [r7, #12]
 8001c16:	68fb      	ldr	r3, [r7, #12]
 8001c18:	2201      	movs	r2, #1
 8001c1a:	705a      	strb	r2, [r3, #1]
 8001c1c:	e00e      	b.n	8001c3c <HAL_PCD_EP_Open+0x62>
 8001c1e:	78fb      	ldrb	r3, [r7, #3]
 8001c20:	f003 0207 	and.w	r2, r3, #7
 8001c24:	4613      	mov	r3, r2
 8001c26:	009b      	lsls	r3, r3, #2
 8001c28:	4413      	add	r3, r2
 8001c2a:	00db      	lsls	r3, r3, #3
 8001c2c:	f503 73b4 	add.w	r3, r3, #360	; 0x168
 8001c30:	687a      	ldr	r2, [r7, #4]
 8001c32:	4413      	add	r3, r2
 8001c34:	60fb      	str	r3, [r7, #12]
 8001c36:	68fb      	ldr	r3, [r7, #12]
 8001c38:	2200      	movs	r2, #0
 8001c3a:	705a      	strb	r2, [r3, #1]
 8001c3c:	78fb      	ldrb	r3, [r7, #3]
 8001c3e:	f003 0307 	and.w	r3, r3, #7
 8001c42:	b2da      	uxtb	r2, r3
 8001c44:	68fb      	ldr	r3, [r7, #12]
 8001c46:	701a      	strb	r2, [r3, #0]
 8001c48:	883a      	ldrh	r2, [r7, #0]
 8001c4a:	68fb      	ldr	r3, [r7, #12]
 8001c4c:	611a      	str	r2, [r3, #16]
 8001c4e:	68fb      	ldr	r3, [r7, #12]
 8001c50:	78ba      	ldrb	r2, [r7, #2]
 8001c52:	70da      	strb	r2, [r3, #3]
 8001c54:	68fb      	ldr	r3, [r7, #12]
 8001c56:	785b      	ldrb	r3, [r3, #1]
 8001c58:	2b00      	cmp	r3, #0
 8001c5a:	d004      	beq.n	8001c66 <HAL_PCD_EP_Open+0x8c>
 8001c5c:	68fb      	ldr	r3, [r7, #12]
 8001c5e:	781b      	ldrb	r3, [r3, #0]
 8001c60:	b29a      	uxth	r2, r3
 8001c62:	68fb      	ldr	r3, [r7, #12]
 8001c64:	81da      	strh	r2, [r3, #14]
 8001c66:	78bb      	ldrb	r3, [r7, #2]
 8001c68:	2b02      	cmp	r3, #2
 8001c6a:	d102      	bne.n	8001c72 <HAL_PCD_EP_Open+0x98>
 8001c6c:	68fb      	ldr	r3, [r7, #12]
 8001c6e:	2200      	movs	r2, #0
 8001c70:	711a      	strb	r2, [r3, #4]
 8001c72:	687b      	ldr	r3, [r7, #4]
 8001c74:	f893 32a8 	ldrb.w	r3, [r3, #680]	; 0x2a8
 8001c78:	2b01      	cmp	r3, #1
 8001c7a:	d101      	bne.n	8001c80 <HAL_PCD_EP_Open+0xa6>
 8001c7c:	2302      	movs	r3, #2
 8001c7e:	e00e      	b.n	8001c9e <HAL_PCD_EP_Open+0xc4>
 8001c80:	687b      	ldr	r3, [r7, #4]
 8001c82:	2201      	movs	r2, #1
 8001c84:	f883 22a8 	strb.w	r2, [r3, #680]	; 0x2a8
 8001c88:	687b      	ldr	r3, [r7, #4]
 8001c8a:	681b      	ldr	r3, [r3, #0]
 8001c8c:	68f9      	ldr	r1, [r7, #12]
 8001c8e:	4618      	mov	r0, r3
 8001c90:	f002 f94a 	bl	8003f28 <USB_ActivateEndpoint>
 8001c94:	687b      	ldr	r3, [r7, #4]
 8001c96:	2200      	movs	r2, #0
 8001c98:	f883 22a8 	strb.w	r2, [r3, #680]	; 0x2a8
 8001c9c:	7afb      	ldrb	r3, [r7, #11]
 8001c9e:	4618      	mov	r0, r3
 8001ca0:	3710      	adds	r7, #16
 8001ca2:	46bd      	mov	sp, r7
 8001ca4:	bd80      	pop	{r7, pc}

08001ca6 <HAL_PCD_EP_Close>:
 8001ca6:	b580      	push	{r7, lr}
 8001ca8:	b084      	sub	sp, #16
 8001caa:	af00      	add	r7, sp, #0
 8001cac:	6078      	str	r0, [r7, #4]
 8001cae:	460b      	mov	r3, r1
 8001cb0:	70fb      	strb	r3, [r7, #3]
 8001cb2:	f997 3003 	ldrsb.w	r3, [r7, #3]
 8001cb6:	2b00      	cmp	r3, #0
 8001cb8:	da0e      	bge.n	8001cd8 <HAL_PCD_EP_Close+0x32>
 8001cba:	78fb      	ldrb	r3, [r7, #3]
 8001cbc:	f003 0307 	and.w	r3, r3, #7
 8001cc0:	1c5a      	adds	r2, r3, #1
 8001cc2:	4613      	mov	r3, r2
 8001cc4:	009b      	lsls	r3, r3, #2
 8001cc6:	4413      	add	r3, r2
 8001cc8:	00db      	lsls	r3, r3, #3
 8001cca:	687a      	ldr	r2, [r7, #4]
 8001ccc:	4413      	add	r3, r2
 8001cce:	60fb      	str	r3, [r7, #12]
 8001cd0:	68fb      	ldr	r3, [r7, #12]
 8001cd2:	2201      	movs	r2, #1
 8001cd4:	705a      	strb	r2, [r3, #1]
 8001cd6:	e00e      	b.n	8001cf6 <HAL_PCD_EP_Close+0x50>
 8001cd8:	78fb      	ldrb	r3, [r7, #3]
 8001cda:	f003 0207 	and.w	r2, r3, #7
 8001cde:	4613      	mov	r3, r2
 8001ce0:	009b      	lsls	r3, r3, #2
 8001ce2:	4413      	add	r3, r2
 8001ce4:	00db      	lsls	r3, r3, #3
 8001ce6:	f503 73b4 	add.w	r3, r3, #360	; 0x168
 8001cea:	687a      	ldr	r2, [r7, #4]
 8001cec:	4413      	add	r3, r2
 8001cee:	60fb      	str	r3, [r7, #12]
 8001cf0:	68fb      	ldr	r3, [r7, #12]
 8001cf2:	2200      	movs	r2, #0
 8001cf4:	705a      	strb	r2, [r3, #1]
 8001cf6:	78fb      	ldrb	r3, [r7, #3]
 8001cf8:	f003 0307 	and.w	r3, r3, #7
 8001cfc:	b2da      	uxtb	r2, r3
 8001cfe:	68fb      	ldr	r3, [r7, #12]
 8001d00:	701a      	strb	r2, [r3, #0]
 8001d02:	687b      	ldr	r3, [r7, #4]
 8001d04:	f893 32a8 	ldrb.w	r3, [r3, #680]	; 0x2a8
 8001d08:	2b01      	cmp	r3, #1
 8001d0a:	d101      	bne.n	8001d10 <HAL_PCD_EP_Close+0x6a>
 8001d0c:	2302      	movs	r3, #2
 8001d0e:	e00e      	b.n	8001d2e <HAL_PCD_EP_Close+0x88>
 8001d10:	687b      	ldr	r3, [r7, #4]
 8001d12:	2201      	movs	r2, #1
 8001d14:	f883 22a8 	strb.w	r2, [r3, #680]	; 0x2a8
 8001d18:	687b      	ldr	r3, [r7, #4]
 8001d1a:	681b      	ldr	r3, [r3, #0]
 8001d1c:	68f9      	ldr	r1, [r7, #12]
 8001d1e:	4618      	mov	r0, r3
 8001d20:	f002 fc6c 	bl	80045fc <USB_DeactivateEndpoint>
 8001d24:	687b      	ldr	r3, [r7, #4]
 8001d26:	2200      	movs	r2, #0
 8001d28:	f883 22a8 	strb.w	r2, [r3, #680]	; 0x2a8
 8001d2c:	2300      	movs	r3, #0
 8001d2e:	4618      	mov	r0, r3
 8001d30:	3710      	adds	r7, #16
 8001d32:	46bd      	mov	sp, r7
 8001d34:	bd80      	pop	{r7, pc}

08001d36 <HAL_PCD_EP_Receive>:
 8001d36:	b580      	push	{r7, lr}
 8001d38:	b086      	sub	sp, #24
 8001d3a:	af00      	add	r7, sp, #0
 8001d3c:	60f8      	str	r0, [r7, #12]
 8001d3e:	607a      	str	r2, [r7, #4]
 8001d40:	603b      	str	r3, [r7, #0]
 8001d42:	460b      	mov	r3, r1
 8001d44:	72fb      	strb	r3, [r7, #11]
 8001d46:	7afb      	ldrb	r3, [r7, #11]
 8001d48:	f003 0207 	and.w	r2, r3, #7
 8001d4c:	4613      	mov	r3, r2
 8001d4e:	009b      	lsls	r3, r3, #2
 8001d50:	4413      	add	r3, r2
 8001d52:	00db      	lsls	r3, r3, #3
 8001d54:	f503 73b4 	add.w	r3, r3, #360	; 0x168
 8001d58:	68fa      	ldr	r2, [r7, #12]
 8001d5a:	4413      	add	r3, r2
 8001d5c:	617b      	str	r3, [r7, #20]
 8001d5e:	697b      	ldr	r3, [r7, #20]
 8001d60:	687a      	ldr	r2, [r7, #4]
 8001d62:	615a      	str	r2, [r3, #20]
 8001d64:	697b      	ldr	r3, [r7, #20]
 8001d66:	683a      	ldr	r2, [r7, #0]
 8001d68:	619a      	str	r2, [r3, #24]
 8001d6a:	697b      	ldr	r3, [r7, #20]
 8001d6c:	2200      	movs	r2, #0
 8001d6e:	61da      	str	r2, [r3, #28]
 8001d70:	697b      	ldr	r3, [r7, #20]
 8001d72:	2200      	movs	r2, #0
 8001d74:	705a      	strb	r2, [r3, #1]
 8001d76:	7afb      	ldrb	r3, [r7, #11]
 8001d78:	f003 0307 	and.w	r3, r3, #7
 8001d7c:	b2da      	uxtb	r2, r3
 8001d7e:	697b      	ldr	r3, [r7, #20]
 8001d80:	701a      	strb	r2, [r3, #0]
 8001d82:	7afb      	ldrb	r3, [r7, #11]
 8001d84:	f003 0307 	and.w	r3, r3, #7
 8001d88:	2b00      	cmp	r3, #0
 8001d8a:	d106      	bne.n	8001d9a <HAL_PCD_EP_Receive+0x64>
 8001d8c:	68fb      	ldr	r3, [r7, #12]
 8001d8e:	681b      	ldr	r3, [r3, #0]
 8001d90:	6979      	ldr	r1, [r7, #20]
 8001d92:	4618      	mov	r0, r3
 8001d94:	f002 fe1e 	bl	80049d4 <USB_EPStartXfer>
 8001d98:	e005      	b.n	8001da6 <HAL_PCD_EP_Receive+0x70>
 8001d9a:	68fb      	ldr	r3, [r7, #12]
 8001d9c:	681b      	ldr	r3, [r3, #0]
 8001d9e:	6979      	ldr	r1, [r7, #20]
 8001da0:	4618      	mov	r0, r3
 8001da2:	f002 fe17 	bl	80049d4 <USB_EPStartXfer>
 8001da6:	2300      	movs	r3, #0
 8001da8:	4618      	mov	r0, r3
 8001daa:	3718      	adds	r7, #24
 8001dac:	46bd      	mov	sp, r7
 8001dae:	bd80      	pop	{r7, pc}

08001db0 <HAL_PCD_EP_GetRxCount>:
 8001db0:	b480      	push	{r7}
 8001db2:	b083      	sub	sp, #12
 8001db4:	af00      	add	r7, sp, #0
 8001db6:	6078      	str	r0, [r7, #4]
 8001db8:	460b      	mov	r3, r1
 8001dba:	70fb      	strb	r3, [r7, #3]
 8001dbc:	78fb      	ldrb	r3, [r7, #3]
 8001dbe:	f003 0207 	and.w	r2, r3, #7
 8001dc2:	6879      	ldr	r1, [r7, #4]
 8001dc4:	4613      	mov	r3, r2
 8001dc6:	009b      	lsls	r3, r3, #2
 8001dc8:	4413      	add	r3, r2
 8001dca:	00db      	lsls	r3, r3, #3
 8001dcc:	440b      	add	r3, r1
 8001dce:	f503 73c2 	add.w	r3, r3, #388	; 0x184
 8001dd2:	681b      	ldr	r3, [r3, #0]
 8001dd4:	4618      	mov	r0, r3
 8001dd6:	370c      	adds	r7, #12
 8001dd8:	46bd      	mov	sp, r7
 8001dda:	bc80      	pop	{r7}
 8001ddc:	4770      	bx	lr

08001dde <HAL_PCD_EP_Transmit>:
 8001dde:	b580      	push	{r7, lr}
 8001de0:	b086      	sub	sp, #24
 8001de2:	af00      	add	r7, sp, #0
 8001de4:	60f8      	str	r0, [r7, #12]
 8001de6:	607a      	str	r2, [r7, #4]
 8001de8:	603b      	str	r3, [r7, #0]
 8001dea:	460b      	mov	r3, r1
 8001dec:	72fb      	strb	r3, [r7, #11]
 8001dee:	7afb      	ldrb	r3, [r7, #11]
 8001df0:	f003 0307 	and.w	r3, r3, #7
 8001df4:	1c5a      	adds	r2, r3, #1
 8001df6:	4613      	mov	r3, r2
 8001df8:	009b      	lsls	r3, r3, #2
 8001dfa:	4413      	add	r3, r2
 8001dfc:	00db      	lsls	r3, r3, #3
 8001dfe:	68fa      	ldr	r2, [r7, #12]
 8001e00:	4413      	add	r3, r2
 8001e02:	617b      	str	r3, [r7, #20]
 8001e04:	697b      	ldr	r3, [r7, #20]
 8001e06:	687a      	ldr	r2, [r7, #4]
 8001e08:	615a      	str	r2, [r3, #20]
 8001e0a:	697b      	ldr	r3, [r7, #20]
 8001e0c:	683a      	ldr	r2, [r7, #0]
 8001e0e:	619a      	str	r2, [r3, #24]
 8001e10:	697b      	ldr	r3, [r7, #20]
 8001e12:	2201      	movs	r2, #1
 8001e14:	f883 2024 	strb.w	r2, [r3, #36]	; 0x24
 8001e18:	697b      	ldr	r3, [r7, #20]
 8001e1a:	683a      	ldr	r2, [r7, #0]
 8001e1c:	621a      	str	r2, [r3, #32]
 8001e1e:	697b      	ldr	r3, [r7, #20]
 8001e20:	2200      	movs	r2, #0
 8001e22:	61da      	str	r2, [r3, #28]
 8001e24:	697b      	ldr	r3, [r7, #20]
 8001e26:	2201      	movs	r2, #1
 8001e28:	705a      	strb	r2, [r3, #1]
 8001e2a:	7afb      	ldrb	r3, [r7, #11]
 8001e2c:	f003 0307 	and.w	r3, r3, #7
 8001e30:	b2da      	uxtb	r2, r3
 8001e32:	697b      	ldr	r3, [r7, #20]
 8001e34:	701a      	strb	r2, [r3, #0]
 8001e36:	7afb      	ldrb	r3, [r7, #11]
 8001e38:	f003 0307 	and.w	r3, r3, #7
 8001e3c:	2b00      	cmp	r3, #0
 8001e3e:	d106      	bne.n	8001e4e <HAL_PCD_EP_Transmit+0x70>
 8001e40:	68fb      	ldr	r3, [r7, #12]
 8001e42:	681b      	ldr	r3, [r3, #0]
 8001e44:	6979      	ldr	r1, [r7, #20]
 8001e46:	4618      	mov	r0, r3
 8001e48:	f002 fdc4 	bl	80049d4 <USB_EPStartXfer>
 8001e4c:	e005      	b.n	8001e5a <HAL_PCD_EP_Transmit+0x7c>
 8001e4e:	68fb      	ldr	r3, [r7, #12]
 8001e50:	681b      	ldr	r3, [r3, #0]
 8001e52:	6979      	ldr	r1, [r7, #20]
 8001e54:	4618      	mov	r0, r3
 8001e56:	f002 fdbd 	bl	80049d4 <USB_EPStartXfer>
 8001e5a:	2300      	movs	r3, #0
 8001e5c:	4618      	mov	r0, r3
 8001e5e:	3718      	adds	r7, #24
 8001e60:	46bd      	mov	sp, r7
 8001e62:	bd80      	pop	{r7, pc}

08001e64 <HAL_PCD_EP_SetStall>:
 8001e64:	b580      	push	{r7, lr}
 8001e66:	b084      	sub	sp, #16
 8001e68:	af00      	add	r7, sp, #0
 8001e6a:	6078      	str	r0, [r7, #4]
 8001e6c:	460b      	mov	r3, r1
 8001e6e:	70fb      	strb	r3, [r7, #3]
 8001e70:	78fb      	ldrb	r3, [r7, #3]
 8001e72:	f003 0207 	and.w	r2, r3, #7
 8001e76:	687b      	ldr	r3, [r7, #4]
 8001e78:	685b      	ldr	r3, [r3, #4]
 8001e7a:	429a      	cmp	r2, r3
 8001e7c:	d901      	bls.n	8001e82 <HAL_PCD_EP_SetStall+0x1e>
 8001e7e:	2301      	movs	r3, #1
 8001e80:	e04c      	b.n	8001f1c <HAL_PCD_EP_SetStall+0xb8>
 8001e82:	f997 3003 	ldrsb.w	r3, [r7, #3]
 8001e86:	2b00      	cmp	r3, #0
 8001e88:	da0e      	bge.n	8001ea8 <HAL_PCD_EP_SetStall+0x44>
 8001e8a:	78fb      	ldrb	r3, [r7, #3]
 8001e8c:	f003 0307 	and.w	r3, r3, #7
 8001e90:	1c5a      	adds	r2, r3, #1
 8001e92:	4613      	mov	r3, r2
 8001e94:	009b      	lsls	r3, r3, #2
 8001e96:	4413      	add	r3, r2
 8001e98:	00db      	lsls	r3, r3, #3
 8001e9a:	687a      	ldr	r2, [r7, #4]
 8001e9c:	4413      	add	r3, r2
 8001e9e:	60fb      	str	r3, [r7, #12]
 8001ea0:	68fb      	ldr	r3, [r7, #12]
 8001ea2:	2201      	movs	r2, #1
 8001ea4:	705a      	strb	r2, [r3, #1]
 8001ea6:	e00c      	b.n	8001ec2 <HAL_PCD_EP_SetStall+0x5e>
 8001ea8:	78fa      	ldrb	r2, [r7, #3]
 8001eaa:	4613      	mov	r3, r2
 8001eac:	009b      	lsls	r3, r3, #2
 8001eae:	4413      	add	r3, r2
 8001eb0:	00db      	lsls	r3, r3, #3
 8001eb2:	f503 73b4 	add.w	r3, r3, #360	; 0x168
 8001eb6:	687a      	ldr	r2, [r7, #4]
 8001eb8:	4413      	add	r3, r2
 8001eba:	60fb      	str	r3, [r7, #12]
 8001ebc:	68fb      	ldr	r3, [r7, #12]
 8001ebe:	2200      	movs	r2, #0
 8001ec0:	705a      	strb	r2, [r3, #1]
 8001ec2:	68fb      	ldr	r3, [r7, #12]
 8001ec4:	2201      	movs	r2, #1
 8001ec6:	709a      	strb	r2, [r3, #2]
 8001ec8:	78fb      	ldrb	r3, [r7, #3]
 8001eca:	f003 0307 	and.w	r3, r3, #7
 8001ece:	b2da      	uxtb	r2, r3
 8001ed0:	68fb      	ldr	r3, [r7, #12]
 8001ed2:	701a      	strb	r2, [r3, #0]
 8001ed4:	687b      	ldr	r3, [r7, #4]
 8001ed6:	f893 32a8 	ldrb.w	r3, [r3, #680]	; 0x2a8
 8001eda:	2b01      	cmp	r3, #1
 8001edc:	d101      	bne.n	8001ee2 <HAL_PCD_EP_SetStall+0x7e>
 8001ede:	2302      	movs	r3, #2
 8001ee0:	e01c      	b.n	8001f1c <HAL_PCD_EP_SetStall+0xb8>
 8001ee2:	687b      	ldr	r3, [r7, #4]
 8001ee4:	2201      	movs	r2, #1
 8001ee6:	f883 22a8 	strb.w	r2, [r3, #680]	; 0x2a8
 8001eea:	687b      	ldr	r3, [r7, #4]
 8001eec:	681b      	ldr	r3, [r3, #0]
 8001eee:	68f9      	ldr	r1, [r7, #12]
 8001ef0:	4618      	mov	r0, r3
 8001ef2:	f003 fe8f 	bl	8005c14 <USB_EPSetStall>
 8001ef6:	78fb      	ldrb	r3, [r7, #3]
 8001ef8:	f003 0307 	and.w	r3, r3, #7
 8001efc:	2b00      	cmp	r3, #0
 8001efe:	d108      	bne.n	8001f12 <HAL_PCD_EP_SetStall+0xae>
 8001f00:	687b      	ldr	r3, [r7, #4]
 8001f02:	681a      	ldr	r2, [r3, #0]
 8001f04:	687b      	ldr	r3, [r7, #4]
 8001f06:	f503 732c 	add.w	r3, r3, #688	; 0x2b0
 8001f0a:	4619      	mov	r1, r3
 8001f0c:	4610      	mov	r0, r2
 8001f0e:	f003 ffb4 	bl	8005e7a <USB_EP0_OutStart>
 8001f12:	687b      	ldr	r3, [r7, #4]
 8001f14:	2200      	movs	r2, #0
 8001f16:	f883 22a8 	strb.w	r2, [r3, #680]	; 0x2a8
 8001f1a:	2300      	movs	r3, #0
 8001f1c:	4618      	mov	r0, r3
 8001f1e:	3710      	adds	r7, #16
 8001f20:	46bd      	mov	sp, r7
 8001f22:	bd80      	pop	{r7, pc}

08001f24 <HAL_PCD_EP_ClrStall>:
 8001f24:	b580      	push	{r7, lr}
 8001f26:	b084      	sub	sp, #16
 8001f28:	af00      	add	r7, sp, #0
 8001f2a:	6078      	str	r0, [r7, #4]
 8001f2c:	460b      	mov	r3, r1
 8001f2e:	70fb      	strb	r3, [r7, #3]
 8001f30:	78fb      	ldrb	r3, [r7, #3]
 8001f32:	f003 020f 	and.w	r2, r3, #15
 8001f36:	687b      	ldr	r3, [r7, #4]
 8001f38:	685b      	ldr	r3, [r3, #4]
 8001f3a:	429a      	cmp	r2, r3
 8001f3c:	d901      	bls.n	8001f42 <HAL_PCD_EP_ClrStall+0x1e>
 8001f3e:	2301      	movs	r3, #1
 8001f40:	e040      	b.n	8001fc4 <HAL_PCD_EP_ClrStall+0xa0>
 8001f42:	f997 3003 	ldrsb.w	r3, [r7, #3]
 8001f46:	2b00      	cmp	r3, #0
 8001f48:	da0e      	bge.n	8001f68 <HAL_PCD_EP_ClrStall+0x44>
 8001f4a:	78fb      	ldrb	r3, [r7, #3]
 8001f4c:	f003 0307 	and.w	r3, r3, #7
 8001f50:	1c5a      	adds	r2, r3, #1
 8001f52:	4613      	mov	r3, r2
 8001f54:	009b      	lsls	r3, r3, #2
 8001f56:	4413      	add	r3, r2
 8001f58:	00db      	lsls	r3, r3, #3
 8001f5a:	687a      	ldr	r2, [r7, #4]
 8001f5c:	4413      	add	r3, r2
 8001f5e:	60fb      	str	r3, [r7, #12]
 8001f60:	68fb      	ldr	r3, [r7, #12]
 8001f62:	2201      	movs	r2, #1
 8001f64:	705a      	strb	r2, [r3, #1]
 8001f66:	e00e      	b.n	8001f86 <HAL_PCD_EP_ClrStall+0x62>
 8001f68:	78fb      	ldrb	r3, [r7, #3]
 8001f6a:	f003 0207 	and.w	r2, r3, #7
 8001f6e:	4613      	mov	r3, r2
 8001f70:	009b      	lsls	r3, r3, #2
 8001f72:	4413      	add	r3, r2
 8001f74:	00db      	lsls	r3, r3, #3
 8001f76:	f503 73b4 	add.w	r3, r3, #360	; 0x168
 8001f7a:	687a      	ldr	r2, [r7, #4]
 8001f7c:	4413      	add	r3, r2
 8001f7e:	60fb      	str	r3, [r7, #12]
 8001f80:	68fb      	ldr	r3, [r7, #12]
 8001f82:	2200      	movs	r2, #0
 8001f84:	705a      	strb	r2, [r3, #1]
 8001f86:	68fb      	ldr	r3, [r7, #12]
 8001f88:	2200      	movs	r2, #0
 8001f8a:	709a      	strb	r2, [r3, #2]
 8001f8c:	78fb      	ldrb	r3, [r7, #3]
 8001f8e:	f003 0307 	and.w	r3, r3, #7
 8001f92:	b2da      	uxtb	r2, r3
 8001f94:	68fb      	ldr	r3, [r7, #12]
 8001f96:	701a      	strb	r2, [r3, #0]
 8001f98:	687b      	ldr	r3, [r7, #4]
 8001f9a:	f893 32a8 	ldrb.w	r3, [r3, #680]	; 0x2a8
 8001f9e:	2b01      	cmp	r3, #1
 8001fa0:	d101      	bne.n	8001fa6 <HAL_PCD_EP_ClrStall+0x82>
 8001fa2:	2302      	movs	r3, #2
 8001fa4:	e00e      	b.n	8001fc4 <HAL_PCD_EP_ClrStall+0xa0>
 8001fa6:	687b      	ldr	r3, [r7, #4]
 8001fa8:	2201      	movs	r2, #1
 8001faa:	f883 22a8 	strb.w	r2, [r3, #680]	; 0x2a8
 8001fae:	687b      	ldr	r3, [r7, #4]
 8001fb0:	681b      	ldr	r3, [r3, #0]
 8001fb2:	68f9      	ldr	r1, [r7, #12]
 8001fb4:	4618      	mov	r0, r3
 8001fb6:	f003 fe7d 	bl	8005cb4 <USB_EPClearStall>
 8001fba:	687b      	ldr	r3, [r7, #4]
 8001fbc:	2200      	movs	r2, #0
 8001fbe:	f883 22a8 	strb.w	r2, [r3, #680]	; 0x2a8
 8001fc2:	2300      	movs	r3, #0
 8001fc4:	4618      	mov	r0, r3
 8001fc6:	3710      	adds	r7, #16
 8001fc8:	46bd      	mov	sp, r7
 8001fca:	bd80      	pop	{r7, pc}

08001fcc <PCD_EP_ISR_Handler>:
 8001fcc:	b580      	push	{r7, lr}
 8001fce:	b08e      	sub	sp, #56	; 0x38
 8001fd0:	af00      	add	r7, sp, #0
 8001fd2:	6078      	str	r0, [r7, #4]
 8001fd4:	e2df      	b.n	8002596 <PCD_EP_ISR_Handler+0x5ca>
 8001fd6:	687b      	ldr	r3, [r7, #4]
 8001fd8:	681b      	ldr	r3, [r3, #0]
 8001fda:	f8b3 3044 	ldrh.w	r3, [r3, #68]	; 0x44
 8001fde:	85fb      	strh	r3, [r7, #46]	; 0x2e
 8001fe0:	8dfb      	ldrh	r3, [r7, #46]	; 0x2e
 8001fe2:	b2db      	uxtb	r3, r3
 8001fe4:	f003 030f 	and.w	r3, r3, #15
 8001fe8:	f887 302d 	strb.w	r3, [r7, #45]	; 0x2d
 8001fec:	f897 302d 	ldrb.w	r3, [r7, #45]	; 0x2d
 8001ff0:	2b00      	cmp	r3, #0
 8001ff2:	f040 8158 	bne.w	80022a6 <PCD_EP_ISR_Handler+0x2da>
 8001ff6:	8dfb      	ldrh	r3, [r7, #46]	; 0x2e
 8001ff8:	f003 0310 	and.w	r3, r3, #16
 8001ffc:	2b00      	cmp	r3, #0
 8001ffe:	d152      	bne.n	80020a6 <PCD_EP_ISR_Handler+0xda>
 8002000:	687b      	ldr	r3, [r7, #4]
 8002002:	681b      	ldr	r3, [r3, #0]
 8002004:	881b      	ldrh	r3, [r3, #0]
 8002006:	b29b      	uxth	r3, r3
 8002008:	f423 43e1 	bic.w	r3, r3, #28800	; 0x7080
 800200c:	f023 0370 	bic.w	r3, r3, #112	; 0x70
 8002010:	81fb      	strh	r3, [r7, #14]
 8002012:	687b      	ldr	r3, [r7, #4]
 8002014:	681a      	ldr	r2, [r3, #0]
 8002016:	89fb      	ldrh	r3, [r7, #14]
 8002018:	ea6f 4343 	mvn.w	r3, r3, lsl #17
 800201c:	ea6f 4353 	mvn.w	r3, r3, lsr #17
 8002020:	b29b      	uxth	r3, r3
 8002022:	8013      	strh	r3, [r2, #0]
 8002024:	687b      	ldr	r3, [r7, #4]
 8002026:	3328      	adds	r3, #40	; 0x28
 8002028:	627b      	str	r3, [r7, #36]	; 0x24
 800202a:	687b      	ldr	r3, [r7, #4]
 800202c:	681b      	ldr	r3, [r3, #0]
 800202e:	f8b3 3050 	ldrh.w	r3, [r3, #80]	; 0x50
 8002032:	b29b      	uxth	r3, r3
 8002034:	461a      	mov	r2, r3
 8002036:	6a7b      	ldr	r3, [r7, #36]	; 0x24
 8002038:	781b      	ldrb	r3, [r3, #0]
 800203a:	00db      	lsls	r3, r3, #3
 800203c:	4413      	add	r3, r2
 800203e:	3302      	adds	r3, #2
 8002040:	005b      	lsls	r3, r3, #1
 8002042:	687a      	ldr	r2, [r7, #4]
 8002044:	6812      	ldr	r2, [r2, #0]
 8002046:	4413      	add	r3, r2
 8002048:	f503 6380 	add.w	r3, r3, #1024	; 0x400
 800204c:	881b      	ldrh	r3, [r3, #0]
 800204e:	f3c3 0209 	ubfx	r2, r3, #0, #10
 8002052:	6a7b      	ldr	r3, [r7, #36]	; 0x24
 8002054:	61da      	str	r2, [r3, #28]
 8002056:	6a7b      	ldr	r3, [r7, #36]	; 0x24
 8002058:	695a      	ldr	r2, [r3, #20]
 800205a:	6a7b      	ldr	r3, [r7, #36]	; 0x24
 800205c:	69db      	ldr	r3, [r3, #28]
 800205e:	441a      	add	r2, r3
 8002060:	6a7b      	ldr	r3, [r7, #36]	; 0x24
 8002062:	615a      	str	r2, [r3, #20]
 8002064:	2100      	movs	r1, #0
 8002066:	6878      	ldr	r0, [r7, #4]
 8002068:	f005 fcf3 	bl	8007a52 <HAL_PCD_DataInStageCallback>
 800206c:	687b      	ldr	r3, [r7, #4]
 800206e:	f893 3024 	ldrb.w	r3, [r3, #36]	; 0x24
 8002072:	b2db      	uxtb	r3, r3
 8002074:	2b00      	cmp	r3, #0
 8002076:	f000 828e 	beq.w	8002596 <PCD_EP_ISR_Handler+0x5ca>
 800207a:	6a7b      	ldr	r3, [r7, #36]	; 0x24
 800207c:	699b      	ldr	r3, [r3, #24]
 800207e:	2b00      	cmp	r3, #0
 8002080:	f040 8289 	bne.w	8002596 <PCD_EP_ISR_Handler+0x5ca>
 8002084:	687b      	ldr	r3, [r7, #4]
 8002086:	f893 3024 	ldrb.w	r3, [r3, #36]	; 0x24
 800208a:	b2db      	uxtb	r3, r3
 800208c:	f063 037f 	orn	r3, r3, #127	; 0x7f
 8002090:	b2da      	uxtb	r2, r3
 8002092:	687b      	ldr	r3, [r7, #4]
 8002094:	681b      	ldr	r3, [r3, #0]
 8002096:	b292      	uxth	r2, r2
 8002098:	f8a3 204c 	strh.w	r2, [r3, #76]	; 0x4c
 800209c:	687b      	ldr	r3, [r7, #4]
 800209e:	2200      	movs	r2, #0
 80020a0:	f883 2024 	strb.w	r2, [r3, #36]	; 0x24
 80020a4:	e277      	b.n	8002596 <PCD_EP_ISR_Handler+0x5ca>
 80020a6:	687b      	ldr	r3, [r7, #4]
 80020a8:	f503 73b4 	add.w	r3, r3, #360	; 0x168
 80020ac:	627b      	str	r3, [r7, #36]	; 0x24
 80020ae:	687b      	ldr	r3, [r7, #4]
 80020b0:	681b      	ldr	r3, [r3, #0]
 80020b2:	881b      	ldrh	r3, [r3, #0]
 80020b4:	857b      	strh	r3, [r7, #42]	; 0x2a
 80020b6:	8d7b      	ldrh	r3, [r7, #42]	; 0x2a
 80020b8:	f403 6300 	and.w	r3, r3, #2048	; 0x800
 80020bc:	2b00      	cmp	r3, #0
 80020be:	d034      	beq.n	800212a <PCD_EP_ISR_Handler+0x15e>
 80020c0:	687b      	ldr	r3, [r7, #4]
 80020c2:	681b      	ldr	r3, [r3, #0]
 80020c4:	f8b3 3050 	ldrh.w	r3, [r3, #80]	; 0x50
 80020c8:	b29b      	uxth	r3, r3
 80020ca:	461a      	mov	r2, r3
 80020cc:	6a7b      	ldr	r3, [r7, #36]	; 0x24
 80020ce:	781b      	ldrb	r3, [r3, #0]
 80020d0:	00db      	lsls	r3, r3, #3
 80020d2:	4413      	add	r3, r2
 80020d4:	3306      	adds	r3, #6
 80020d6:	005b      	lsls	r3, r3, #1
 80020d8:	687a      	ldr	r2, [r7, #4]
 80020da:	6812      	ldr	r2, [r2, #0]
 80020dc:	4413      	add	r3, r2
 80020de:	f503 6380 	add.w	r3, r3, #1024	; 0x400
 80020e2:	881b      	ldrh	r3, [r3, #0]
 80020e4:	f3c3 0209 	ubfx	r2, r3, #0, #10
 80020e8:	6a7b      	ldr	r3, [r7, #36]	; 0x24
 80020ea:	61da      	str	r2, [r3, #28]
 80020ec:	687b      	ldr	r3, [r7, #4]
 80020ee:	6818      	ldr	r0, [r3, #0]
 80020f0:	687b      	ldr	r3, [r7, #4]
 80020f2:	f503 712c 	add.w	r1, r3, #688	; 0x2b0
 80020f6:	6a7b      	ldr	r3, [r7, #36]	; 0x24
 80020f8:	88da      	ldrh	r2, [r3, #6]
 80020fa:	6a7b      	ldr	r3, [r7, #36]	; 0x24
 80020fc:	69db      	ldr	r3, [r3, #28]
 80020fe:	b29b      	uxth	r3, r3
 8002100:	f003 ff0a 	bl	8005f18 <USB_ReadPMA>
 8002104:	687b      	ldr	r3, [r7, #4]
 8002106:	681b      	ldr	r3, [r3, #0]
 8002108:	881b      	ldrh	r3, [r3, #0]
 800210a:	b29a      	uxth	r2, r3
 800210c:	f640 738f 	movw	r3, #3983	; 0xf8f
 8002110:	4013      	ands	r3, r2
 8002112:	823b      	strh	r3, [r7, #16]
 8002114:	687b      	ldr	r3, [r7, #4]
 8002116:	681b      	ldr	r3, [r3, #0]
 8002118:	8a3a      	ldrh	r2, [r7, #16]
 800211a:	f042 0280 	orr.w	r2, r2, #128	; 0x80
 800211e:	b292      	uxth	r2, r2
 8002120:	801a      	strh	r2, [r3, #0]
 8002122:	6878      	ldr	r0, [r7, #4]
 8002124:	f005 fc68 	bl	80079f8 <HAL_PCD_SetupStageCallback>
 8002128:	e235      	b.n	8002596 <PCD_EP_ISR_Handler+0x5ca>
 800212a:	f9b7 302a 	ldrsh.w	r3, [r7, #42]	; 0x2a
 800212e:	2b00      	cmp	r3, #0
 8002130:	f280 8231 	bge.w	8002596 <PCD_EP_ISR_Handler+0x5ca>
 8002134:	687b      	ldr	r3, [r7, #4]
 8002136:	681b      	ldr	r3, [r3, #0]
 8002138:	881b      	ldrh	r3, [r3, #0]
 800213a:	b29a      	uxth	r2, r3
 800213c:	f640 738f 	movw	r3, #3983	; 0xf8f
 8002140:	4013      	ands	r3, r2
 8002142:	83bb      	strh	r3, [r7, #28]
 8002144:	687b      	ldr	r3, [r7, #4]
 8002146:	681b      	ldr	r3, [r3, #0]
 8002148:	8bba      	ldrh	r2, [r7, #28]
 800214a:	f042 0280 	orr.w	r2, r2, #128	; 0x80
 800214e:	b292      	uxth	r2, r2
 8002150:	801a      	strh	r2, [r3, #0]
 8002152:	687b      	ldr	r3, [r7, #4]
 8002154:	681b      	ldr	r3, [r3, #0]
 8002156:	f8b3 3050 	ldrh.w	r3, [r3, #80]	; 0x50
 800215a:	b29b      	uxth	r3, r3
 800215c:	461a      	mov	r2, r3
 800215e:	6a7b      	ldr	r3, [r7, #36]	; 0x24
 8002160:	781b      	ldrb	r3, [r3, #0]
 8002162:	00db      	lsls	r3, r3, #3
 8002164:	4413      	add	r3, r2
 8002166:	3306      	adds	r3, #6
 8002168:	005b      	lsls	r3, r3, #1
 800216a:	687a      	ldr	r2, [r7, #4]
 800216c:	6812      	ldr	r2, [r2, #0]
 800216e:	4413      	add	r3, r2
 8002170:	f503 6380 	add.w	r3, r3, #1024	; 0x400
 8002174:	881b      	ldrh	r3, [r3, #0]
 8002176:	f3c3 0209 	ubfx	r2, r3, #0, #10
 800217a:	6a7b      	ldr	r3, [r7, #36]	; 0x24
 800217c:	61da      	str	r2, [r3, #28]
 800217e:	6a7b      	ldr	r3, [r7, #36]	; 0x24
 8002180:	69db      	ldr	r3, [r3, #28]
 8002182:	2b00      	cmp	r3, #0
 8002184:	d019      	beq.n	80021ba <PCD_EP_ISR_Handler+0x1ee>
 8002186:	6a7b      	ldr	r3, [r7, #36]	; 0x24
 8002188:	695b      	ldr	r3, [r3, #20]
 800218a:	2b00      	cmp	r3, #0
 800218c:	d015      	beq.n	80021ba <PCD_EP_ISR_Handler+0x1ee>
 800218e:	687b      	ldr	r3, [r7, #4]
 8002190:	6818      	ldr	r0, [r3, #0]
 8002192:	6a7b      	ldr	r3, [r7, #36]	; 0x24
 8002194:	6959      	ldr	r1, [r3, #20]
 8002196:	6a7b      	ldr	r3, [r7, #36]	; 0x24
 8002198:	88da      	ldrh	r2, [r3, #6]
 800219a:	6a7b      	ldr	r3, [r7, #36]	; 0x24
 800219c:	69db      	ldr	r3, [r3, #28]
 800219e:	b29b      	uxth	r3, r3
 80021a0:	f003 feba 	bl	8005f18 <USB_ReadPMA>
 80021a4:	6a7b      	ldr	r3, [r7, #36]	; 0x24
 80021a6:	695a      	ldr	r2, [r3, #20]
 80021a8:	6a7b      	ldr	r3, [r7, #36]	; 0x24
 80021aa:	69db      	ldr	r3, [r3, #28]
 80021ac:	441a      	add	r2, r3
 80021ae:	6a7b      	ldr	r3, [r7, #36]	; 0x24
 80021b0:	615a      	str	r2, [r3, #20]
 80021b2:	2100      	movs	r1, #0
 80021b4:	6878      	ldr	r0, [r7, #4]
 80021b6:	f005 fc31 	bl	8007a1c <HAL_PCD_DataOutStageCallback>
 80021ba:	687b      	ldr	r3, [r7, #4]
 80021bc:	681b      	ldr	r3, [r3, #0]
 80021be:	61bb      	str	r3, [r7, #24]
 80021c0:	687b      	ldr	r3, [r7, #4]
 80021c2:	681b      	ldr	r3, [r3, #0]
 80021c4:	f8b3 3050 	ldrh.w	r3, [r3, #80]	; 0x50
 80021c8:	b29b      	uxth	r3, r3
 80021ca:	461a      	mov	r2, r3
 80021cc:	69bb      	ldr	r3, [r7, #24]
 80021ce:	4413      	add	r3, r2
 80021d0:	61bb      	str	r3, [r7, #24]
 80021d2:	69bb      	ldr	r3, [r7, #24]
 80021d4:	f203 430c 	addw	r3, r3, #1036	; 0x40c
 80021d8:	617b      	str	r3, [r7, #20]
 80021da:	6a7b      	ldr	r3, [r7, #36]	; 0x24
 80021dc:	691b      	ldr	r3, [r3, #16]
 80021de:	2b00      	cmp	r3, #0
 80021e0:	d112      	bne.n	8002208 <PCD_EP_ISR_Handler+0x23c>
 80021e2:	697b      	ldr	r3, [r7, #20]
 80021e4:	881b      	ldrh	r3, [r3, #0]
 80021e6:	b29b      	uxth	r3, r3
 80021e8:	f423 43f8 	bic.w	r3, r3, #31744	; 0x7c00
 80021ec:	b29a      	uxth	r2, r3
 80021ee:	697b      	ldr	r3, [r7, #20]
 80021f0:	801a      	strh	r2, [r3, #0]
 80021f2:	697b      	ldr	r3, [r7, #20]
 80021f4:	881b      	ldrh	r3, [r3, #0]
 80021f6:	b29b      	uxth	r3, r3
 80021f8:	ea6f 4343 	mvn.w	r3, r3, lsl #17
 80021fc:	ea6f 4353 	mvn.w	r3, r3, lsr #17
 8002200:	b29a      	uxth	r2, r3
 8002202:	697b      	ldr	r3, [r7, #20]
 8002204:	801a      	strh	r2, [r3, #0]
 8002206:	e02f      	b.n	8002268 <PCD_EP_ISR_Handler+0x29c>
 8002208:	6a7b      	ldr	r3, [r7, #36]	; 0x24
 800220a:	691b      	ldr	r3, [r3, #16]
 800220c:	2b3e      	cmp	r3, #62	; 0x3e
 800220e:	d813      	bhi.n	8002238 <PCD_EP_ISR_Handler+0x26c>
 8002210:	6a7b      	ldr	r3, [r7, #36]	; 0x24
 8002212:	691b      	ldr	r3, [r3, #16]
 8002214:	085b      	lsrs	r3, r3, #1
 8002216:	633b      	str	r3, [r7, #48]	; 0x30
 8002218:	6a7b      	ldr	r3, [r7, #36]	; 0x24
 800221a:	691b      	ldr	r3, [r3, #16]
 800221c:	f003 0301 	and.w	r3, r3, #1
 8002220:	2b00      	cmp	r3, #0
 8002222:	d002      	beq.n	800222a <PCD_EP_ISR_Handler+0x25e>
 8002224:	6b3b      	ldr	r3, [r7, #48]	; 0x30
 8002226:	3301      	adds	r3, #1
 8002228:	633b      	str	r3, [r7, #48]	; 0x30
 800222a:	6b3b      	ldr	r3, [r7, #48]	; 0x30
 800222c:	b29b      	uxth	r3, r3
 800222e:	029b      	lsls	r3, r3, #10
 8002230:	b29a      	uxth	r2, r3
 8002232:	697b      	ldr	r3, [r7, #20]
 8002234:	801a      	strh	r2, [r3, #0]
 8002236:	e017      	b.n	8002268 <PCD_EP_ISR_Handler+0x29c>
 8002238:	6a7b      	ldr	r3, [r7, #36]	; 0x24
 800223a:	691b      	ldr	r3, [r3, #16]
 800223c:	095b      	lsrs	r3, r3, #5
 800223e:	633b      	str	r3, [r7, #48]	; 0x30
 8002240:	6a7b      	ldr	r3, [r7, #36]	; 0x24
 8002242:	691b      	ldr	r3, [r3, #16]
 8002244:	f003 031f 	and.w	r3, r3, #31
 8002248:	2b00      	cmp	r3, #0
 800224a:	d102      	bne.n	8002252 <PCD_EP_ISR_Handler+0x286>
 800224c:	6b3b      	ldr	r3, [r7, #48]	; 0x30
 800224e:	3b01      	subs	r3, #1
 8002250:	633b      	str	r3, [r7, #48]	; 0x30
 8002252:	6b3b      	ldr	r3, [r7, #48]	; 0x30
 8002254:	b29b      	uxth	r3, r3
 8002256:	029b      	lsls	r3, r3, #10
 8002258:	b29b      	uxth	r3, r3
 800225a:	ea6f 4343 	mvn.w	r3, r3, lsl #17
 800225e:	ea6f 4353 	mvn.w	r3, r3, lsr #17
 8002262:	b29a      	uxth	r2, r3
 8002264:	697b      	ldr	r3, [r7, #20]
 8002266:	801a      	strh	r2, [r3, #0]
 8002268:	687b      	ldr	r3, [r7, #4]
 800226a:	681b      	ldr	r3, [r3, #0]
 800226c:	881b      	ldrh	r3, [r3, #0]
 800226e:	b29b      	uxth	r3, r3
 8002270:	f423 4380 	bic.w	r3, r3, #16384	; 0x4000
 8002274:	f023 0370 	bic.w	r3, r3, #112	; 0x70
 8002278:	827b      	strh	r3, [r7, #18]
 800227a:	8a7b      	ldrh	r3, [r7, #18]
 800227c:	f483 5380 	eor.w	r3, r3, #4096	; 0x1000
 8002280:	827b      	strh	r3, [r7, #18]
 8002282:	8a7b      	ldrh	r3, [r7, #18]
 8002284:	f483 5300 	eor.w	r3, r3, #8192	; 0x2000
 8002288:	827b      	strh	r3, [r7, #18]
 800228a:	687b      	ldr	r3, [r7, #4]
 800228c:	681a      	ldr	r2, [r3, #0]
 800228e:	8a7b      	ldrh	r3, [r7, #18]
 8002290:	f043 437f 	orr.w	r3, r3, #4278190080	; 0xff000000
 8002294:	f443 037f 	orr.w	r3, r3, #16711680	; 0xff0000
 8002298:	f443 4300 	orr.w	r3, r3, #32768	; 0x8000
 800229c:	f043 0380 	orr.w	r3, r3, #128	; 0x80
 80022a0:	b29b      	uxth	r3, r3
 80022a2:	8013      	strh	r3, [r2, #0]
 80022a4:	e177      	b.n	8002596 <PCD_EP_ISR_Handler+0x5ca>
 80022a6:	687b      	ldr	r3, [r7, #4]
 80022a8:	681b      	ldr	r3, [r3, #0]
 80022aa:	461a      	mov	r2, r3
 80022ac:	f897 302d 	ldrb.w	r3, [r7, #45]	; 0x2d
 80022b0:	009b      	lsls	r3, r3, #2
 80022b2:	4413      	add	r3, r2
 80022b4:	881b      	ldrh	r3, [r3, #0]
 80022b6:	857b      	strh	r3, [r7, #42]	; 0x2a
 80022b8:	f9b7 302a 	ldrsh.w	r3, [r7, #42]	; 0x2a
 80022bc:	2b00      	cmp	r3, #0
 80022be:	f280 80ea 	bge.w	8002496 <PCD_EP_ISR_Handler+0x4ca>
 80022c2:	687b      	ldr	r3, [r7, #4]
 80022c4:	681b      	ldr	r3, [r3, #0]
 80022c6:	461a      	mov	r2, r3
 80022c8:	f897 302d 	ldrb.w	r3, [r7, #45]	; 0x2d
 80022cc:	009b      	lsls	r3, r3, #2
 80022ce:	4413      	add	r3, r2
 80022d0:	881b      	ldrh	r3, [r3, #0]
 80022d2:	b29a      	uxth	r2, r3
 80022d4:	f640 738f 	movw	r3, #3983	; 0xf8f
 80022d8:	4013      	ands	r3, r2
 80022da:	853b      	strh	r3, [r7, #40]	; 0x28
 80022dc:	687b      	ldr	r3, [r7, #4]
 80022de:	681b      	ldr	r3, [r3, #0]
 80022e0:	461a      	mov	r2, r3
 80022e2:	f897 302d 	ldrb.w	r3, [r7, #45]	; 0x2d
 80022e6:	009b      	lsls	r3, r3, #2
 80022e8:	4413      	add	r3, r2
 80022ea:	8d3a      	ldrh	r2, [r7, #40]	; 0x28
 80022ec:	f042 0280 	orr.w	r2, r2, #128	; 0x80
 80022f0:	b292      	uxth	r2, r2
 80022f2:	801a      	strh	r2, [r3, #0]
 80022f4:	f897 202d 	ldrb.w	r2, [r7, #45]	; 0x2d
 80022f8:	4613      	mov	r3, r2
 80022fa:	009b      	lsls	r3, r3, #2
 80022fc:	4413      	add	r3, r2
 80022fe:	00db      	lsls	r3, r3, #3
 8002300:	f503 73b4 	add.w	r3, r3, #360	; 0x168
 8002304:	687a      	ldr	r2, [r7, #4]
 8002306:	4413      	add	r3, r2
 8002308:	627b      	str	r3, [r7, #36]	; 0x24
 800230a:	6a7b      	ldr	r3, [r7, #36]	; 0x24
 800230c:	7b1b      	ldrb	r3, [r3, #12]
 800230e:	2b00      	cmp	r3, #0
 8002310:	d122      	bne.n	8002358 <PCD_EP_ISR_Handler+0x38c>
 8002312:	687b      	ldr	r3, [r7, #4]
 8002314:	681b      	ldr	r3, [r3, #0]
 8002316:	f8b3 3050 	ldrh.w	r3, [r3, #80]	; 0x50
 800231a:	b29b      	uxth	r3, r3
 800231c:	461a      	mov	r2, r3
 800231e:	6a7b      	ldr	r3, [r7, #36]	; 0x24
 8002320:	781b      	ldrb	r3, [r3, #0]
 8002322:	00db      	lsls	r3, r3, #3
 8002324:	4413      	add	r3, r2
 8002326:	3306      	adds	r3, #6
 8002328:	005b      	lsls	r3, r3, #1
 800232a:	687a      	ldr	r2, [r7, #4]
 800232c:	6812      	ldr	r2, [r2, #0]
 800232e:	4413      	add	r3, r2
 8002330:	f503 6380 	add.w	r3, r3, #1024	; 0x400
 8002334:	881b      	ldrh	r3, [r3, #0]
 8002336:	f3c3 0309 	ubfx	r3, r3, #0, #10
 800233a:	86fb      	strh	r3, [r7, #54]	; 0x36
 800233c:	8efb      	ldrh	r3, [r7, #54]	; 0x36
 800233e:	2b00      	cmp	r3, #0
 8002340:	f000 8087 	beq.w	8002452 <PCD_EP_ISR_Handler+0x486>
 8002344:	687b      	ldr	r3, [r7, #4]
 8002346:	6818      	ldr	r0, [r3, #0]
 8002348:	6a7b      	ldr	r3, [r7, #36]	; 0x24
 800234a:	6959      	ldr	r1, [r3, #20]
 800234c:	6a7b      	ldr	r3, [r7, #36]	; 0x24
 800234e:	88da      	ldrh	r2, [r3, #6]
 8002350:	8efb      	ldrh	r3, [r7, #54]	; 0x36
 8002352:	f003 fde1 	bl	8005f18 <USB_ReadPMA>
 8002356:	e07c      	b.n	8002452 <PCD_EP_ISR_Handler+0x486>
 8002358:	6a7b      	ldr	r3, [r7, #36]	; 0x24
 800235a:	78db      	ldrb	r3, [r3, #3]
 800235c:	2b02      	cmp	r3, #2
 800235e:	d108      	bne.n	8002372 <PCD_EP_ISR_Handler+0x3a6>
 8002360:	8d7b      	ldrh	r3, [r7, #42]	; 0x2a
 8002362:	461a      	mov	r2, r3
 8002364:	6a79      	ldr	r1, [r7, #36]	; 0x24
 8002366:	6878      	ldr	r0, [r7, #4]
 8002368:	f000 f923 	bl	80025b2 <HAL_PCD_EP_DB_Receive>
 800236c:	4603      	mov	r3, r0
 800236e:	86fb      	strh	r3, [r7, #54]	; 0x36
 8002370:	e06f      	b.n	8002452 <PCD_EP_ISR_Handler+0x486>
 8002372:	687b      	ldr	r3, [r7, #4]
 8002374:	681b      	ldr	r3, [r3, #0]
 8002376:	461a      	mov	r2, r3
 8002378:	6a7b      	ldr	r3, [r7, #36]	; 0x24
 800237a:	781b      	ldrb	r3, [r3, #0]
 800237c:	009b      	lsls	r3, r3, #2
 800237e:	4413      	add	r3, r2
 8002380:	881b      	ldrh	r3, [r3, #0]
 8002382:	b29b      	uxth	r3, r3
 8002384:	f423 43e0 	bic.w	r3, r3, #28672	; 0x7000
 8002388:	f023 0370 	bic.w	r3, r3, #112	; 0x70
 800238c:	847b      	strh	r3, [r7, #34]	; 0x22
 800238e:	687b      	ldr	r3, [r7, #4]
 8002390:	681b      	ldr	r3, [r3, #0]
 8002392:	461a      	mov	r2, r3
 8002394:	6a7b      	ldr	r3, [r7, #36]	; 0x24
 8002396:	781b      	ldrb	r3, [r3, #0]
 8002398:	009b      	lsls	r3, r3, #2
 800239a:	441a      	add	r2, r3
 800239c:	8c7b      	ldrh	r3, [r7, #34]	; 0x22
 800239e:	f043 437f 	orr.w	r3, r3, #4278190080	; 0xff000000
 80023a2:	f443 037f 	orr.w	r3, r3, #16711680	; 0xff0000
 80023a6:	f443 4300 	orr.w	r3, r3, #32768	; 0x8000
 80023aa:	f043 03c0 	orr.w	r3, r3, #192	; 0xc0
 80023ae:	b29b      	uxth	r3, r3
 80023b0:	8013      	strh	r3, [r2, #0]
 80023b2:	687b      	ldr	r3, [r7, #4]
 80023b4:	681b      	ldr	r3, [r3, #0]
 80023b6:	461a      	mov	r2, r3
 80023b8:	6a7b      	ldr	r3, [r7, #36]	; 0x24
 80023ba:	781b      	ldrb	r3, [r3, #0]
 80023bc:	009b      	lsls	r3, r3, #2
 80023be:	4413      	add	r3, r2
 80023c0:	881b      	ldrh	r3, [r3, #0]
 80023c2:	b29b      	uxth	r3, r3
 80023c4:	f403 4380 	and.w	r3, r3, #16384	; 0x4000
 80023c8:	2b00      	cmp	r3, #0
 80023ca:	d021      	beq.n	8002410 <PCD_EP_ISR_Handler+0x444>
 80023cc:	687b      	ldr	r3, [r7, #4]
 80023ce:	681b      	ldr	r3, [r3, #0]
 80023d0:	f8b3 3050 	ldrh.w	r3, [r3, #80]	; 0x50
 80023d4:	b29b      	uxth	r3, r3
 80023d6:	461a      	mov	r2, r3
 80023d8:	6a7b      	ldr	r3, [r7, #36]	; 0x24
 80023da:	781b      	ldrb	r3, [r3, #0]
 80023dc:	00db      	lsls	r3, r3, #3
 80023de:	4413      	add	r3, r2
 80023e0:	3302      	adds	r3, #2
 80023e2:	005b      	lsls	r3, r3, #1
 80023e4:	687a      	ldr	r2, [r7, #4]
 80023e6:	6812      	ldr	r2, [r2, #0]
 80023e8:	4413      	add	r3, r2
 80023ea:	f503 6380 	add.w	r3, r3, #1024	; 0x400
 80023ee:	881b      	ldrh	r3, [r3, #0]
 80023f0:	f3c3 0309 	ubfx	r3, r3, #0, #10
 80023f4:	86fb      	strh	r3, [r7, #54]	; 0x36
 80023f6:	8efb      	ldrh	r3, [r7, #54]	; 0x36
 80023f8:	2b00      	cmp	r3, #0
 80023fa:	d02a      	beq.n	8002452 <PCD_EP_ISR_Handler+0x486>
 80023fc:	687b      	ldr	r3, [r7, #4]
 80023fe:	6818      	ldr	r0, [r3, #0]
 8002400:	6a7b      	ldr	r3, [r7, #36]	; 0x24
 8002402:	6959      	ldr	r1, [r3, #20]
 8002404:	6a7b      	ldr	r3, [r7, #36]	; 0x24
 8002406:	891a      	ldrh	r2, [r3, #8]
 8002408:	8efb      	ldrh	r3, [r7, #54]	; 0x36
 800240a:	f003 fd85 	bl	8005f18 <USB_ReadPMA>
 800240e:	e020      	b.n	8002452 <PCD_EP_ISR_Handler+0x486>
 8002410:	687b      	ldr	r3, [r7, #4]
 8002412:	681b      	ldr	r3, [r3, #0]
 8002414:	f8b3 3050 	ldrh.w	r3, [r3, #80]	; 0x50
 8002418:	b29b      	uxth	r3, r3
 800241a:	461a      	mov	r2, r3
 800241c:	6a7b      	ldr	r3, [r7, #36]	; 0x24
 800241e:	781b      	ldrb	r3, [r3, #0]
 8002420:	00db      	lsls	r3, r3, #3
 8002422:	4413      	add	r3, r2
 8002424:	3306      	adds	r3, #6
 8002426:	005b      	lsls	r3, r3, #1
 8002428:	687a      	ldr	r2, [r7, #4]
 800242a:	6812      	ldr	r2, [r2, #0]
 800242c:	4413      	add	r3, r2
 800242e:	f503 6380 	add.w	r3, r3, #1024	; 0x400
 8002432:	881b      	ldrh	r3, [r3, #0]
 8002434:	f3c3 0309 	ubfx	r3, r3, #0, #10
 8002438:	86fb      	strh	r3, [r7, #54]	; 0x36
 800243a:	8efb      	ldrh	r3, [r7, #54]	; 0x36
 800243c:	2b00      	cmp	r3, #0
 800243e:	d008      	beq.n	8002452 <PCD_EP_ISR_Handler+0x486>
 8002440:	687b      	ldr	r3, [r7, #4]
 8002442:	6818      	ldr	r0, [r3, #0]
 8002444:	6a7b      	ldr	r3, [r7, #36]	; 0x24
 8002446:	6959      	ldr	r1, [r3, #20]
 8002448:	6a7b      	ldr	r3, [r7, #36]	; 0x24
 800244a:	895a      	ldrh	r2, [r3, #10]
 800244c:	8efb      	ldrh	r3, [r7, #54]	; 0x36
 800244e:	f003 fd63 	bl	8005f18 <USB_ReadPMA>
 8002452:	6a7b      	ldr	r3, [r7, #36]	; 0x24
 8002454:	69da      	ldr	r2, [r3, #28]
 8002456:	8efb      	ldrh	r3, [r7, #54]	; 0x36
 8002458:	441a      	add	r2, r3
 800245a:	6a7b      	ldr	r3, [r7, #36]	; 0x24
 800245c:	61da      	str	r2, [r3, #28]
 800245e:	6a7b      	ldr	r3, [r7, #36]	; 0x24
 8002460:	695a      	ldr	r2, [r3, #20]
 8002462:	8efb      	ldrh	r3, [r7, #54]	; 0x36
 8002464:	441a      	add	r2, r3
 8002466:	6a7b      	ldr	r3, [r7, #36]	; 0x24
 8002468:	615a      	str	r2, [r3, #20]
 800246a:	6a7b      	ldr	r3, [r7, #36]	; 0x24
 800246c:	699b      	ldr	r3, [r3, #24]
 800246e:	2b00      	cmp	r3, #0
 8002470:	d004      	beq.n	800247c <PCD_EP_ISR_Handler+0x4b0>
 8002472:	8efa      	ldrh	r2, [r7, #54]	; 0x36
 8002474:	6a7b      	ldr	r3, [r7, #36]	; 0x24
 8002476:	691b      	ldr	r3, [r3, #16]
 8002478:	429a      	cmp	r2, r3
 800247a:	d206      	bcs.n	800248a <PCD_EP_ISR_Handler+0x4be>
 800247c:	6a7b      	ldr	r3, [r7, #36]	; 0x24
 800247e:	781b      	ldrb	r3, [r3, #0]
 8002480:	4619      	mov	r1, r3
 8002482:	6878      	ldr	r0, [r7, #4]
 8002484:	f005 faca 	bl	8007a1c <HAL_PCD_DataOutStageCallback>
 8002488:	e005      	b.n	8002496 <PCD_EP_ISR_Handler+0x4ca>
 800248a:	687b      	ldr	r3, [r7, #4]
 800248c:	681b      	ldr	r3, [r3, #0]
 800248e:	6a79      	ldr	r1, [r7, #36]	; 0x24
 8002490:	4618      	mov	r0, r3
 8002492:	f002 fa9f 	bl	80049d4 <USB_EPStartXfer>
 8002496:	8d7b      	ldrh	r3, [r7, #42]	; 0x2a
 8002498:	f003 0380 	and.w	r3, r3, #128	; 0x80
 800249c:	2b00      	cmp	r3, #0
 800249e:	d07a      	beq.n	8002596 <PCD_EP_ISR_Handler+0x5ca>
 80024a0:	f897 302d 	ldrb.w	r3, [r7, #45]	; 0x2d
 80024a4:	1c5a      	adds	r2, r3, #1
 80024a6:	4613      	mov	r3, r2
 80024a8:	009b      	lsls	r3, r3, #2
 80024aa:	4413      	add	r3, r2
 80024ac:	00db      	lsls	r3, r3, #3
 80024ae:	687a      	ldr	r2, [r7, #4]
 80024b0:	4413      	add	r3, r2
 80024b2:	627b      	str	r3, [r7, #36]	; 0x24
 80024b4:	687b      	ldr	r3, [r7, #4]
 80024b6:	681b      	ldr	r3, [r3, #0]
 80024b8:	461a      	mov	r2, r3
 80024ba:	f897 302d 	ldrb.w	r3, [r7, #45]	; 0x2d
 80024be:	009b      	lsls	r3, r3, #2
 80024c0:	4413      	add	r3, r2
 80024c2:	881b      	ldrh	r3, [r3, #0]
 80024c4:	b29b      	uxth	r3, r3
 80024c6:	f423 43e1 	bic.w	r3, r3, #28800	; 0x7080
 80024ca:	f023 0370 	bic.w	r3, r3, #112	; 0x70
 80024ce:	843b      	strh	r3, [r7, #32]
 80024d0:	687b      	ldr	r3, [r7, #4]
 80024d2:	681b      	ldr	r3, [r3, #0]
 80024d4:	461a      	mov	r2, r3
 80024d6:	f897 302d 	ldrb.w	r3, [r7, #45]	; 0x2d
 80024da:	009b      	lsls	r3, r3, #2
 80024dc:	441a      	add	r2, r3
 80024de:	8c3b      	ldrh	r3, [r7, #32]
 80024e0:	ea6f 4343 	mvn.w	r3, r3, lsl #17
 80024e4:	ea6f 4353 	mvn.w	r3, r3, lsr #17
 80024e8:	b29b      	uxth	r3, r3
 80024ea:	8013      	strh	r3, [r2, #0]
 80024ec:	6a7b      	ldr	r3, [r7, #36]	; 0x24
 80024ee:	78db      	ldrb	r3, [r3, #3]
 80024f0:	2b02      	cmp	r3, #2
 80024f2:	d108      	bne.n	8002506 <PCD_EP_ISR_Handler+0x53a>
 80024f4:	6a7b      	ldr	r3, [r7, #36]	; 0x24
 80024f6:	78db      	ldrb	r3, [r3, #3]
 80024f8:	2b02      	cmp	r3, #2
 80024fa:	d146      	bne.n	800258a <PCD_EP_ISR_Handler+0x5be>
 80024fc:	8d7b      	ldrh	r3, [r7, #42]	; 0x2a
 80024fe:	f403 7380 	and.w	r3, r3, #256	; 0x100
 8002502:	2b00      	cmp	r3, #0
 8002504:	d141      	bne.n	800258a <PCD_EP_ISR_Handler+0x5be>
 8002506:	687b      	ldr	r3, [r7, #4]
 8002508:	681b      	ldr	r3, [r3, #0]
 800250a:	f8b3 3050 	ldrh.w	r3, [r3, #80]	; 0x50
 800250e:	b29b      	uxth	r3, r3
 8002510:	461a      	mov	r2, r3
 8002512:	6a7b      	ldr	r3, [r7, #36]	; 0x24
 8002514:	781b      	ldrb	r3, [r3, #0]
 8002516:	00db      	lsls	r3, r3, #3
 8002518:	4413      	add	r3, r2
 800251a:	3302      	adds	r3, #2
 800251c:	005b      	lsls	r3, r3, #1
 800251e:	687a      	ldr	r2, [r7, #4]
 8002520:	6812      	ldr	r2, [r2, #0]
 8002522:	4413      	add	r3, r2
 8002524:	f503 6380 	add.w	r3, r3, #1024	; 0x400
 8002528:	881b      	ldrh	r3, [r3, #0]
 800252a:	f3c3 0309 	ubfx	r3, r3, #0, #10
 800252e:	83fb      	strh	r3, [r7, #30]
 8002530:	6a7b      	ldr	r3, [r7, #36]	; 0x24
 8002532:	699a      	ldr	r2, [r3, #24]
 8002534:	8bfb      	ldrh	r3, [r7, #30]
 8002536:	429a      	cmp	r2, r3
 8002538:	d906      	bls.n	8002548 <PCD_EP_ISR_Handler+0x57c>
 800253a:	6a7b      	ldr	r3, [r7, #36]	; 0x24
 800253c:	699a      	ldr	r2, [r3, #24]
 800253e:	8bfb      	ldrh	r3, [r7, #30]
 8002540:	1ad2      	subs	r2, r2, r3
 8002542:	6a7b      	ldr	r3, [r7, #36]	; 0x24
 8002544:	619a      	str	r2, [r3, #24]
 8002546:	e002      	b.n	800254e <PCD_EP_ISR_Handler+0x582>
 8002548:	6a7b      	ldr	r3, [r7, #36]	; 0x24
 800254a:	2200      	movs	r2, #0
 800254c:	619a      	str	r2, [r3, #24]
 800254e:	6a7b      	ldr	r3, [r7, #36]	; 0x24
 8002550:	699b      	ldr	r3, [r3, #24]
 8002552:	2b00      	cmp	r3, #0
 8002554:	d106      	bne.n	8002564 <PCD_EP_ISR_Handler+0x598>
 8002556:	6a7b      	ldr	r3, [r7, #36]	; 0x24
 8002558:	781b      	ldrb	r3, [r3, #0]
 800255a:	4619      	mov	r1, r3
 800255c:	6878      	ldr	r0, [r7, #4]
 800255e:	f005 fa78 	bl	8007a52 <HAL_PCD_DataInStageCallback>
 8002562:	e018      	b.n	8002596 <PCD_EP_ISR_Handler+0x5ca>
 8002564:	6a7b      	ldr	r3, [r7, #36]	; 0x24
 8002566:	695a      	ldr	r2, [r3, #20]
 8002568:	8bfb      	ldrh	r3, [r7, #30]
 800256a:	441a      	add	r2, r3
 800256c:	6a7b      	ldr	r3, [r7, #36]	; 0x24
 800256e:	615a      	str	r2, [r3, #20]
 8002570:	6a7b      	ldr	r3, [r7, #36]	; 0x24
 8002572:	69da      	ldr	r2, [r3, #28]
 8002574:	8bfb      	ldrh	r3, [r7, #30]
 8002576:	441a      	add	r2, r3
 8002578:	6a7b      	ldr	r3, [r7, #36]	; 0x24
 800257a:	61da      	str	r2, [r3, #28]
 800257c:	687b      	ldr	r3, [r7, #4]
 800257e:	681b      	ldr	r3, [r3, #0]
 8002580:	6a79      	ldr	r1, [r7, #36]	; 0x24
 8002582:	4618      	mov	r0, r3
 8002584:	f002 fa26 	bl	80049d4 <USB_EPStartXfer>
 8002588:	e005      	b.n	8002596 <PCD_EP_ISR_Handler+0x5ca>
 800258a:	8d7b      	ldrh	r3, [r7, #42]	; 0x2a
 800258c:	461a      	mov	r2, r3
 800258e:	6a79      	ldr	r1, [r7, #36]	; 0x24
 8002590:	6878      	ldr	r0, [r7, #4]
 8002592:	f000 f91b 	bl	80027cc <HAL_PCD_EP_DB_Transmit>
 8002596:	687b      	ldr	r3, [r7, #4]
 8002598:	681b      	ldr	r3, [r3, #0]
 800259a:	f8b3 3044 	ldrh.w	r3, [r3, #68]	; 0x44
 800259e:	b29b      	uxth	r3, r3
 80025a0:	b21b      	sxth	r3, r3
 80025a2:	2b00      	cmp	r3, #0
 80025a4:	f6ff ad17 	blt.w	8001fd6 <PCD_EP_ISR_Handler+0xa>
 80025a8:	2300      	movs	r3, #0
 80025aa:	4618      	mov	r0, r3
 80025ac:	3738      	adds	r7, #56	; 0x38
 80025ae:	46bd      	mov	sp, r7
 80025b0:	bd80      	pop	{r7, pc}

080025b2 <HAL_PCD_EP_DB_Receive>:
 80025b2:	b580      	push	{r7, lr}
 80025b4:	b088      	sub	sp, #32
 80025b6:	af00      	add	r7, sp, #0
 80025b8:	60f8      	str	r0, [r7, #12]
 80025ba:	60b9      	str	r1, [r7, #8]
 80025bc:	4613      	mov	r3, r2
 80025be:	80fb      	strh	r3, [r7, #6]
 80025c0:	88fb      	ldrh	r3, [r7, #6]
 80025c2:	f403 4380 	and.w	r3, r3, #16384	; 0x4000
 80025c6:	2b00      	cmp	r3, #0
 80025c8:	d07e      	beq.n	80026c8 <HAL_PCD_EP_DB_Receive+0x116>
 80025ca:	68fb      	ldr	r3, [r7, #12]
 80025cc:	681b      	ldr	r3, [r3, #0]
 80025ce:	f8b3 3050 	ldrh.w	r3, [r3, #80]	; 0x50
 80025d2:	b29b      	uxth	r3, r3
 80025d4:	461a      	mov	r2, r3
 80025d6:	68bb      	ldr	r3, [r7, #8]
 80025d8:	781b      	ldrb	r3, [r3, #0]
 80025da:	00db      	lsls	r3, r3, #3
 80025dc:	4413      	add	r3, r2
 80025de:	3302      	adds	r3, #2
 80025e0:	005b      	lsls	r3, r3, #1
 80025e2:	68fa      	ldr	r2, [r7, #12]
 80025e4:	6812      	ldr	r2, [r2, #0]
 80025e6:	4413      	add	r3, r2
 80025e8:	f503 6380 	add.w	r3, r3, #1024	; 0x400
 80025ec:	881b      	ldrh	r3, [r3, #0]
 80025ee:	f3c3 0309 	ubfx	r3, r3, #0, #10
 80025f2:	837b      	strh	r3, [r7, #26]
 80025f4:	68bb      	ldr	r3, [r7, #8]
 80025f6:	699a      	ldr	r2, [r3, #24]
 80025f8:	8b7b      	ldrh	r3, [r7, #26]
 80025fa:	429a      	cmp	r2, r3
 80025fc:	d306      	bcc.n	800260c <HAL_PCD_EP_DB_Receive+0x5a>
 80025fe:	68bb      	ldr	r3, [r7, #8]
 8002600:	699a      	ldr	r2, [r3, #24]
 8002602:	8b7b      	ldrh	r3, [r7, #26]
 8002604:	1ad2      	subs	r2, r2, r3
 8002606:	68bb      	ldr	r3, [r7, #8]
 8002608:	619a      	str	r2, [r3, #24]
 800260a:	e002      	b.n	8002612 <HAL_PCD_EP_DB_Receive+0x60>
 800260c:	68bb      	ldr	r3, [r7, #8]
 800260e:	2200      	movs	r2, #0
 8002610:	619a      	str	r2, [r3, #24]
 8002612:	68bb      	ldr	r3, [r7, #8]
 8002614:	699b      	ldr	r3, [r3, #24]
 8002616:	2b00      	cmp	r3, #0
 8002618:	d123      	bne.n	8002662 <HAL_PCD_EP_DB_Receive+0xb0>
 800261a:	68fb      	ldr	r3, [r7, #12]
 800261c:	681b      	ldr	r3, [r3, #0]
 800261e:	461a      	mov	r2, r3
 8002620:	68bb      	ldr	r3, [r7, #8]
 8002622:	781b      	ldrb	r3, [r3, #0]
 8002624:	009b      	lsls	r3, r3, #2
 8002626:	4413      	add	r3, r2
 8002628:	881b      	ldrh	r3, [r3, #0]
 800262a:	b29b      	uxth	r3, r3
 800262c:	f423 4380 	bic.w	r3, r3, #16384	; 0x4000
 8002630:	f023 0370 	bic.w	r3, r3, #112	; 0x70
 8002634:	833b      	strh	r3, [r7, #24]
 8002636:	8b3b      	ldrh	r3, [r7, #24]
 8002638:	f483 5300 	eor.w	r3, r3, #8192	; 0x2000
 800263c:	833b      	strh	r3, [r7, #24]
 800263e:	68fb      	ldr	r3, [r7, #12]
 8002640:	681b      	ldr	r3, [r3, #0]
 8002642:	461a      	mov	r2, r3
 8002644:	68bb      	ldr	r3, [r7, #8]
 8002646:	781b      	ldrb	r3, [r3, #0]
 8002648:	009b      	lsls	r3, r3, #2
 800264a:	441a      	add	r2, r3
 800264c:	8b3b      	ldrh	r3, [r7, #24]
 800264e:	f043 437f 	orr.w	r3, r3, #4278190080	; 0xff000000
 8002652:	f443 037f 	orr.w	r3, r3, #16711680	; 0xff0000
 8002656:	f443 4300 	orr.w	r3, r3, #32768	; 0x8000
 800265a:	f043 0380 	orr.w	r3, r3, #128	; 0x80
 800265e:	b29b      	uxth	r3, r3
 8002660:	8013      	strh	r3, [r2, #0]
 8002662:	88fb      	ldrh	r3, [r7, #6]
 8002664:	f003 0340 	and.w	r3, r3, #64	; 0x40
 8002668:	2b00      	cmp	r3, #0
 800266a:	d01f      	beq.n	80026ac <HAL_PCD_EP_DB_Receive+0xfa>
 800266c:	68fb      	ldr	r3, [r7, #12]
 800266e:	681b      	ldr	r3, [r3, #0]
 8002670:	461a      	mov	r2, r3
 8002672:	68bb      	ldr	r3, [r7, #8]
 8002674:	781b      	ldrb	r3, [r3, #0]
 8002676:	009b      	lsls	r3, r3, #2
 8002678:	4413      	add	r3, r2
 800267a:	881b      	ldrh	r3, [r3, #0]
 800267c:	b29b      	uxth	r3, r3
 800267e:	f423 43e0 	bic.w	r3, r3, #28672	; 0x7000
 8002682:	f023 0370 	bic.w	r3, r3, #112	; 0x70
 8002686:	82fb      	strh	r3, [r7, #22]
 8002688:	68fb      	ldr	r3, [r7, #12]
 800268a:	681b      	ldr	r3, [r3, #0]
 800268c:	461a      	mov	r2, r3
 800268e:	68bb      	ldr	r3, [r7, #8]
 8002690:	781b      	ldrb	r3, [r3, #0]
 8002692:	009b      	lsls	r3, r3, #2
 8002694:	441a      	add	r2, r3
 8002696:	8afb      	ldrh	r3, [r7, #22]
 8002698:	f043 437f 	orr.w	r3, r3, #4278190080	; 0xff000000
 800269c:	f443 037f 	orr.w	r3, r3, #16711680	; 0xff0000
 80026a0:	f443 4300 	orr.w	r3, r3, #32768	; 0x8000
 80026a4:	f043 03c0 	orr.w	r3, r3, #192	; 0xc0
 80026a8:	b29b      	uxth	r3, r3
 80026aa:	8013      	strh	r3, [r2, #0]
 80026ac:	8b7b      	ldrh	r3, [r7, #26]
 80026ae:	2b00      	cmp	r3, #0
 80026b0:	f000 8087 	beq.w	80027c2 <HAL_PCD_EP_DB_Receive+0x210>
 80026b4:	68fb      	ldr	r3, [r7, #12]
 80026b6:	6818      	ldr	r0, [r3, #0]
 80026b8:	68bb      	ldr	r3, [r7, #8]
 80026ba:	6959      	ldr	r1, [r3, #20]
 80026bc:	68bb      	ldr	r3, [r7, #8]
 80026be:	891a      	ldrh	r2, [r3, #8]
 80026c0:	8b7b      	ldrh	r3, [r7, #26]
 80026c2:	f003 fc29 	bl	8005f18 <USB_ReadPMA>
 80026c6:	e07c      	b.n	80027c2 <HAL_PCD_EP_DB_Receive+0x210>
 80026c8:	68fb      	ldr	r3, [r7, #12]
 80026ca:	681b      	ldr	r3, [r3, #0]
 80026cc:	f8b3 3050 	ldrh.w	r3, [r3, #80]	; 0x50
 80026d0:	b29b      	uxth	r3, r3
 80026d2:	461a      	mov	r2, r3
 80026d4:	68bb      	ldr	r3, [r7, #8]
 80026d6:	781b      	ldrb	r3, [r3, #0]
 80026d8:	00db      	lsls	r3, r3, #3
 80026da:	4413      	add	r3, r2
 80026dc:	3306      	adds	r3, #6
 80026de:	005b      	lsls	r3, r3, #1
 80026e0:	68fa      	ldr	r2, [r7, #12]
 80026e2:	6812      	ldr	r2, [r2, #0]
 80026e4:	4413      	add	r3, r2
 80026e6:	f503 6380 	add.w	r3, r3, #1024	; 0x400
 80026ea:	881b      	ldrh	r3, [r3, #0]
 80026ec:	f3c3 0309 	ubfx	r3, r3, #0, #10
 80026f0:	837b      	strh	r3, [r7, #26]
 80026f2:	68bb      	ldr	r3, [r7, #8]
 80026f4:	699a      	ldr	r2, [r3, #24]
 80026f6:	8b7b      	ldrh	r3, [r7, #26]
 80026f8:	429a      	cmp	r2, r3
 80026fa:	d306      	bcc.n	800270a <HAL_PCD_EP_DB_Receive+0x158>
 80026fc:	68bb      	ldr	r3, [r7, #8]
 80026fe:	699a      	ldr	r2, [r3, #24]
 8002700:	8b7b      	ldrh	r3, [r7, #26]
 8002702:	1ad2      	subs	r2, r2, r3
 8002704:	68bb      	ldr	r3, [r7, #8]
 8002706:	619a      	str	r2, [r3, #24]
 8002708:	e002      	b.n	8002710 <HAL_PCD_EP_DB_Receive+0x15e>
 800270a:	68bb      	ldr	r3, [r7, #8]
 800270c:	2200      	movs	r2, #0
 800270e:	619a      	str	r2, [r3, #24]
 8002710:	68bb      	ldr	r3, [r7, #8]
 8002712:	699b      	ldr	r3, [r3, #24]
 8002714:	2b00      	cmp	r3, #0
 8002716:	d123      	bne.n	8002760 <HAL_PCD_EP_DB_Receive+0x1ae>
 8002718:	68fb      	ldr	r3, [r7, #12]
 800271a:	681b      	ldr	r3, [r3, #0]
 800271c:	461a      	mov	r2, r3
 800271e:	68bb      	ldr	r3, [r7, #8]
 8002720:	781b      	ldrb	r3, [r3, #0]
 8002722:	009b      	lsls	r3, r3, #2
 8002724:	4413      	add	r3, r2
 8002726:	881b      	ldrh	r3, [r3, #0]
 8002728:	b29b      	uxth	r3, r3
 800272a:	f423 4380 	bic.w	r3, r3, #16384	; 0x4000
 800272e:	f023 0370 	bic.w	r3, r3, #112	; 0x70
 8002732:	83fb      	strh	r3, [r7, #30]
 8002734:	8bfb      	ldrh	r3, [r7, #30]
 8002736:	f483 5300 	eor.w	r3, r3, #8192	; 0x2000
 800273a:	83fb      	strh	r3, [r7, #30]
 800273c:	68fb      	ldr	r3, [r7, #12]
 800273e:	681b      	ldr	r3, [r3, #0]
 8002740:	461a      	mov	r2, r3
 8002742:	68bb      	ldr	r3, [r7, #8]
 8002744:	781b      	ldrb	r3, [r3, #0]
 8002746:	009b      	lsls	r3, r3, #2
 8002748:	441a      	add	r2, r3
 800274a:	8bfb      	ldrh	r3, [r7, #30]
 800274c:	f043 437f 	orr.w	r3, r3, #4278190080	; 0xff000000
 8002750:	f443 037f 	orr.w	r3, r3, #16711680	; 0xff0000
 8002754:	f443 4300 	orr.w	r3, r3, #32768	; 0x8000
 8002758:	f043 0380 	orr.w	r3, r3, #128	; 0x80
 800275c:	b29b      	uxth	r3, r3
 800275e:	8013      	strh	r3, [r2, #0]
 8002760:	88fb      	ldrh	r3, [r7, #6]
 8002762:	f003 0340 	and.w	r3, r3, #64	; 0x40
 8002766:	2b00      	cmp	r3, #0
 8002768:	d11f      	bne.n	80027aa <HAL_PCD_EP_DB_Receive+0x1f8>
 800276a:	68fb      	ldr	r3, [r7, #12]
 800276c:	681b      	ldr	r3, [r3, #0]
 800276e:	461a      	mov	r2, r3
 8002770:	68bb      	ldr	r3, [r7, #8]
 8002772:	781b      	ldrb	r3, [r3, #0]
 8002774:	009b      	lsls	r3, r3, #2
 8002776:	4413      	add	r3, r2
 8002778:	881b      	ldrh	r3, [r3, #0]
 800277a:	b29b      	uxth	r3, r3
 800277c:	f423 43e0 	bic.w	r3, r3, #28672	; 0x7000
 8002780:	f023 0370 	bic.w	r3, r3, #112	; 0x70
 8002784:	83bb      	strh	r3, [r7, #28]
 8002786:	68fb      	ldr	r3, [r7, #12]
 8002788:	681b      	ldr	r3, [r3, #0]
 800278a:	461a      	mov	r2, r3
 800278c:	68bb      	ldr	r3, [r7, #8]
 800278e:	781b      	ldrb	r3, [r3, #0]
 8002790:	009b      	lsls	r3, r3, #2
 8002792:	441a      	add	r2, r3
 8002794:	8bbb      	ldrh	r3, [r7, #28]
 8002796:	f043 437f 	orr.w	r3, r3, #4278190080	; 0xff000000
 800279a:	f443 037f 	orr.w	r3, r3, #16711680	; 0xff0000
 800279e:	f443 4300 	orr.w	r3, r3, #32768	; 0x8000
 80027a2:	f043 03c0 	orr.w	r3, r3, #192	; 0xc0
 80027a6:	b29b      	uxth	r3, r3
 80027a8:	8013      	strh	r3, [r2, #0]
 80027aa:	8b7b      	ldrh	r3, [r7, #26]
 80027ac:	2b00      	cmp	r3, #0
 80027ae:	d008      	beq.n	80027c2 <HAL_PCD_EP_DB_Receive+0x210>
 80027b0:	68fb      	ldr	r3, [r7, #12]
 80027b2:	6818      	ldr	r0, [r3, #0]
 80027b4:	68bb      	ldr	r3, [r7, #8]
 80027b6:	6959      	ldr	r1, [r3, #20]
 80027b8:	68bb      	ldr	r3, [r7, #8]
 80027ba:	895a      	ldrh	r2, [r3, #10]
 80027bc:	8b7b      	ldrh	r3, [r7, #26]
 80027be:	f003 fbab 	bl	8005f18 <USB_ReadPMA>
 80027c2:	8b7b      	ldrh	r3, [r7, #26]
 80027c4:	4618      	mov	r0, r3
 80027c6:	3720      	adds	r7, #32
 80027c8:	46bd      	mov	sp, r7
 80027ca:	bd80      	pop	{r7, pc}

080027cc <HAL_PCD_EP_DB_Transmit>:
 80027cc:	b580      	push	{r7, lr}
 80027ce:	b092      	sub	sp, #72	; 0x48
 80027d0:	af00      	add	r7, sp, #0
 80027d2:	60f8      	str	r0, [r7, #12]
 80027d4:	60b9      	str	r1, [r7, #8]
 80027d6:	4613      	mov	r3, r2
 80027d8:	80fb      	strh	r3, [r7, #6]
 80027da:	88fb      	ldrh	r3, [r7, #6]
 80027dc:	f003 0340 	and.w	r3, r3, #64	; 0x40
 80027e0:	2b00      	cmp	r3, #0
 80027e2:	f000 8132 	beq.w	8002a4a <HAL_PCD_EP_DB_Transmit+0x27e>
 80027e6:	68fb      	ldr	r3, [r7, #12]
 80027e8:	681b      	ldr	r3, [r3, #0]
 80027ea:	f8b3 3050 	ldrh.w	r3, [r3, #80]	; 0x50
 80027ee:	b29b      	uxth	r3, r3
 80027f0:	461a      	mov	r2, r3
 80027f2:	68bb      	ldr	r3, [r7, #8]
 80027f4:	781b      	ldrb	r3, [r3, #0]
 80027f6:	00db      	lsls	r3, r3, #3
 80027f8:	4413      	add	r3, r2
 80027fa:	3302      	adds	r3, #2
 80027fc:	005b      	lsls	r3, r3, #1
 80027fe:	68fa      	ldr	r2, [r7, #12]
 8002800:	6812      	ldr	r2, [r2, #0]
 8002802:	4413      	add	r3, r2
 8002804:	f503 6380 	add.w	r3, r3, #1024	; 0x400
 8002808:	881b      	ldrh	r3, [r3, #0]
 800280a:	f3c3 0309 	ubfx	r3, r3, #0, #10
 800280e:	85fb      	strh	r3, [r7, #46]	; 0x2e
 8002810:	68bb      	ldr	r3, [r7, #8]
 8002812:	699a      	ldr	r2, [r3, #24]
 8002814:	8dfb      	ldrh	r3, [r7, #46]	; 0x2e
 8002816:	429a      	cmp	r2, r3
 8002818:	d906      	bls.n	8002828 <HAL_PCD_EP_DB_Transmit+0x5c>
 800281a:	68bb      	ldr	r3, [r7, #8]
 800281c:	699a      	ldr	r2, [r3, #24]
 800281e:	8dfb      	ldrh	r3, [r7, #46]	; 0x2e
 8002820:	1ad2      	subs	r2, r2, r3
 8002822:	68bb      	ldr	r3, [r7, #8]
 8002824:	619a      	str	r2, [r3, #24]
 8002826:	e002      	b.n	800282e <HAL_PCD_EP_DB_Transmit+0x62>
 8002828:	68bb      	ldr	r3, [r7, #8]
 800282a:	2200      	movs	r2, #0
 800282c:	619a      	str	r2, [r3, #24]
 800282e:	68bb      	ldr	r3, [r7, #8]
 8002830:	699b      	ldr	r3, [r3, #24]
 8002832:	2b00      	cmp	r3, #0
 8002834:	d12c      	bne.n	8002890 <HAL_PCD_EP_DB_Transmit+0xc4>
 8002836:	68bb      	ldr	r3, [r7, #8]
 8002838:	781b      	ldrb	r3, [r3, #0]
 800283a:	4619      	mov	r1, r3
 800283c:	68f8      	ldr	r0, [r7, #12]
 800283e:	f005 f908 	bl	8007a52 <HAL_PCD_DataInStageCallback>
 8002842:	88fb      	ldrh	r3, [r7, #6]
 8002844:	f403 4380 	and.w	r3, r3, #16384	; 0x4000
 8002848:	2b00      	cmp	r3, #0
 800284a:	f000 822f 	beq.w	8002cac <HAL_PCD_EP_DB_Transmit+0x4e0>
 800284e:	68fb      	ldr	r3, [r7, #12]
 8002850:	681b      	ldr	r3, [r3, #0]
 8002852:	461a      	mov	r2, r3
 8002854:	68bb      	ldr	r3, [r7, #8]
 8002856:	781b      	ldrb	r3, [r3, #0]
 8002858:	009b      	lsls	r3, r3, #2
 800285a:	4413      	add	r3, r2
 800285c:	881b      	ldrh	r3, [r3, #0]
 800285e:	b29b      	uxth	r3, r3
 8002860:	f423 43e0 	bic.w	r3, r3, #28672	; 0x7000
 8002864:	f023 0370 	bic.w	r3, r3, #112	; 0x70
 8002868:	827b      	strh	r3, [r7, #18]
 800286a:	68fb      	ldr	r3, [r7, #12]
 800286c:	681b      	ldr	r3, [r3, #0]
 800286e:	461a      	mov	r2, r3
 8002870:	68bb      	ldr	r3, [r7, #8]
 8002872:	781b      	ldrb	r3, [r3, #0]
 8002874:	009b      	lsls	r3, r3, #2
 8002876:	441a      	add	r2, r3
 8002878:	8a7b      	ldrh	r3, [r7, #18]
 800287a:	f043 437f 	orr.w	r3, r3, #4278190080	; 0xff000000
 800287e:	f443 037f 	orr.w	r3, r3, #16711680	; 0xff0000
 8002882:	f443 4340 	orr.w	r3, r3, #49152	; 0xc000
 8002886:	f043 0380 	orr.w	r3, r3, #128	; 0x80
 800288a:	b29b      	uxth	r3, r3
 800288c:	8013      	strh	r3, [r2, #0]
 800288e:	e20d      	b.n	8002cac <HAL_PCD_EP_DB_Transmit+0x4e0>
 8002890:	88fb      	ldrh	r3, [r7, #6]
 8002892:	f403 4380 	and.w	r3, r3, #16384	; 0x4000
 8002896:	2b00      	cmp	r3, #0
 8002898:	d01f      	beq.n	80028da <HAL_PCD_EP_DB_Transmit+0x10e>
 800289a:	68fb      	ldr	r3, [r7, #12]
 800289c:	681b      	ldr	r3, [r3, #0]
 800289e:	461a      	mov	r2, r3
 80028a0:	68bb      	ldr	r3, [r7, #8]
 80028a2:	781b      	ldrb	r3, [r3, #0]
 80028a4:	009b      	lsls	r3, r3, #2
 80028a6:	4413      	add	r3, r2
 80028a8:	881b      	ldrh	r3, [r3, #0]
 80028aa:	b29b      	uxth	r3, r3
 80028ac:	f423 43e0 	bic.w	r3, r3, #28672	; 0x7000
 80028b0:	f023 0370 	bic.w	r3, r3, #112	; 0x70
 80028b4:	84bb      	strh	r3, [r7, #36]	; 0x24
 80028b6:	68fb      	ldr	r3, [r7, #12]
 80028b8:	681b      	ldr	r3, [r3, #0]
 80028ba:	461a      	mov	r2, r3
 80028bc:	68bb      	ldr	r3, [r7, #8]
 80028be:	781b      	ldrb	r3, [r3, #0]
 80028c0:	009b      	lsls	r3, r3, #2
 80028c2:	441a      	add	r2, r3
 80028c4:	8cbb      	ldrh	r3, [r7, #36]	; 0x24
 80028c6:	f043 437f 	orr.w	r3, r3, #4278190080	; 0xff000000
 80028ca:	f443 037f 	orr.w	r3, r3, #16711680	; 0xff0000
 80028ce:	f443 4340 	orr.w	r3, r3, #49152	; 0xc000
 80028d2:	f043 0380 	orr.w	r3, r3, #128	; 0x80
 80028d6:	b29b      	uxth	r3, r3
 80028d8:	8013      	strh	r3, [r2, #0]
 80028da:	68bb      	ldr	r3, [r7, #8]
 80028dc:	f893 3024 	ldrb.w	r3, [r3, #36]	; 0x24
 80028e0:	2b01      	cmp	r3, #1
 80028e2:	f040 81e3 	bne.w	8002cac <HAL_PCD_EP_DB_Transmit+0x4e0>
 80028e6:	68bb      	ldr	r3, [r7, #8]
 80028e8:	695a      	ldr	r2, [r3, #20]
 80028ea:	8dfb      	ldrh	r3, [r7, #46]	; 0x2e
 80028ec:	441a      	add	r2, r3
 80028ee:	68bb      	ldr	r3, [r7, #8]
 80028f0:	615a      	str	r2, [r3, #20]
 80028f2:	68bb      	ldr	r3, [r7, #8]
 80028f4:	69da      	ldr	r2, [r3, #28]
 80028f6:	8dfb      	ldrh	r3, [r7, #46]	; 0x2e
 80028f8:	441a      	add	r2, r3
 80028fa:	68bb      	ldr	r3, [r7, #8]
 80028fc:	61da      	str	r2, [r3, #28]
 80028fe:	68bb      	ldr	r3, [r7, #8]
 8002900:	6a1a      	ldr	r2, [r3, #32]
 8002902:	68bb      	ldr	r3, [r7, #8]
 8002904:	691b      	ldr	r3, [r3, #16]
 8002906:	429a      	cmp	r2, r3
 8002908:	d309      	bcc.n	800291e <HAL_PCD_EP_DB_Transmit+0x152>
 800290a:	68bb      	ldr	r3, [r7, #8]
 800290c:	691b      	ldr	r3, [r3, #16]
 800290e:	63bb      	str	r3, [r7, #56]	; 0x38
 8002910:	68bb      	ldr	r3, [r7, #8]
 8002912:	6a1a      	ldr	r2, [r3, #32]
 8002914:	6bbb      	ldr	r3, [r7, #56]	; 0x38
 8002916:	1ad2      	subs	r2, r2, r3
 8002918:	68bb      	ldr	r3, [r7, #8]
 800291a:	621a      	str	r2, [r3, #32]
 800291c:	e014      	b.n	8002948 <HAL_PCD_EP_DB_Transmit+0x17c>
 800291e:	68bb      	ldr	r3, [r7, #8]
 8002920:	6a1b      	ldr	r3, [r3, #32]
 8002922:	2b00      	cmp	r3, #0
 8002924:	d106      	bne.n	8002934 <HAL_PCD_EP_DB_Transmit+0x168>
 8002926:	8dfb      	ldrh	r3, [r7, #46]	; 0x2e
 8002928:	63bb      	str	r3, [r7, #56]	; 0x38
 800292a:	68bb      	ldr	r3, [r7, #8]
 800292c:	2200      	movs	r2, #0
 800292e:	f883 2024 	strb.w	r2, [r3, #36]	; 0x24
 8002932:	e009      	b.n	8002948 <HAL_PCD_EP_DB_Transmit+0x17c>
 8002934:	68bb      	ldr	r3, [r7, #8]
 8002936:	2200      	movs	r2, #0
 8002938:	f883 2024 	strb.w	r2, [r3, #36]	; 0x24
 800293c:	68bb      	ldr	r3, [r7, #8]
 800293e:	6a1b      	ldr	r3, [r3, #32]
 8002940:	63bb      	str	r3, [r7, #56]	; 0x38
 8002942:	68bb      	ldr	r3, [r7, #8]
 8002944:	2200      	movs	r2, #0
 8002946:	621a      	str	r2, [r3, #32]
 8002948:	68bb      	ldr	r3, [r7, #8]
 800294a:	785b      	ldrb	r3, [r3, #1]
 800294c:	2b00      	cmp	r3, #0
 800294e:	d155      	bne.n	80029fc <HAL_PCD_EP_DB_Transmit+0x230>
 8002950:	68fb      	ldr	r3, [r7, #12]
 8002952:	681b      	ldr	r3, [r3, #0]
 8002954:	61bb      	str	r3, [r7, #24]
 8002956:	68fb      	ldr	r3, [r7, #12]
 8002958:	681b      	ldr	r3, [r3, #0]
 800295a:	f8b3 3050 	ldrh.w	r3, [r3, #80]	; 0x50
 800295e:	b29b      	uxth	r3, r3
 8002960:	461a      	mov	r2, r3
 8002962:	69bb      	ldr	r3, [r7, #24]
 8002964:	4413      	add	r3, r2
 8002966:	61bb      	str	r3, [r7, #24]
 8002968:	68bb      	ldr	r3, [r7, #8]
 800296a:	781b      	ldrb	r3, [r3, #0]
 800296c:	011a      	lsls	r2, r3, #4
 800296e:	69bb      	ldr	r3, [r7, #24]
 8002970:	4413      	add	r3, r2
 8002972:	f203 4304 	addw	r3, r3, #1028	; 0x404
 8002976:	617b      	str	r3, [r7, #20]
 8002978:	6bbb      	ldr	r3, [r7, #56]	; 0x38
 800297a:	2b00      	cmp	r3, #0
 800297c:	d112      	bne.n	80029a4 <HAL_PCD_EP_DB_Transmit+0x1d8>
 800297e:	697b      	ldr	r3, [r7, #20]
 8002980:	881b      	ldrh	r3, [r3, #0]
 8002982:	b29b      	uxth	r3, r3
 8002984:	f423 43f8 	bic.w	r3, r3, #31744	; 0x7c00
 8002988:	b29a      	uxth	r2, r3
 800298a:	697b      	ldr	r3, [r7, #20]
 800298c:	801a      	strh	r2, [r3, #0]
 800298e:	697b      	ldr	r3, [r7, #20]
 8002990:	881b      	ldrh	r3, [r3, #0]
 8002992:	b29b      	uxth	r3, r3
 8002994:	ea6f 4343 	mvn.w	r3, r3, lsl #17
 8002998:	ea6f 4353 	mvn.w	r3, r3, lsr #17
 800299c:	b29a      	uxth	r2, r3
 800299e:	697b      	ldr	r3, [r7, #20]
 80029a0:	801a      	strh	r2, [r3, #0]
 80029a2:	e047      	b.n	8002a34 <HAL_PCD_EP_DB_Transmit+0x268>
 80029a4:	6bbb      	ldr	r3, [r7, #56]	; 0x38
 80029a6:	2b3e      	cmp	r3, #62	; 0x3e
 80029a8:	d811      	bhi.n	80029ce <HAL_PCD_EP_DB_Transmit+0x202>
 80029aa:	6bbb      	ldr	r3, [r7, #56]	; 0x38
 80029ac:	085b      	lsrs	r3, r3, #1
 80029ae:	62bb      	str	r3, [r7, #40]	; 0x28
 80029b0:	6bbb      	ldr	r3, [r7, #56]	; 0x38
 80029b2:	f003 0301 	and.w	r3, r3, #1
 80029b6:	2b00      	cmp	r3, #0
 80029b8:	d002      	beq.n	80029c0 <HAL_PCD_EP_DB_Transmit+0x1f4>
 80029ba:	6abb      	ldr	r3, [r7, #40]	; 0x28
 80029bc:	3301      	adds	r3, #1
 80029be:	62bb      	str	r3, [r7, #40]	; 0x28
 80029c0:	6abb      	ldr	r3, [r7, #40]	; 0x28
 80029c2:	b29b      	uxth	r3, r3
 80029c4:	029b      	lsls	r3, r3, #10
 80029c6:	b29a      	uxth	r2, r3
 80029c8:	697b      	ldr	r3, [r7, #20]
 80029ca:	801a      	strh	r2, [r3, #0]
 80029cc:	e032      	b.n	8002a34 <HAL_PCD_EP_DB_Transmit+0x268>
 80029ce:	6bbb      	ldr	r3, [r7, #56]	; 0x38
 80029d0:	095b      	lsrs	r3, r3, #5
 80029d2:	62bb      	str	r3, [r7, #40]	; 0x28
 80029d4:	6bbb      	ldr	r3, [r7, #56]	; 0x38
 80029d6:	f003 031f 	and.w	r3, r3, #31
 80029da:	2b00      	cmp	r3, #0
 80029dc:	d102      	bne.n	80029e4 <HAL_PCD_EP_DB_Transmit+0x218>
 80029de:	6abb      	ldr	r3, [r7, #40]	; 0x28
 80029e0:	3b01      	subs	r3, #1
 80029e2:	62bb      	str	r3, [r7, #40]	; 0x28
 80029e4:	6abb      	ldr	r3, [r7, #40]	; 0x28
 80029e6:	b29b      	uxth	r3, r3
 80029e8:	029b      	lsls	r3, r3, #10
 80029ea:	b29b      	uxth	r3, r3
 80029ec:	ea6f 4343 	mvn.w	r3, r3, lsl #17
 80029f0:	ea6f 4353 	mvn.w	r3, r3, lsr #17
 80029f4:	b29a      	uxth	r2, r3
 80029f6:	697b      	ldr	r3, [r7, #20]
 80029f8:	801a      	strh	r2, [r3, #0]
 80029fa:	e01b      	b.n	8002a34 <HAL_PCD_EP_DB_Transmit+0x268>
 80029fc:	68bb      	ldr	r3, [r7, #8]
 80029fe:	785b      	ldrb	r3, [r3, #1]
 8002a00:	2b01      	cmp	r3, #1
 8002a02:	d117      	bne.n	8002a34 <HAL_PCD_EP_DB_Transmit+0x268>
 8002a04:	68fb      	ldr	r3, [r7, #12]
 8002a06:	681b      	ldr	r3, [r3, #0]
 8002a08:	623b      	str	r3, [r7, #32]
 8002a0a:	68fb      	ldr	r3, [r7, #12]
 8002a0c:	681b      	ldr	r3, [r3, #0]
 8002a0e:	f8b3 3050 	ldrh.w	r3, [r3, #80]	; 0x50
 8002a12:	b29b      	uxth	r3, r3
 8002a14:	461a      	mov	r2, r3
 8002a16:	6a3b      	ldr	r3, [r7, #32]
 8002a18:	4413      	add	r3, r2
 8002a1a:	623b      	str	r3, [r7, #32]
 8002a1c:	68bb      	ldr	r3, [r7, #8]
 8002a1e:	781b      	ldrb	r3, [r3, #0]
 8002a20:	011a      	lsls	r2, r3, #4
 8002a22:	6a3b      	ldr	r3, [r7, #32]
 8002a24:	4413      	add	r3, r2
 8002a26:	f203 4304 	addw	r3, r3, #1028	; 0x404
 8002a2a:	61fb      	str	r3, [r7, #28]
 8002a2c:	6bbb      	ldr	r3, [r7, #56]	; 0x38
 8002a2e:	b29a      	uxth	r2, r3
 8002a30:	69fb      	ldr	r3, [r7, #28]
 8002a32:	801a      	strh	r2, [r3, #0]
 8002a34:	68fb      	ldr	r3, [r7, #12]
 8002a36:	6818      	ldr	r0, [r3, #0]
 8002a38:	68bb      	ldr	r3, [r7, #8]
 8002a3a:	6959      	ldr	r1, [r3, #20]
 8002a3c:	68bb      	ldr	r3, [r7, #8]
 8002a3e:	891a      	ldrh	r2, [r3, #8]
 8002a40:	6bbb      	ldr	r3, [r7, #56]	; 0x38
 8002a42:	b29b      	uxth	r3, r3
 8002a44:	f003 fa24 	bl	8005e90 <USB_WritePMA>
 8002a48:	e130      	b.n	8002cac <HAL_PCD_EP_DB_Transmit+0x4e0>
 8002a4a:	68fb      	ldr	r3, [r7, #12]
 8002a4c:	681b      	ldr	r3, [r3, #0]
 8002a4e:	f8b3 3050 	ldrh.w	r3, [r3, #80]	; 0x50
 8002a52:	b29b      	uxth	r3, r3
 8002a54:	461a      	mov	r2, r3
 8002a56:	68bb      	ldr	r3, [r7, #8]
 8002a58:	781b      	ldrb	r3, [r3, #0]
 8002a5a:	00db      	lsls	r3, r3, #3
 8002a5c:	4413      	add	r3, r2
 8002a5e:	3306      	adds	r3, #6
 8002a60:	005b      	lsls	r3, r3, #1
 8002a62:	68fa      	ldr	r2, [r7, #12]
 8002a64:	6812      	ldr	r2, [r2, #0]
 8002a66:	4413      	add	r3, r2
 8002a68:	f503 6380 	add.w	r3, r3, #1024	; 0x400
 8002a6c:	881b      	ldrh	r3, [r3, #0]
 8002a6e:	f3c3 0309 	ubfx	r3, r3, #0, #10
 8002a72:	85fb      	strh	r3, [r7, #46]	; 0x2e
 8002a74:	68bb      	ldr	r3, [r7, #8]
 8002a76:	699a      	ldr	r2, [r3, #24]
 8002a78:	8dfb      	ldrh	r3, [r7, #46]	; 0x2e
 8002a7a:	429a      	cmp	r2, r3
 8002a7c:	d306      	bcc.n	8002a8c <HAL_PCD_EP_DB_Transmit+0x2c0>
 8002a7e:	68bb      	ldr	r3, [r7, #8]
 8002a80:	699a      	ldr	r2, [r3, #24]
 8002a82:	8dfb      	ldrh	r3, [r7, #46]	; 0x2e
 8002a84:	1ad2      	subs	r2, r2, r3
 8002a86:	68bb      	ldr	r3, [r7, #8]
 8002a88:	619a      	str	r2, [r3, #24]
 8002a8a:	e002      	b.n	8002a92 <HAL_PCD_EP_DB_Transmit+0x2c6>
 8002a8c:	68bb      	ldr	r3, [r7, #8]
 8002a8e:	2200      	movs	r2, #0
 8002a90:	619a      	str	r2, [r3, #24]
 8002a92:	68bb      	ldr	r3, [r7, #8]
 8002a94:	699b      	ldr	r3, [r3, #24]
 8002a96:	2b00      	cmp	r3, #0
 8002a98:	d12c      	bne.n	8002af4 <HAL_PCD_EP_DB_Transmit+0x328>
 8002a9a:	68bb      	ldr	r3, [r7, #8]
 8002a9c:	781b      	ldrb	r3, [r3, #0]
 8002a9e:	4619      	mov	r1, r3
 8002aa0:	68f8      	ldr	r0, [r7, #12]
 8002aa2:	f004 ffd6 	bl	8007a52 <HAL_PCD_DataInStageCallback>
 8002aa6:	88fb      	ldrh	r3, [r7, #6]
 8002aa8:	f403 4380 	and.w	r3, r3, #16384	; 0x4000
 8002aac:	2b00      	cmp	r3, #0
 8002aae:	f040 80fd 	bne.w	8002cac <HAL_PCD_EP_DB_Transmit+0x4e0>
 8002ab2:	68fb      	ldr	r3, [r7, #12]
 8002ab4:	681b      	ldr	r3, [r3, #0]
 8002ab6:	461a      	mov	r2, r3
 8002ab8:	68bb      	ldr	r3, [r7, #8]
 8002aba:	781b      	ldrb	r3, [r3, #0]
 8002abc:	009b      	lsls	r3, r3, #2
 8002abe:	4413      	add	r3, r2
 8002ac0:	881b      	ldrh	r3, [r3, #0]
 8002ac2:	b29b      	uxth	r3, r3
 8002ac4:	f423 43e0 	bic.w	r3, r3, #28672	; 0x7000
 8002ac8:	f023 0370 	bic.w	r3, r3, #112	; 0x70
 8002acc:	84fb      	strh	r3, [r7, #38]	; 0x26
 8002ace:	68fb      	ldr	r3, [r7, #12]
 8002ad0:	681b      	ldr	r3, [r3, #0]
 8002ad2:	461a      	mov	r2, r3
 8002ad4:	68bb      	ldr	r3, [r7, #8]
 8002ad6:	781b      	ldrb	r3, [r3, #0]
 8002ad8:	009b      	lsls	r3, r3, #2
 8002ada:	441a      	add	r2, r3
 8002adc:	8cfb      	ldrh	r3, [r7, #38]	; 0x26
 8002ade:	f043 437f 	orr.w	r3, r3, #4278190080	; 0xff000000
 8002ae2:	f443 037f 	orr.w	r3, r3, #16711680	; 0xff0000
 8002ae6:	f443 4340 	orr.w	r3, r3, #49152	; 0xc000
 8002aea:	f043 0380 	orr.w	r3, r3, #128	; 0x80
 8002aee:	b29b      	uxth	r3, r3
 8002af0:	8013      	strh	r3, [r2, #0]
 8002af2:	e0db      	b.n	8002cac <HAL_PCD_EP_DB_Transmit+0x4e0>
 8002af4:	88fb      	ldrh	r3, [r7, #6]
 8002af6:	f403 4380 	and.w	r3, r3, #16384	; 0x4000
 8002afa:	2b00      	cmp	r3, #0
 8002afc:	d11f      	bne.n	8002b3e <HAL_PCD_EP_DB_Transmit+0x372>
 8002afe:	68fb      	ldr	r3, [r7, #12]
 8002b00:	681b      	ldr	r3, [r3, #0]
 8002b02:	461a      	mov	r2, r3
 8002b04:	68bb      	ldr	r3, [r7, #8]
 8002b06:	781b      	ldrb	r3, [r3, #0]
 8002b08:	009b      	lsls	r3, r3, #2
 8002b0a:	4413      	add	r3, r2
 8002b0c:	881b      	ldrh	r3, [r3, #0]
 8002b0e:	b29b      	uxth	r3, r3
 8002b10:	f423 43e0 	bic.w	r3, r3, #28672	; 0x7000
 8002b14:	f023 0370 	bic.w	r3, r3, #112	; 0x70
 8002b18:	85bb      	strh	r3, [r7, #44]	; 0x2c
 8002b1a:	68fb      	ldr	r3, [r7, #12]
 8002b1c:	681b      	ldr	r3, [r3, #0]
 8002b1e:	461a      	mov	r2, r3
 8002b20:	68bb      	ldr	r3, [r7, #8]
 8002b22:	781b      	ldrb	r3, [r3, #0]
 8002b24:	009b      	lsls	r3, r3, #2
 8002b26:	441a      	add	r2, r3
 8002b28:	8dbb      	ldrh	r3, [r7, #44]	; 0x2c
 8002b2a:	f043 437f 	orr.w	r3, r3, #4278190080	; 0xff000000
 8002b2e:	f443 037f 	orr.w	r3, r3, #16711680	; 0xff0000
 8002b32:	f443 4340 	orr.w	r3, r3, #49152	; 0xc000
 8002b36:	f043 0380 	orr.w	r3, r3, #128	; 0x80
 8002b3a:	b29b      	uxth	r3, r3
 8002b3c:	8013      	strh	r3, [r2, #0]
 8002b3e:	68bb      	ldr	r3, [r7, #8]
 8002b40:	f893 3024 	ldrb.w	r3, [r3, #36]	; 0x24
 8002b44:	2b01      	cmp	r3, #1
 8002b46:	f040 80b1 	bne.w	8002cac <HAL_PCD_EP_DB_Transmit+0x4e0>
 8002b4a:	68bb      	ldr	r3, [r7, #8]
 8002b4c:	695a      	ldr	r2, [r3, #20]
 8002b4e:	8dfb      	ldrh	r3, [r7, #46]	; 0x2e
 8002b50:	441a      	add	r2, r3
 8002b52:	68bb      	ldr	r3, [r7, #8]
 8002b54:	615a      	str	r2, [r3, #20]
 8002b56:	68bb      	ldr	r3, [r7, #8]
 8002b58:	69da      	ldr	r2, [r3, #28]
 8002b5a:	8dfb      	ldrh	r3, [r7, #46]	; 0x2e
 8002b5c:	441a      	add	r2, r3
 8002b5e:	68bb      	ldr	r3, [r7, #8]
 8002b60:	61da      	str	r2, [r3, #28]
 8002b62:	68bb      	ldr	r3, [r7, #8]
 8002b64:	6a1a      	ldr	r2, [r3, #32]
 8002b66:	68bb      	ldr	r3, [r7, #8]
 8002b68:	691b      	ldr	r3, [r3, #16]
 8002b6a:	429a      	cmp	r2, r3
 8002b6c:	d309      	bcc.n	8002b82 <HAL_PCD_EP_DB_Transmit+0x3b6>
 8002b6e:	68bb      	ldr	r3, [r7, #8]
 8002b70:	691b      	ldr	r3, [r3, #16]
 8002b72:	63bb      	str	r3, [r7, #56]	; 0x38
 8002b74:	68bb      	ldr	r3, [r7, #8]
 8002b76:	6a1a      	ldr	r2, [r3, #32]
 8002b78:	6bbb      	ldr	r3, [r7, #56]	; 0x38
 8002b7a:	1ad2      	subs	r2, r2, r3
 8002b7c:	68bb      	ldr	r3, [r7, #8]
 8002b7e:	621a      	str	r2, [r3, #32]
 8002b80:	e014      	b.n	8002bac <HAL_PCD_EP_DB_Transmit+0x3e0>
 8002b82:	68bb      	ldr	r3, [r7, #8]
 8002b84:	6a1b      	ldr	r3, [r3, #32]
 8002b86:	2b00      	cmp	r3, #0
 8002b88:	d106      	bne.n	8002b98 <HAL_PCD_EP_DB_Transmit+0x3cc>
 8002b8a:	8dfb      	ldrh	r3, [r7, #46]	; 0x2e
 8002b8c:	63bb      	str	r3, [r7, #56]	; 0x38
 8002b8e:	68bb      	ldr	r3, [r7, #8]
 8002b90:	2200      	movs	r2, #0
 8002b92:	f883 2024 	strb.w	r2, [r3, #36]	; 0x24
 8002b96:	e009      	b.n	8002bac <HAL_PCD_EP_DB_Transmit+0x3e0>
 8002b98:	68bb      	ldr	r3, [r7, #8]
 8002b9a:	6a1b      	ldr	r3, [r3, #32]
 8002b9c:	63bb      	str	r3, [r7, #56]	; 0x38
 8002b9e:	68bb      	ldr	r3, [r7, #8]
 8002ba0:	2200      	movs	r2, #0
 8002ba2:	621a      	str	r2, [r3, #32]
 8002ba4:	68bb      	ldr	r3, [r7, #8]
 8002ba6:	2200      	movs	r2, #0
 8002ba8:	f883 2024 	strb.w	r2, [r3, #36]	; 0x24
 8002bac:	68fb      	ldr	r3, [r7, #12]
 8002bae:	681b      	ldr	r3, [r3, #0]
 8002bb0:	637b      	str	r3, [r7, #52]	; 0x34
 8002bb2:	68bb      	ldr	r3, [r7, #8]
 8002bb4:	785b      	ldrb	r3, [r3, #1]
 8002bb6:	2b00      	cmp	r3, #0
 8002bb8:	d155      	bne.n	8002c66 <HAL_PCD_EP_DB_Transmit+0x49a>
 8002bba:	68fb      	ldr	r3, [r7, #12]
 8002bbc:	681b      	ldr	r3, [r3, #0]
 8002bbe:	647b      	str	r3, [r7, #68]	; 0x44
 8002bc0:	68fb      	ldr	r3, [r7, #12]
 8002bc2:	681b      	ldr	r3, [r3, #0]
 8002bc4:	f8b3 3050 	ldrh.w	r3, [r3, #80]	; 0x50
 8002bc8:	b29b      	uxth	r3, r3
 8002bca:	461a      	mov	r2, r3
 8002bcc:	6c7b      	ldr	r3, [r7, #68]	; 0x44
 8002bce:	4413      	add	r3, r2
 8002bd0:	647b      	str	r3, [r7, #68]	; 0x44
 8002bd2:	68bb      	ldr	r3, [r7, #8]
 8002bd4:	781b      	ldrb	r3, [r3, #0]
 8002bd6:	011a      	lsls	r2, r3, #4
 8002bd8:	6c7b      	ldr	r3, [r7, #68]	; 0x44
 8002bda:	4413      	add	r3, r2
 8002bdc:	f203 430c 	addw	r3, r3, #1036	; 0x40c
 8002be0:	643b      	str	r3, [r7, #64]	; 0x40
 8002be2:	6bbb      	ldr	r3, [r7, #56]	; 0x38
 8002be4:	2b00      	cmp	r3, #0
 8002be6:	d112      	bne.n	8002c0e <HAL_PCD_EP_DB_Transmit+0x442>
 8002be8:	6c3b      	ldr	r3, [r7, #64]	; 0x40
 8002bea:	881b      	ldrh	r3, [r3, #0]
 8002bec:	b29b      	uxth	r3, r3
 8002bee:	f423 43f8 	bic.w	r3, r3, #31744	; 0x7c00
 8002bf2:	b29a      	uxth	r2, r3
 8002bf4:	6c3b      	ldr	r3, [r7, #64]	; 0x40
 8002bf6:	801a      	strh	r2, [r3, #0]
 8002bf8:	6c3b      	ldr	r3, [r7, #64]	; 0x40
 8002bfa:	881b      	ldrh	r3, [r3, #0]
 8002bfc:	b29b      	uxth	r3, r3
 8002bfe:	ea6f 4343 	mvn.w	r3, r3, lsl #17
 8002c02:	ea6f 4353 	mvn.w	r3, r3, lsr #17
 8002c06:	b29a      	uxth	r2, r3
 8002c08:	6c3b      	ldr	r3, [r7, #64]	; 0x40
 8002c0a:	801a      	strh	r2, [r3, #0]
 8002c0c:	e044      	b.n	8002c98 <HAL_PCD_EP_DB_Transmit+0x4cc>
 8002c0e:	6bbb      	ldr	r3, [r7, #56]	; 0x38
 8002c10:	2b3e      	cmp	r3, #62	; 0x3e
 8002c12:	d811      	bhi.n	8002c38 <HAL_PCD_EP_DB_Transmit+0x46c>
 8002c14:	6bbb      	ldr	r3, [r7, #56]	; 0x38
 8002c16:	085b      	lsrs	r3, r3, #1
 8002c18:	63fb      	str	r3, [r7, #60]	; 0x3c
 8002c1a:	6bbb      	ldr	r3, [r7, #56]	; 0x38
 8002c1c:	f003 0301 	and.w	r3, r3, #1
 8002c20:	2b00      	cmp	r3, #0
 8002c22:	d002      	beq.n	8002c2a <HAL_PCD_EP_DB_Transmit+0x45e>
 8002c24:	6bfb      	ldr	r3, [r7, #60]	; 0x3c
 8002c26:	3301      	adds	r3, #1
 8002c28:	63fb      	str	r3, [r7, #60]	; 0x3c
 8002c2a:	6bfb      	ldr	r3, [r7, #60]	; 0x3c
 8002c2c:	b29b      	uxth	r3, r3
 8002c2e:	029b      	lsls	r3, r3, #10
 8002c30:	b29a      	uxth	r2, r3
 8002c32:	6c3b      	ldr	r3, [r7, #64]	; 0x40
 8002c34:	801a      	strh	r2, [r3, #0]
 8002c36:	e02f      	b.n	8002c98 <HAL_PCD_EP_DB_Transmit+0x4cc>
 8002c38:	6bbb      	ldr	r3, [r7, #56]	; 0x38
 8002c3a:	095b      	lsrs	r3, r3, #5
 8002c3c:	63fb      	str	r3, [r7, #60]	; 0x3c
 8002c3e:	6bbb      	ldr	r3, [r7, #56]	; 0x38
 8002c40:	f003 031f 	and.w	r3, r3, #31
 8002c44:	2b00      	cmp	r3, #0
 8002c46:	d102      	bne.n	8002c4e <HAL_PCD_EP_DB_Transmit+0x482>
 8002c48:	6bfb      	ldr	r3, [r7, #60]	; 0x3c
 8002c4a:	3b01      	subs	r3, #1
 8002c4c:	63fb      	str	r3, [r7, #60]	; 0x3c
 8002c4e:	6bfb      	ldr	r3, [r7, #60]	; 0x3c
 8002c50:	b29b      	uxth	r3, r3
 8002c52:	029b      	lsls	r3, r3, #10
 8002c54:	b29b      	uxth	r3, r3
 8002c56:	ea6f 4343 	mvn.w	r3, r3, lsl #17
 8002c5a:	ea6f 4353 	mvn.w	r3, r3, lsr #17
 8002c5e:	b29a      	uxth	r2, r3
 8002c60:	6c3b      	ldr	r3, [r7, #64]	; 0x40
 8002c62:	801a      	strh	r2, [r3, #0]
 8002c64:	e018      	b.n	8002c98 <HAL_PCD_EP_DB_Transmit+0x4cc>
 8002c66:	68bb      	ldr	r3, [r7, #8]
 8002c68:	785b      	ldrb	r3, [r3, #1]
 8002c6a:	2b01      	cmp	r3, #1
 8002c6c:	d114      	bne.n	8002c98 <HAL_PCD_EP_DB_Transmit+0x4cc>
 8002c6e:	68fb      	ldr	r3, [r7, #12]
 8002c70:	681b      	ldr	r3, [r3, #0]
 8002c72:	f8b3 3050 	ldrh.w	r3, [r3, #80]	; 0x50
 8002c76:	b29b      	uxth	r3, r3
 8002c78:	461a      	mov	r2, r3
 8002c7a:	6b7b      	ldr	r3, [r7, #52]	; 0x34
 8002c7c:	4413      	add	r3, r2
 8002c7e:	637b      	str	r3, [r7, #52]	; 0x34
 8002c80:	68bb      	ldr	r3, [r7, #8]
 8002c82:	781b      	ldrb	r3, [r3, #0]
 8002c84:	011a      	lsls	r2, r3, #4
 8002c86:	6b7b      	ldr	r3, [r7, #52]	; 0x34
 8002c88:	4413      	add	r3, r2
 8002c8a:	f203 430c 	addw	r3, r3, #1036	; 0x40c
 8002c8e:	633b      	str	r3, [r7, #48]	; 0x30
 8002c90:	6bbb      	ldr	r3, [r7, #56]	; 0x38
 8002c92:	b29a      	uxth	r2, r3
 8002c94:	6b3b      	ldr	r3, [r7, #48]	; 0x30
 8002c96:	801a      	strh	r2, [r3, #0]
 8002c98:	68fb      	ldr	r3, [r7, #12]
 8002c9a:	6818      	ldr	r0, [r3, #0]
 8002c9c:	68bb      	ldr	r3, [r7, #8]
 8002c9e:	6959      	ldr	r1, [r3, #20]
 8002ca0:	68bb      	ldr	r3, [r7, #8]
 8002ca2:	895a      	ldrh	r2, [r3, #10]
 8002ca4:	6bbb      	ldr	r3, [r7, #56]	; 0x38
 8002ca6:	b29b      	uxth	r3, r3
 8002ca8:	f003 f8f2 	bl	8005e90 <USB_WritePMA>
 8002cac:	68fb      	ldr	r3, [r7, #12]
 8002cae:	681b      	ldr	r3, [r3, #0]
 8002cb0:	461a      	mov	r2, r3
 8002cb2:	68bb      	ldr	r3, [r7, #8]
 8002cb4:	781b      	ldrb	r3, [r3, #0]
 8002cb6:	009b      	lsls	r3, r3, #2
 8002cb8:	4413      	add	r3, r2
 8002cba:	881b      	ldrh	r3, [r3, #0]
 8002cbc:	b29b      	uxth	r3, r3
 8002cbe:	f423 43e0 	bic.w	r3, r3, #28672	; 0x7000
 8002cc2:	f023 0340 	bic.w	r3, r3, #64	; 0x40
 8002cc6:	823b      	strh	r3, [r7, #16]
 8002cc8:	8a3b      	ldrh	r3, [r7, #16]
 8002cca:	f083 0310 	eor.w	r3, r3, #16
 8002cce:	823b      	strh	r3, [r7, #16]
 8002cd0:	8a3b      	ldrh	r3, [r7, #16]
 8002cd2:	f083 0320 	eor.w	r3, r3, #32
 8002cd6:	823b      	strh	r3, [r7, #16]
 8002cd8:	68fb      	ldr	r3, [r7, #12]
 8002cda:	681b      	ldr	r3, [r3, #0]
 8002cdc:	461a      	mov	r2, r3
 8002cde:	68bb      	ldr	r3, [r7, #8]
 8002ce0:	781b      	ldrb	r3, [r3, #0]
 8002ce2:	009b      	lsls	r3, r3, #2
 8002ce4:	441a      	add	r2, r3
 8002ce6:	8a3b      	ldrh	r3, [r7, #16]
 8002ce8:	f043 437f 	orr.w	r3, r3, #4278190080	; 0xff000000
 8002cec:	f443 037f 	orr.w	r3, r3, #16711680	; 0xff0000
 8002cf0:	f443 4300 	orr.w	r3, r3, #32768	; 0x8000
 8002cf4:	f043 0380 	orr.w	r3, r3, #128	; 0x80
 8002cf8:	b29b      	uxth	r3, r3
 8002cfa:	8013      	strh	r3, [r2, #0]
 8002cfc:	2300      	movs	r3, #0
 8002cfe:	4618      	mov	r0, r3
 8002d00:	3748      	adds	r7, #72	; 0x48
 8002d02:	46bd      	mov	sp, r7
 8002d04:	bd80      	pop	{r7, pc}

08002d06 <HAL_PCDEx_PMAConfig>:
 8002d06:	b480      	push	{r7}
 8002d08:	b087      	sub	sp, #28
 8002d0a:	af00      	add	r7, sp, #0
 8002d0c:	60f8      	str	r0, [r7, #12]
 8002d0e:	607b      	str	r3, [r7, #4]
 8002d10:	460b      	mov	r3, r1
 8002d12:	817b      	strh	r3, [r7, #10]
 8002d14:	4613      	mov	r3, r2
 8002d16:	813b      	strh	r3, [r7, #8]
 8002d18:	897b      	ldrh	r3, [r7, #10]
 8002d1a:	f003 0380 	and.w	r3, r3, #128	; 0x80
 8002d1e:	b29b      	uxth	r3, r3
 8002d20:	2b00      	cmp	r3, #0
 8002d22:	d00b      	beq.n	8002d3c <HAL_PCDEx_PMAConfig+0x36>
 8002d24:	897b      	ldrh	r3, [r7, #10]
 8002d26:	f003 0307 	and.w	r3, r3, #7
 8002d2a:	1c5a      	adds	r2, r3, #1
 8002d2c:	4613      	mov	r3, r2
 8002d2e:	009b      	lsls	r3, r3, #2
 8002d30:	4413      	add	r3, r2
 8002d32:	00db      	lsls	r3, r3, #3
 8002d34:	68fa      	ldr	r2, [r7, #12]
 8002d36:	4413      	add	r3, r2
 8002d38:	617b      	str	r3, [r7, #20]
 8002d3a:	e009      	b.n	8002d50 <HAL_PCDEx_PMAConfig+0x4a>
 8002d3c:	897a      	ldrh	r2, [r7, #10]
 8002d3e:	4613      	mov	r3, r2
 8002d40:	009b      	lsls	r3, r3, #2
 8002d42:	4413      	add	r3, r2
 8002d44:	00db      	lsls	r3, r3, #3
 8002d46:	f503 73b4 	add.w	r3, r3, #360	; 0x168
 8002d4a:	68fa      	ldr	r2, [r7, #12]
 8002d4c:	4413      	add	r3, r2
 8002d4e:	617b      	str	r3, [r7, #20]
 8002d50:	893b      	ldrh	r3, [r7, #8]
 8002d52:	2b00      	cmp	r3, #0
 8002d54:	d107      	bne.n	8002d66 <HAL_PCDEx_PMAConfig+0x60>
 8002d56:	697b      	ldr	r3, [r7, #20]
 8002d58:	2200      	movs	r2, #0
 8002d5a:	731a      	strb	r2, [r3, #12]
 8002d5c:	687b      	ldr	r3, [r7, #4]
 8002d5e:	b29a      	uxth	r2, r3
 8002d60:	697b      	ldr	r3, [r7, #20]
 8002d62:	80da      	strh	r2, [r3, #6]
 8002d64:	e00b      	b.n	8002d7e <HAL_PCDEx_PMAConfig+0x78>
 8002d66:	697b      	ldr	r3, [r7, #20]
 8002d68:	2201      	movs	r2, #1
 8002d6a:	731a      	strb	r2, [r3, #12]
 8002d6c:	687b      	ldr	r3, [r7, #4]
 8002d6e:	b29a      	uxth	r2, r3
 8002d70:	697b      	ldr	r3, [r7, #20]
 8002d72:	811a      	strh	r2, [r3, #8]
 8002d74:	687b      	ldr	r3, [r7, #4]
 8002d76:	0c1b      	lsrs	r3, r3, #16
 8002d78:	b29a      	uxth	r2, r3
 8002d7a:	697b      	ldr	r3, [r7, #20]
 8002d7c:	815a      	strh	r2, [r3, #10]
 8002d7e:	2300      	movs	r3, #0
 8002d80:	4618      	mov	r0, r3
 8002d82:	371c      	adds	r7, #28
 8002d84:	46bd      	mov	sp, r7
 8002d86:	bc80      	pop	{r7}
 8002d88:	4770      	bx	lr
	...

08002d8c <HAL_RCC_OscConfig>:
 8002d8c:	b580      	push	{r7, lr}
 8002d8e:	b086      	sub	sp, #24
 8002d90:	af00      	add	r7, sp, #0
 8002d92:	6078      	str	r0, [r7, #4]
 8002d94:	687b      	ldr	r3, [r7, #4]
 8002d96:	2b00      	cmp	r3, #0
 8002d98:	d101      	bne.n	8002d9e <HAL_RCC_OscConfig+0x12>
 8002d9a:	2301      	movs	r3, #1
 8002d9c:	e26c      	b.n	8003278 <HAL_RCC_OscConfig+0x4ec>
 8002d9e:	687b      	ldr	r3, [r7, #4]
 8002da0:	681b      	ldr	r3, [r3, #0]
 8002da2:	f003 0301 	and.w	r3, r3, #1
 8002da6:	2b00      	cmp	r3, #0
 8002da8:	f000 8087 	beq.w	8002eba <HAL_RCC_OscConfig+0x12e>
 8002dac:	4b92      	ldr	r3, [pc, #584]	; (8002ff8 <HAL_RCC_OscConfig+0x26c>)
 8002dae:	685b      	ldr	r3, [r3, #4]
 8002db0:	f003 030c 	and.w	r3, r3, #12
 8002db4:	2b04      	cmp	r3, #4
 8002db6:	d00c      	beq.n	8002dd2 <HAL_RCC_OscConfig+0x46>
 8002db8:	4b8f      	ldr	r3, [pc, #572]	; (8002ff8 <HAL_RCC_OscConfig+0x26c>)
 8002dba:	685b      	ldr	r3, [r3, #4]
 8002dbc:	f003 030c 	and.w	r3, r3, #12
 8002dc0:	2b08      	cmp	r3, #8
 8002dc2:	d112      	bne.n	8002dea <HAL_RCC_OscConfig+0x5e>
 8002dc4:	4b8c      	ldr	r3, [pc, #560]	; (8002ff8 <HAL_RCC_OscConfig+0x26c>)
 8002dc6:	685b      	ldr	r3, [r3, #4]
 8002dc8:	f403 3380 	and.w	r3, r3, #65536	; 0x10000
 8002dcc:	f5b3 3f80 	cmp.w	r3, #65536	; 0x10000
 8002dd0:	d10b      	bne.n	8002dea <HAL_RCC_OscConfig+0x5e>
 8002dd2:	4b89      	ldr	r3, [pc, #548]	; (8002ff8 <HAL_RCC_OscConfig+0x26c>)
 8002dd4:	681b      	ldr	r3, [r3, #0]
 8002dd6:	f403 3300 	and.w	r3, r3, #131072	; 0x20000
 8002dda:	2b00      	cmp	r3, #0
 8002ddc:	d06c      	beq.n	8002eb8 <HAL_RCC_OscConfig+0x12c>
 8002dde:	687b      	ldr	r3, [r7, #4]
 8002de0:	685b      	ldr	r3, [r3, #4]
 8002de2:	2b00      	cmp	r3, #0
 8002de4:	d168      	bne.n	8002eb8 <HAL_RCC_OscConfig+0x12c>
 8002de6:	2301      	movs	r3, #1
 8002de8:	e246      	b.n	8003278 <HAL_RCC_OscConfig+0x4ec>
 8002dea:	687b      	ldr	r3, [r7, #4]
 8002dec:	685b      	ldr	r3, [r3, #4]
 8002dee:	f5b3 3f80 	cmp.w	r3, #65536	; 0x10000
 8002df2:	d106      	bne.n	8002e02 <HAL_RCC_OscConfig+0x76>
 8002df4:	4b80      	ldr	r3, [pc, #512]	; (8002ff8 <HAL_RCC_OscConfig+0x26c>)
 8002df6:	681b      	ldr	r3, [r3, #0]
 8002df8:	4a7f      	ldr	r2, [pc, #508]	; (8002ff8 <HAL_RCC_OscConfig+0x26c>)
 8002dfa:	f443 3380 	orr.w	r3, r3, #65536	; 0x10000
 8002dfe:	6013      	str	r3, [r2, #0]
 8002e00:	e02e      	b.n	8002e60 <HAL_RCC_OscConfig+0xd4>
 8002e02:	687b      	ldr	r3, [r7, #4]
 8002e04:	685b      	ldr	r3, [r3, #4]
 8002e06:	2b00      	cmp	r3, #0
 8002e08:	d10c      	bne.n	8002e24 <HAL_RCC_OscConfig+0x98>
 8002e0a:	4b7b      	ldr	r3, [pc, #492]	; (8002ff8 <HAL_RCC_OscConfig+0x26c>)
 8002e0c:	681b      	ldr	r3, [r3, #0]
 8002e0e:	4a7a      	ldr	r2, [pc, #488]	; (8002ff8 <HAL_RCC_OscConfig+0x26c>)
 8002e10:	f423 3380 	bic.w	r3, r3, #65536	; 0x10000
 8002e14:	6013      	str	r3, [r2, #0]
 8002e16:	4b78      	ldr	r3, [pc, #480]	; (8002ff8 <HAL_RCC_OscConfig+0x26c>)
 8002e18:	681b      	ldr	r3, [r3, #0]
 8002e1a:	4a77      	ldr	r2, [pc, #476]	; (8002ff8 <HAL_RCC_OscConfig+0x26c>)
 8002e1c:	f423 2380 	bic.w	r3, r3, #262144	; 0x40000
 8002e20:	6013      	str	r3, [r2, #0]
 8002e22:	e01d      	b.n	8002e60 <HAL_RCC_OscConfig+0xd4>
 8002e24:	687b      	ldr	r3, [r7, #4]
 8002e26:	685b      	ldr	r3, [r3, #4]
 8002e28:	f5b3 2fa0 	cmp.w	r3, #327680	; 0x50000
 8002e2c:	d10c      	bne.n	8002e48 <HAL_RCC_OscConfig+0xbc>
 8002e2e:	4b72      	ldr	r3, [pc, #456]	; (8002ff8 <HAL_RCC_OscConfig+0x26c>)
 8002e30:	681b      	ldr	r3, [r3, #0]
 8002e32:	4a71      	ldr	r2, [pc, #452]	; (8002ff8 <HAL_RCC_OscConfig+0x26c>)
 8002e34:	f443 2380 	orr.w	r3, r3, #262144	; 0x40000
 8002e38:	6013      	str	r3, [r2, #0]
 8002e3a:	4b6f      	ldr	r3, [pc, #444]	; (8002ff8 <HAL_RCC_OscConfig+0x26c>)
 8002e3c:	681b      	ldr	r3, [r3, #0]
 8002e3e:	4a6e      	ldr	r2, [pc, #440]	; (8002ff8 <HAL_RCC_OscConfig+0x26c>)
 8002e40:	f443 3380 	orr.w	r3, r3, #65536	; 0x10000
 8002e44:	6013      	str	r3, [r2, #0]
 8002e46:	e00b      	b.n	8002e60 <HAL_RCC_OscConfig+0xd4>
 8002e48:	4b6b      	ldr	r3, [pc, #428]	; (8002ff8 <HAL_RCC_OscConfig+0x26c>)
 8002e4a:	681b      	ldr	r3, [r3, #0]
 8002e4c:	4a6a      	ldr	r2, [pc, #424]	; (8002ff8 <HAL_RCC_OscConfig+0x26c>)
 8002e4e:	f423 3380 	bic.w	r3, r3, #65536	; 0x10000
 8002e52:	6013      	str	r3, [r2, #0]
 8002e54:	4b68      	ldr	r3, [pc, #416]	; (8002ff8 <HAL_RCC_OscConfig+0x26c>)
 8002e56:	681b      	ldr	r3, [r3, #0]
 8002e58:	4a67      	ldr	r2, [pc, #412]	; (8002ff8 <HAL_RCC_OscConfig+0x26c>)
 8002e5a:	f423 2380 	bic.w	r3, r3, #262144	; 0x40000
 8002e5e:	6013      	str	r3, [r2, #0]
 8002e60:	687b      	ldr	r3, [r7, #4]
 8002e62:	685b      	ldr	r3, [r3, #4]
 8002e64:	2b00      	cmp	r3, #0
 8002e66:	d013      	beq.n	8002e90 <HAL_RCC_OscConfig+0x104>
 8002e68:	f7fd fe40 	bl	8000aec <HAL_GetTick>
 8002e6c:	6138      	str	r0, [r7, #16]
 8002e6e:	e008      	b.n	8002e82 <HAL_RCC_OscConfig+0xf6>
 8002e70:	f7fd fe3c 	bl	8000aec <HAL_GetTick>
 8002e74:	4602      	mov	r2, r0
 8002e76:	693b      	ldr	r3, [r7, #16]
 8002e78:	1ad3      	subs	r3, r2, r3
 8002e7a:	2b64      	cmp	r3, #100	; 0x64
 8002e7c:	d901      	bls.n	8002e82 <HAL_RCC_OscConfig+0xf6>
 8002e7e:	2303      	movs	r3, #3
 8002e80:	e1fa      	b.n	8003278 <HAL_RCC_OscConfig+0x4ec>
 8002e82:	4b5d      	ldr	r3, [pc, #372]	; (8002ff8 <HAL_RCC_OscConfig+0x26c>)
 8002e84:	681b      	ldr	r3, [r3, #0]
 8002e86:	f403 3300 	and.w	r3, r3, #131072	; 0x20000
 8002e8a:	2b00      	cmp	r3, #0
 8002e8c:	d0f0      	beq.n	8002e70 <HAL_RCC_OscConfig+0xe4>
 8002e8e:	e014      	b.n	8002eba <HAL_RCC_OscConfig+0x12e>
 8002e90:	f7fd fe2c 	bl	8000aec <HAL_GetTick>
 8002e94:	6138      	str	r0, [r7, #16]
 8002e96:	e008      	b.n	8002eaa <HAL_RCC_OscConfig+0x11e>
 8002e98:	f7fd fe28 	bl	8000aec <HAL_GetTick>
 8002e9c:	4602      	mov	r2, r0
 8002e9e:	693b      	ldr	r3, [r7, #16]
 8002ea0:	1ad3      	subs	r3, r2, r3
 8002ea2:	2b64      	cmp	r3, #100	; 0x64
 8002ea4:	d901      	bls.n	8002eaa <HAL_RCC_OscConfig+0x11e>
 8002ea6:	2303      	movs	r3, #3
 8002ea8:	e1e6      	b.n	8003278 <HAL_RCC_OscConfig+0x4ec>
 8002eaa:	4b53      	ldr	r3, [pc, #332]	; (8002ff8 <HAL_RCC_OscConfig+0x26c>)
 8002eac:	681b      	ldr	r3, [r3, #0]
 8002eae:	f403 3300 	and.w	r3, r3, #131072	; 0x20000
 8002eb2:	2b00      	cmp	r3, #0
 8002eb4:	d1f0      	bne.n	8002e98 <HAL_RCC_OscConfig+0x10c>
 8002eb6:	e000      	b.n	8002eba <HAL_RCC_OscConfig+0x12e>
 8002eb8:	bf00      	nop
 8002eba:	687b      	ldr	r3, [r7, #4]
 8002ebc:	681b      	ldr	r3, [r3, #0]
 8002ebe:	f003 0302 	and.w	r3, r3, #2
 8002ec2:	2b00      	cmp	r3, #0
 8002ec4:	d063      	beq.n	8002f8e <HAL_RCC_OscConfig+0x202>
 8002ec6:	4b4c      	ldr	r3, [pc, #304]	; (8002ff8 <HAL_RCC_OscConfig+0x26c>)
 8002ec8:	685b      	ldr	r3, [r3, #4]
 8002eca:	f003 030c 	and.w	r3, r3, #12
 8002ece:	2b00      	cmp	r3, #0
 8002ed0:	d00b      	beq.n	8002eea <HAL_RCC_OscConfig+0x15e>
 8002ed2:	4b49      	ldr	r3, [pc, #292]	; (8002ff8 <HAL_RCC_OscConfig+0x26c>)
 8002ed4:	685b      	ldr	r3, [r3, #4]
 8002ed6:	f003 030c 	and.w	r3, r3, #12
 8002eda:	2b08      	cmp	r3, #8
 8002edc:	d11c      	bne.n	8002f18 <HAL_RCC_OscConfig+0x18c>
 8002ede:	4b46      	ldr	r3, [pc, #280]	; (8002ff8 <HAL_RCC_OscConfig+0x26c>)
 8002ee0:	685b      	ldr	r3, [r3, #4]
 8002ee2:	f403 3380 	and.w	r3, r3, #65536	; 0x10000
 8002ee6:	2b00      	cmp	r3, #0
 8002ee8:	d116      	bne.n	8002f18 <HAL_RCC_OscConfig+0x18c>
 8002eea:	4b43      	ldr	r3, [pc, #268]	; (8002ff8 <HAL_RCC_OscConfig+0x26c>)
 8002eec:	681b      	ldr	r3, [r3, #0]
 8002eee:	f003 0302 	and.w	r3, r3, #2
 8002ef2:	2b00      	cmp	r3, #0
 8002ef4:	d005      	beq.n	8002f02 <HAL_RCC_OscConfig+0x176>
 8002ef6:	687b      	ldr	r3, [r7, #4]
 8002ef8:	691b      	ldr	r3, [r3, #16]
 8002efa:	2b01      	cmp	r3, #1
 8002efc:	d001      	beq.n	8002f02 <HAL_RCC_OscConfig+0x176>
 8002efe:	2301      	movs	r3, #1
 8002f00:	e1ba      	b.n	8003278 <HAL_RCC_OscConfig+0x4ec>
 8002f02:	4b3d      	ldr	r3, [pc, #244]	; (8002ff8 <HAL_RCC_OscConfig+0x26c>)
 8002f04:	681b      	ldr	r3, [r3, #0]
 8002f06:	f023 02f8 	bic.w	r2, r3, #248	; 0xf8
 8002f0a:	687b      	ldr	r3, [r7, #4]
 8002f0c:	695b      	ldr	r3, [r3, #20]
 8002f0e:	00db      	lsls	r3, r3, #3
 8002f10:	4939      	ldr	r1, [pc, #228]	; (8002ff8 <HAL_RCC_OscConfig+0x26c>)
 8002f12:	4313      	orrs	r3, r2
 8002f14:	600b      	str	r3, [r1, #0]
 8002f16:	e03a      	b.n	8002f8e <HAL_RCC_OscConfig+0x202>
 8002f18:	687b      	ldr	r3, [r7, #4]
 8002f1a:	691b      	ldr	r3, [r3, #16]
 8002f1c:	2b00      	cmp	r3, #0
 8002f1e:	d020      	beq.n	8002f62 <HAL_RCC_OscConfig+0x1d6>
 8002f20:	4b36      	ldr	r3, [pc, #216]	; (8002ffc <HAL_RCC_OscConfig+0x270>)
 8002f22:	2201      	movs	r2, #1
 8002f24:	601a      	str	r2, [r3, #0]
 8002f26:	f7fd fde1 	bl	8000aec <HAL_GetTick>
 8002f2a:	6138      	str	r0, [r7, #16]
 8002f2c:	e008      	b.n	8002f40 <HAL_RCC_OscConfig+0x1b4>
 8002f2e:	f7fd fddd 	bl	8000aec <HAL_GetTick>
 8002f32:	4602      	mov	r2, r0
 8002f34:	693b      	ldr	r3, [r7, #16]
 8002f36:	1ad3      	subs	r3, r2, r3
 8002f38:	2b02      	cmp	r3, #2
 8002f3a:	d901      	bls.n	8002f40 <HAL_RCC_OscConfig+0x1b4>
 8002f3c:	2303      	movs	r3, #3
 8002f3e:	e19b      	b.n	8003278 <HAL_RCC_OscConfig+0x4ec>
 8002f40:	4b2d      	ldr	r3, [pc, #180]	; (8002ff8 <HAL_RCC_OscConfig+0x26c>)
 8002f42:	681b      	ldr	r3, [r3, #0]
 8002f44:	f003 0302 	and.w	r3, r3, #2
 8002f48:	2b00      	cmp	r3, #0
 8002f4a:	d0f0      	beq.n	8002f2e <HAL_RCC_OscConfig+0x1a2>
 8002f4c:	4b2a      	ldr	r3, [pc, #168]	; (8002ff8 <HAL_RCC_OscConfig+0x26c>)
 8002f4e:	681b      	ldr	r3, [r3, #0]
 8002f50:	f023 02f8 	bic.w	r2, r3, #248	; 0xf8
 8002f54:	687b      	ldr	r3, [r7, #4]
 8002f56:	695b      	ldr	r3, [r3, #20]
 8002f58:	00db      	lsls	r3, r3, #3
 8002f5a:	4927      	ldr	r1, [pc, #156]	; (8002ff8 <HAL_RCC_OscConfig+0x26c>)
 8002f5c:	4313      	orrs	r3, r2
 8002f5e:	600b      	str	r3, [r1, #0]
 8002f60:	e015      	b.n	8002f8e <HAL_RCC_OscConfig+0x202>
 8002f62:	4b26      	ldr	r3, [pc, #152]	; (8002ffc <HAL_RCC_OscConfig+0x270>)
 8002f64:	2200      	movs	r2, #0
 8002f66:	601a      	str	r2, [r3, #0]
 8002f68:	f7fd fdc0 	bl	8000aec <HAL_GetTick>
 8002f6c:	6138      	str	r0, [r7, #16]
 8002f6e:	e008      	b.n	8002f82 <HAL_RCC_OscConfig+0x1f6>
 8002f70:	f7fd fdbc 	bl	8000aec <HAL_GetTick>
 8002f74:	4602      	mov	r2, r0
 8002f76:	693b      	ldr	r3, [r7, #16]
 8002f78:	1ad3      	subs	r3, r2, r3
 8002f7a:	2b02      	cmp	r3, #2
 8002f7c:	d901      	bls.n	8002f82 <HAL_RCC_OscConfig+0x1f6>
 8002f7e:	2303      	movs	r3, #3
 8002f80:	e17a      	b.n	8003278 <HAL_RCC_OscConfig+0x4ec>
 8002f82:	4b1d      	ldr	r3, [pc, #116]	; (8002ff8 <HAL_RCC_OscConfig+0x26c>)
 8002f84:	681b      	ldr	r3, [r3, #0]
 8002f86:	f003 0302 	and.w	r3, r3, #2
 8002f8a:	2b00      	cmp	r3, #0
 8002f8c:	d1f0      	bne.n	8002f70 <HAL_RCC_OscConfig+0x1e4>
 8002f8e:	687b      	ldr	r3, [r7, #4]
 8002f90:	681b      	ldr	r3, [r3, #0]
 8002f92:	f003 0308 	and.w	r3, r3, #8
 8002f96:	2b00      	cmp	r3, #0
 8002f98:	d03a      	beq.n	8003010 <HAL_RCC_OscConfig+0x284>
 8002f9a:	687b      	ldr	r3, [r7, #4]
 8002f9c:	699b      	ldr	r3, [r3, #24]
 8002f9e:	2b00      	cmp	r3, #0
 8002fa0:	d019      	beq.n	8002fd6 <HAL_RCC_OscConfig+0x24a>
 8002fa2:	4b17      	ldr	r3, [pc, #92]	; (8003000 <HAL_RCC_OscConfig+0x274>)
 8002fa4:	2201      	movs	r2, #1
 8002fa6:	601a      	str	r2, [r3, #0]
 8002fa8:	f7fd fda0 	bl	8000aec <HAL_GetTick>
 8002fac:	6138      	str	r0, [r7, #16]
 8002fae:	e008      	b.n	8002fc2 <HAL_RCC_OscConfig+0x236>
 8002fb0:	f7fd fd9c 	bl	8000aec <HAL_GetTick>
 8002fb4:	4602      	mov	r2, r0
 8002fb6:	693b      	ldr	r3, [r7, #16]
 8002fb8:	1ad3      	subs	r3, r2, r3
 8002fba:	2b02      	cmp	r3, #2
 8002fbc:	d901      	bls.n	8002fc2 <HAL_RCC_OscConfig+0x236>
 8002fbe:	2303      	movs	r3, #3
 8002fc0:	e15a      	b.n	8003278 <HAL_RCC_OscConfig+0x4ec>
 8002fc2:	4b0d      	ldr	r3, [pc, #52]	; (8002ff8 <HAL_RCC_OscConfig+0x26c>)
 8002fc4:	6a5b      	ldr	r3, [r3, #36]	; 0x24
 8002fc6:	f003 0302 	and.w	r3, r3, #2
 8002fca:	2b00      	cmp	r3, #0
 8002fcc:	d0f0      	beq.n	8002fb0 <HAL_RCC_OscConfig+0x224>
 8002fce:	2001      	movs	r0, #1
 8002fd0:	f000 fac6 	bl	8003560 <RCC_Delay>
 8002fd4:	e01c      	b.n	8003010 <HAL_RCC_OscConfig+0x284>
 8002fd6:	4b0a      	ldr	r3, [pc, #40]	; (8003000 <HAL_RCC_OscConfig+0x274>)
 8002fd8:	2200      	movs	r2, #0
 8002fda:	601a      	str	r2, [r3, #0]
 8002fdc:	f7fd fd86 	bl	8000aec <HAL_GetTick>
 8002fe0:	6138      	str	r0, [r7, #16]
 8002fe2:	e00f      	b.n	8003004 <HAL_RCC_OscConfig+0x278>
 8002fe4:	f7fd fd82 	bl	8000aec <HAL_GetTick>
 8002fe8:	4602      	mov	r2, r0
 8002fea:	693b      	ldr	r3, [r7, #16]
 8002fec:	1ad3      	subs	r3, r2, r3
 8002fee:	2b02      	cmp	r3, #2
 8002ff0:	d908      	bls.n	8003004 <HAL_RCC_OscConfig+0x278>
 8002ff2:	2303      	movs	r3, #3
 8002ff4:	e140      	b.n	8003278 <HAL_RCC_OscConfig+0x4ec>
 8002ff6:	bf00      	nop
 8002ff8:	40021000 	.word	0x40021000
 8002ffc:	42420000 	.word	0x42420000
 8003000:	42420480 	.word	0x42420480
 8003004:	4b9e      	ldr	r3, [pc, #632]	; (8003280 <HAL_RCC_OscConfig+0x4f4>)
 8003006:	6a5b      	ldr	r3, [r3, #36]	; 0x24
 8003008:	f003 0302 	and.w	r3, r3, #2
 800300c:	2b00      	cmp	r3, #0
 800300e:	d1e9      	bne.n	8002fe4 <HAL_RCC_OscConfig+0x258>
 8003010:	687b      	ldr	r3, [r7, #4]
 8003012:	681b      	ldr	r3, [r3, #0]
 8003014:	f003 0304 	and.w	r3, r3, #4
 8003018:	2b00      	cmp	r3, #0
 800301a:	f000 80a6 	beq.w	800316a <HAL_RCC_OscConfig+0x3de>
 800301e:	2300      	movs	r3, #0
 8003020:	75fb      	strb	r3, [r7, #23]
 8003022:	4b97      	ldr	r3, [pc, #604]	; (8003280 <HAL_RCC_OscConfig+0x4f4>)
 8003024:	69db      	ldr	r3, [r3, #28]
 8003026:	f003 5380 	and.w	r3, r3, #268435456	; 0x10000000
 800302a:	2b00      	cmp	r3, #0
 800302c:	d10d      	bne.n	800304a <HAL_RCC_OscConfig+0x2be>
 800302e:	4b94      	ldr	r3, [pc, #592]	; (8003280 <HAL_RCC_OscConfig+0x4f4>)
 8003030:	69db      	ldr	r3, [r3, #28]
 8003032:	4a93      	ldr	r2, [pc, #588]	; (8003280 <HAL_RCC_OscConfig+0x4f4>)
 8003034:	f043 5380 	orr.w	r3, r3, #268435456	; 0x10000000
 8003038:	61d3      	str	r3, [r2, #28]
 800303a:	4b91      	ldr	r3, [pc, #580]	; (8003280 <HAL_RCC_OscConfig+0x4f4>)
 800303c:	69db      	ldr	r3, [r3, #28]
 800303e:	f003 5380 	and.w	r3, r3, #268435456	; 0x10000000
 8003042:	60bb      	str	r3, [r7, #8]
 8003044:	68bb      	ldr	r3, [r7, #8]
 8003046:	2301      	movs	r3, #1
 8003048:	75fb      	strb	r3, [r7, #23]
 800304a:	4b8e      	ldr	r3, [pc, #568]	; (8003284 <HAL_RCC_OscConfig+0x4f8>)
 800304c:	681b      	ldr	r3, [r3, #0]
 800304e:	f403 7380 	and.w	r3, r3, #256	; 0x100
 8003052:	2b00      	cmp	r3, #0
 8003054:	d118      	bne.n	8003088 <HAL_RCC_OscConfig+0x2fc>
 8003056:	4b8b      	ldr	r3, [pc, #556]	; (8003284 <HAL_RCC_OscConfig+0x4f8>)
 8003058:	681b      	ldr	r3, [r3, #0]
 800305a:	4a8a      	ldr	r2, [pc, #552]	; (8003284 <HAL_RCC_OscConfig+0x4f8>)
 800305c:	f443 7380 	orr.w	r3, r3, #256	; 0x100
 8003060:	6013      	str	r3, [r2, #0]
 8003062:	f7fd fd43 	bl	8000aec <HAL_GetTick>
 8003066:	6138      	str	r0, [r7, #16]
 8003068:	e008      	b.n	800307c <HAL_RCC_OscConfig+0x2f0>
 800306a:	f7fd fd3f 	bl	8000aec <HAL_GetTick>
 800306e:	4602      	mov	r2, r0
 8003070:	693b      	ldr	r3, [r7, #16]
 8003072:	1ad3      	subs	r3, r2, r3
 8003074:	2b64      	cmp	r3, #100	; 0x64
 8003076:	d901      	bls.n	800307c <HAL_RCC_OscConfig+0x2f0>
 8003078:	2303      	movs	r3, #3
 800307a:	e0fd      	b.n	8003278 <HAL_RCC_OscConfig+0x4ec>
 800307c:	4b81      	ldr	r3, [pc, #516]	; (8003284 <HAL_RCC_OscConfig+0x4f8>)
 800307e:	681b      	ldr	r3, [r3, #0]
 8003080:	f403 7380 	and.w	r3, r3, #256	; 0x100
 8003084:	2b00      	cmp	r3, #0
 8003086:	d0f0      	beq.n	800306a <HAL_RCC_OscConfig+0x2de>
 8003088:	687b      	ldr	r3, [r7, #4]
 800308a:	68db      	ldr	r3, [r3, #12]
 800308c:	2b01      	cmp	r3, #1
 800308e:	d106      	bne.n	800309e <HAL_RCC_OscConfig+0x312>
 8003090:	4b7b      	ldr	r3, [pc, #492]	; (8003280 <HAL_RCC_OscConfig+0x4f4>)
 8003092:	6a1b      	ldr	r3, [r3, #32]
 8003094:	4a7a      	ldr	r2, [pc, #488]	; (8003280 <HAL_RCC_OscConfig+0x4f4>)
 8003096:	f043 0301 	orr.w	r3, r3, #1
 800309a:	6213      	str	r3, [r2, #32]
 800309c:	e02d      	b.n	80030fa <HAL_RCC_OscConfig+0x36e>
 800309e:	687b      	ldr	r3, [r7, #4]
 80030a0:	68db      	ldr	r3, [r3, #12]
 80030a2:	2b00      	cmp	r3, #0
 80030a4:	d10c      	bne.n	80030c0 <HAL_RCC_OscConfig+0x334>
 80030a6:	4b76      	ldr	r3, [pc, #472]	; (8003280 <HAL_RCC_OscConfig+0x4f4>)
 80030a8:	6a1b      	ldr	r3, [r3, #32]
 80030aa:	4a75      	ldr	r2, [pc, #468]	; (8003280 <HAL_RCC_OscConfig+0x4f4>)
 80030ac:	f023 0301 	bic.w	r3, r3, #1
 80030b0:	6213      	str	r3, [r2, #32]
 80030b2:	4b73      	ldr	r3, [pc, #460]	; (8003280 <HAL_RCC_OscConfig+0x4f4>)
 80030b4:	6a1b      	ldr	r3, [r3, #32]
 80030b6:	4a72      	ldr	r2, [pc, #456]	; (8003280 <HAL_RCC_OscConfig+0x4f4>)
 80030b8:	f023 0304 	bic.w	r3, r3, #4
 80030bc:	6213      	str	r3, [r2, #32]
 80030be:	e01c      	b.n	80030fa <HAL_RCC_OscConfig+0x36e>
 80030c0:	687b      	ldr	r3, [r7, #4]
 80030c2:	68db      	ldr	r3, [r3, #12]
 80030c4:	2b05      	cmp	r3, #5
 80030c6:	d10c      	bne.n	80030e2 <HAL_RCC_OscConfig+0x356>
 80030c8:	4b6d      	ldr	r3, [pc, #436]	; (8003280 <HAL_RCC_OscConfig+0x4f4>)
 80030ca:	6a1b      	ldr	r3, [r3, #32]
 80030cc:	4a6c      	ldr	r2, [pc, #432]	; (8003280 <HAL_RCC_OscConfig+0x4f4>)
 80030ce:	f043 0304 	orr.w	r3, r3, #4
 80030d2:	6213      	str	r3, [r2, #32]
 80030d4:	4b6a      	ldr	r3, [pc, #424]	; (8003280 <HAL_RCC_OscConfig+0x4f4>)
 80030d6:	6a1b      	ldr	r3, [r3, #32]
 80030d8:	4a69      	ldr	r2, [pc, #420]	; (8003280 <HAL_RCC_OscConfig+0x4f4>)
 80030da:	f043 0301 	orr.w	r3, r3, #1
 80030de:	6213      	str	r3, [r2, #32]
 80030e0:	e00b      	b.n	80030fa <HAL_RCC_OscConfig+0x36e>
 80030e2:	4b67      	ldr	r3, [pc, #412]	; (8003280 <HAL_RCC_OscConfig+0x4f4>)
 80030e4:	6a1b      	ldr	r3, [r3, #32]
 80030e6:	4a66      	ldr	r2, [pc, #408]	; (8003280 <HAL_RCC_OscConfig+0x4f4>)
 80030e8:	f023 0301 	bic.w	r3, r3, #1
 80030ec:	6213      	str	r3, [r2, #32]
 80030ee:	4b64      	ldr	r3, [pc, #400]	; (8003280 <HAL_RCC_OscConfig+0x4f4>)
 80030f0:	6a1b      	ldr	r3, [r3, #32]
 80030f2:	4a63      	ldr	r2, [pc, #396]	; (8003280 <HAL_RCC_OscConfig+0x4f4>)
 80030f4:	f023 0304 	bic.w	r3, r3, #4
 80030f8:	6213      	str	r3, [r2, #32]
 80030fa:	687b      	ldr	r3, [r7, #4]
 80030fc:	68db      	ldr	r3, [r3, #12]
 80030fe:	2b00      	cmp	r3, #0
 8003100:	d015      	beq.n	800312e <HAL_RCC_OscConfig+0x3a2>
 8003102:	f7fd fcf3 	bl	8000aec <HAL_GetTick>
 8003106:	6138      	str	r0, [r7, #16]
 8003108:	e00a      	b.n	8003120 <HAL_RCC_OscConfig+0x394>
 800310a:	f7fd fcef 	bl	8000aec <HAL_GetTick>
 800310e:	4602      	mov	r2, r0
 8003110:	693b      	ldr	r3, [r7, #16]
 8003112:	1ad3      	subs	r3, r2, r3
 8003114:	f241 3288 	movw	r2, #5000	; 0x1388
 8003118:	4293      	cmp	r3, r2
 800311a:	d901      	bls.n	8003120 <HAL_RCC_OscConfig+0x394>
 800311c:	2303      	movs	r3, #3
 800311e:	e0ab      	b.n	8003278 <HAL_RCC_OscConfig+0x4ec>
 8003120:	4b57      	ldr	r3, [pc, #348]	; (8003280 <HAL_RCC_OscConfig+0x4f4>)
 8003122:	6a1b      	ldr	r3, [r3, #32]
 8003124:	f003 0302 	and.w	r3, r3, #2
 8003128:	2b00      	cmp	r3, #0
 800312a:	d0ee      	beq.n	800310a <HAL_RCC_OscConfig+0x37e>
 800312c:	e014      	b.n	8003158 <HAL_RCC_OscConfig+0x3cc>
 800312e:	f7fd fcdd 	bl	8000aec <HAL_GetTick>
 8003132:	6138      	str	r0, [r7, #16]
 8003134:	e00a      	b.n	800314c <HAL_RCC_OscConfig+0x3c0>
 8003136:	f7fd fcd9 	bl	8000aec <HAL_GetTick>
 800313a:	4602      	mov	r2, r0
 800313c:	693b      	ldr	r3, [r7, #16]
 800313e:	1ad3      	subs	r3, r2, r3
 8003140:	f241 3288 	movw	r2, #5000	; 0x1388
 8003144:	4293      	cmp	r3, r2
 8003146:	d901      	bls.n	800314c <HAL_RCC_OscConfig+0x3c0>
 8003148:	2303      	movs	r3, #3
 800314a:	e095      	b.n	8003278 <HAL_RCC_OscConfig+0x4ec>
 800314c:	4b4c      	ldr	r3, [pc, #304]	; (8003280 <HAL_RCC_OscConfig+0x4f4>)
 800314e:	6a1b      	ldr	r3, [r3, #32]
 8003150:	f003 0302 	and.w	r3, r3, #2
 8003154:	2b00      	cmp	r3, #0
 8003156:	d1ee      	bne.n	8003136 <HAL_RCC_OscConfig+0x3aa>
 8003158:	7dfb      	ldrb	r3, [r7, #23]
 800315a:	2b01      	cmp	r3, #1
 800315c:	d105      	bne.n	800316a <HAL_RCC_OscConfig+0x3de>
 800315e:	4b48      	ldr	r3, [pc, #288]	; (8003280 <HAL_RCC_OscConfig+0x4f4>)
 8003160:	69db      	ldr	r3, [r3, #28]
 8003162:	4a47      	ldr	r2, [pc, #284]	; (8003280 <HAL_RCC_OscConfig+0x4f4>)
 8003164:	f023 5380 	bic.w	r3, r3, #268435456	; 0x10000000
 8003168:	61d3      	str	r3, [r2, #28]
 800316a:	687b      	ldr	r3, [r7, #4]
 800316c:	69db      	ldr	r3, [r3, #28]
 800316e:	2b00      	cmp	r3, #0
 8003170:	f000 8081 	beq.w	8003276 <HAL_RCC_OscConfig+0x4ea>
 8003174:	4b42      	ldr	r3, [pc, #264]	; (8003280 <HAL_RCC_OscConfig+0x4f4>)
 8003176:	685b      	ldr	r3, [r3, #4]
 8003178:	f003 030c 	and.w	r3, r3, #12
 800317c:	2b08      	cmp	r3, #8
 800317e:	d061      	beq.n	8003244 <HAL_RCC_OscConfig+0x4b8>
 8003180:	687b      	ldr	r3, [r7, #4]
 8003182:	69db      	ldr	r3, [r3, #28]
 8003184:	2b02      	cmp	r3, #2
 8003186:	d146      	bne.n	8003216 <HAL_RCC_OscConfig+0x48a>
 8003188:	4b3f      	ldr	r3, [pc, #252]	; (8003288 <HAL_RCC_OscConfig+0x4fc>)
 800318a:	2200      	movs	r2, #0
 800318c:	601a      	str	r2, [r3, #0]
 800318e:	f7fd fcad 	bl	8000aec <HAL_GetTick>
 8003192:	6138      	str	r0, [r7, #16]
 8003194:	e008      	b.n	80031a8 <HAL_RCC_OscConfig+0x41c>
 8003196:	f7fd fca9 	bl	8000aec <HAL_GetTick>
 800319a:	4602      	mov	r2, r0
 800319c:	693b      	ldr	r3, [r7, #16]
 800319e:	1ad3      	subs	r3, r2, r3
 80031a0:	2b02      	cmp	r3, #2
 80031a2:	d901      	bls.n	80031a8 <HAL_RCC_OscConfig+0x41c>
 80031a4:	2303      	movs	r3, #3
 80031a6:	e067      	b.n	8003278 <HAL_RCC_OscConfig+0x4ec>
 80031a8:	4b35      	ldr	r3, [pc, #212]	; (8003280 <HAL_RCC_OscConfig+0x4f4>)
 80031aa:	681b      	ldr	r3, [r3, #0]
 80031ac:	f003 7300 	and.w	r3, r3, #33554432	; 0x2000000
 80031b0:	2b00      	cmp	r3, #0
 80031b2:	d1f0      	bne.n	8003196 <HAL_RCC_OscConfig+0x40a>
 80031b4:	687b      	ldr	r3, [r7, #4]
 80031b6:	6a1b      	ldr	r3, [r3, #32]
 80031b8:	f5b3 3f80 	cmp.w	r3, #65536	; 0x10000
 80031bc:	d108      	bne.n	80031d0 <HAL_RCC_OscConfig+0x444>
 80031be:	4b30      	ldr	r3, [pc, #192]	; (8003280 <HAL_RCC_OscConfig+0x4f4>)
 80031c0:	685b      	ldr	r3, [r3, #4]
 80031c2:	f423 3200 	bic.w	r2, r3, #131072	; 0x20000
 80031c6:	687b      	ldr	r3, [r7, #4]
 80031c8:	689b      	ldr	r3, [r3, #8]
 80031ca:	492d      	ldr	r1, [pc, #180]	; (8003280 <HAL_RCC_OscConfig+0x4f4>)
 80031cc:	4313      	orrs	r3, r2
 80031ce:	604b      	str	r3, [r1, #4]
 80031d0:	4b2b      	ldr	r3, [pc, #172]	; (8003280 <HAL_RCC_OscConfig+0x4f4>)
 80031d2:	685b      	ldr	r3, [r3, #4]
 80031d4:	f423 1274 	bic.w	r2, r3, #3997696	; 0x3d0000
 80031d8:	687b      	ldr	r3, [r7, #4]
 80031da:	6a19      	ldr	r1, [r3, #32]
 80031dc:	687b      	ldr	r3, [r7, #4]
 80031de:	6a5b      	ldr	r3, [r3, #36]	; 0x24
 80031e0:	430b      	orrs	r3, r1
 80031e2:	4927      	ldr	r1, [pc, #156]	; (8003280 <HAL_RCC_OscConfig+0x4f4>)
 80031e4:	4313      	orrs	r3, r2
 80031e6:	604b      	str	r3, [r1, #4]
 80031e8:	4b27      	ldr	r3, [pc, #156]	; (8003288 <HAL_RCC_OscConfig+0x4fc>)
 80031ea:	2201      	movs	r2, #1
 80031ec:	601a      	str	r2, [r3, #0]
 80031ee:	f7fd fc7d 	bl	8000aec <HAL_GetTick>
 80031f2:	6138      	str	r0, [r7, #16]
 80031f4:	e008      	b.n	8003208 <HAL_RCC_OscConfig+0x47c>
 80031f6:	f7fd fc79 	bl	8000aec <HAL_GetTick>
 80031fa:	4602      	mov	r2, r0
 80031fc:	693b      	ldr	r3, [r7, #16]
 80031fe:	1ad3      	subs	r3, r2, r3
 8003200:	2b02      	cmp	r3, #2
 8003202:	d901      	bls.n	8003208 <HAL_RCC_OscConfig+0x47c>
 8003204:	2303      	movs	r3, #3
 8003206:	e037      	b.n	8003278 <HAL_RCC_OscConfig+0x4ec>
 8003208:	4b1d      	ldr	r3, [pc, #116]	; (8003280 <HAL_RCC_OscConfig+0x4f4>)
 800320a:	681b      	ldr	r3, [r3, #0]
 800320c:	f003 7300 	and.w	r3, r3, #33554432	; 0x2000000
 8003210:	2b00      	cmp	r3, #0
 8003212:	d0f0      	beq.n	80031f6 <HAL_RCC_OscConfig+0x46a>
 8003214:	e02f      	b.n	8003276 <HAL_RCC_OscConfig+0x4ea>
 8003216:	4b1c      	ldr	r3, [pc, #112]	; (8003288 <HAL_RCC_OscConfig+0x4fc>)
 8003218:	2200      	movs	r2, #0
 800321a:	601a      	str	r2, [r3, #0]
 800321c:	f7fd fc66 	bl	8000aec <HAL_GetTick>
 8003220:	6138      	str	r0, [r7, #16]
 8003222:	e008      	b.n	8003236 <HAL_RCC_OscConfig+0x4aa>
 8003224:	f7fd fc62 	bl	8000aec <HAL_GetTick>
 8003228:	4602      	mov	r2, r0
 800322a:	693b      	ldr	r3, [r7, #16]
 800322c:	1ad3      	subs	r3, r2, r3
 800322e:	2b02      	cmp	r3, #2
 8003230:	d901      	bls.n	8003236 <HAL_RCC_OscConfig+0x4aa>
 8003232:	2303      	movs	r3, #3
 8003234:	e020      	b.n	8003278 <HAL_RCC_OscConfig+0x4ec>
 8003236:	4b12      	ldr	r3, [pc, #72]	; (8003280 <HAL_RCC_OscConfig+0x4f4>)
 8003238:	681b      	ldr	r3, [r3, #0]
 800323a:	f003 7300 	and.w	r3, r3, #33554432	; 0x2000000
 800323e:	2b00      	cmp	r3, #0
 8003240:	d1f0      	bne.n	8003224 <HAL_RCC_OscConfig+0x498>
 8003242:	e018      	b.n	8003276 <HAL_RCC_OscConfig+0x4ea>
 8003244:	687b      	ldr	r3, [r7, #4]
 8003246:	69db      	ldr	r3, [r3, #28]
 8003248:	2b01      	cmp	r3, #1
 800324a:	d101      	bne.n	8003250 <HAL_RCC_OscConfig+0x4c4>
 800324c:	2301      	movs	r3, #1
 800324e:	e013      	b.n	8003278 <HAL_RCC_OscConfig+0x4ec>
 8003250:	4b0b      	ldr	r3, [pc, #44]	; (8003280 <HAL_RCC_OscConfig+0x4f4>)
 8003252:	685b      	ldr	r3, [r3, #4]
 8003254:	60fb      	str	r3, [r7, #12]
 8003256:	68fb      	ldr	r3, [r7, #12]
 8003258:	f403 3280 	and.w	r2, r3, #65536	; 0x10000
 800325c:	687b      	ldr	r3, [r7, #4]
 800325e:	6a1b      	ldr	r3, [r3, #32]
 8003260:	429a      	cmp	r2, r3
 8003262:	d106      	bne.n	8003272 <HAL_RCC_OscConfig+0x4e6>
 8003264:	68fb      	ldr	r3, [r7, #12]
 8003266:	f403 1270 	and.w	r2, r3, #3932160	; 0x3c0000
 800326a:	687b      	ldr	r3, [r7, #4]
 800326c:	6a5b      	ldr	r3, [r3, #36]	; 0x24
 800326e:	429a      	cmp	r2, r3
 8003270:	d001      	beq.n	8003276 <HAL_RCC_OscConfig+0x4ea>
 8003272:	2301      	movs	r3, #1
 8003274:	e000      	b.n	8003278 <HAL_RCC_OscConfig+0x4ec>
 8003276:	2300      	movs	r3, #0
 8003278:	4618      	mov	r0, r3
 800327a:	3718      	adds	r7, #24
 800327c:	46bd      	mov	sp, r7
 800327e:	bd80      	pop	{r7, pc}
 8003280:	40021000 	.word	0x40021000
 8003284:	40007000 	.word	0x40007000
 8003288:	42420060 	.word	0x42420060

0800328c <HAL_RCC_ClockConfig>:
 800328c:	b580      	push	{r7, lr}
 800328e:	b084      	sub	sp, #16
 8003290:	af00      	add	r7, sp, #0
 8003292:	6078      	str	r0, [r7, #4]
 8003294:	6039      	str	r1, [r7, #0]
 8003296:	687b      	ldr	r3, [r7, #4]
 8003298:	2b00      	cmp	r3, #0
 800329a:	d101      	bne.n	80032a0 <HAL_RCC_ClockConfig+0x14>
 800329c:	2301      	movs	r3, #1
 800329e:	e0d0      	b.n	8003442 <HAL_RCC_ClockConfig+0x1b6>
 80032a0:	4b6a      	ldr	r3, [pc, #424]	; (800344c <HAL_RCC_ClockConfig+0x1c0>)
 80032a2:	681b      	ldr	r3, [r3, #0]
 80032a4:	f003 0307 	and.w	r3, r3, #7
 80032a8:	683a      	ldr	r2, [r7, #0]
 80032aa:	429a      	cmp	r2, r3
 80032ac:	d910      	bls.n	80032d0 <HAL_RCC_ClockConfig+0x44>
 80032ae:	4b67      	ldr	r3, [pc, #412]	; (800344c <HAL_RCC_ClockConfig+0x1c0>)
 80032b0:	681b      	ldr	r3, [r3, #0]
 80032b2:	f023 0207 	bic.w	r2, r3, #7
 80032b6:	4965      	ldr	r1, [pc, #404]	; (800344c <HAL_RCC_ClockConfig+0x1c0>)
 80032b8:	683b      	ldr	r3, [r7, #0]
 80032ba:	4313      	orrs	r3, r2
 80032bc:	600b      	str	r3, [r1, #0]
 80032be:	4b63      	ldr	r3, [pc, #396]	; (800344c <HAL_RCC_ClockConfig+0x1c0>)
 80032c0:	681b      	ldr	r3, [r3, #0]
 80032c2:	f003 0307 	and.w	r3, r3, #7
 80032c6:	683a      	ldr	r2, [r7, #0]
 80032c8:	429a      	cmp	r2, r3
 80032ca:	d001      	beq.n	80032d0 <HAL_RCC_ClockConfig+0x44>
 80032cc:	2301      	movs	r3, #1
 80032ce:	e0b8      	b.n	8003442 <HAL_RCC_ClockConfig+0x1b6>
 80032d0:	687b      	ldr	r3, [r7, #4]
 80032d2:	681b      	ldr	r3, [r3, #0]
 80032d4:	f003 0302 	and.w	r3, r3, #2
 80032d8:	2b00      	cmp	r3, #0
 80032da:	d020      	beq.n	800331e <HAL_RCC_ClockConfig+0x92>
 80032dc:	687b      	ldr	r3, [r7, #4]
 80032de:	681b      	ldr	r3, [r3, #0]
 80032e0:	f003 0304 	and.w	r3, r3, #4
 80032e4:	2b00      	cmp	r3, #0
 80032e6:	d005      	beq.n	80032f4 <HAL_RCC_ClockConfig+0x68>
 80032e8:	4b59      	ldr	r3, [pc, #356]	; (8003450 <HAL_RCC_ClockConfig+0x1c4>)
 80032ea:	685b      	ldr	r3, [r3, #4]
 80032ec:	4a58      	ldr	r2, [pc, #352]	; (8003450 <HAL_RCC_ClockConfig+0x1c4>)
 80032ee:	f443 63e0 	orr.w	r3, r3, #1792	; 0x700
 80032f2:	6053      	str	r3, [r2, #4]
 80032f4:	687b      	ldr	r3, [r7, #4]
 80032f6:	681b      	ldr	r3, [r3, #0]
 80032f8:	f003 0308 	and.w	r3, r3, #8
 80032fc:	2b00      	cmp	r3, #0
 80032fe:	d005      	beq.n	800330c <HAL_RCC_ClockConfig+0x80>
 8003300:	4b53      	ldr	r3, [pc, #332]	; (8003450 <HAL_RCC_ClockConfig+0x1c4>)
 8003302:	685b      	ldr	r3, [r3, #4]
 8003304:	4a52      	ldr	r2, [pc, #328]	; (8003450 <HAL_RCC_ClockConfig+0x1c4>)
 8003306:	f443 5360 	orr.w	r3, r3, #14336	; 0x3800
 800330a:	6053      	str	r3, [r2, #4]
 800330c:	4b50      	ldr	r3, [pc, #320]	; (8003450 <HAL_RCC_ClockConfig+0x1c4>)
 800330e:	685b      	ldr	r3, [r3, #4]
 8003310:	f023 02f0 	bic.w	r2, r3, #240	; 0xf0
 8003314:	687b      	ldr	r3, [r7, #4]
 8003316:	689b      	ldr	r3, [r3, #8]
 8003318:	494d      	ldr	r1, [pc, #308]	; (8003450 <HAL_RCC_ClockConfig+0x1c4>)
 800331a:	4313      	orrs	r3, r2
 800331c:	604b      	str	r3, [r1, #4]
 800331e:	687b      	ldr	r3, [r7, #4]
 8003320:	681b      	ldr	r3, [r3, #0]
 8003322:	f003 0301 	and.w	r3, r3, #1
 8003326:	2b00      	cmp	r3, #0
 8003328:	d040      	beq.n	80033ac <HAL_RCC_ClockConfig+0x120>
 800332a:	687b      	ldr	r3, [r7, #4]
 800332c:	685b      	ldr	r3, [r3, #4]
 800332e:	2b01      	cmp	r3, #1
 8003330:	d107      	bne.n	8003342 <HAL_RCC_ClockConfig+0xb6>
 8003332:	4b47      	ldr	r3, [pc, #284]	; (8003450 <HAL_RCC_ClockConfig+0x1c4>)
 8003334:	681b      	ldr	r3, [r3, #0]
 8003336:	f403 3300 	and.w	r3, r3, #131072	; 0x20000
 800333a:	2b00      	cmp	r3, #0
 800333c:	d115      	bne.n	800336a <HAL_RCC_ClockConfig+0xde>
 800333e:	2301      	movs	r3, #1
 8003340:	e07f      	b.n	8003442 <HAL_RCC_ClockConfig+0x1b6>
 8003342:	687b      	ldr	r3, [r7, #4]
 8003344:	685b      	ldr	r3, [r3, #4]
 8003346:	2b02      	cmp	r3, #2
 8003348:	d107      	bne.n	800335a <HAL_RCC_ClockConfig+0xce>
 800334a:	4b41      	ldr	r3, [pc, #260]	; (8003450 <HAL_RCC_ClockConfig+0x1c4>)
 800334c:	681b      	ldr	r3, [r3, #0]
 800334e:	f003 7300 	and.w	r3, r3, #33554432	; 0x2000000
 8003352:	2b00      	cmp	r3, #0
 8003354:	d109      	bne.n	800336a <HAL_RCC_ClockConfig+0xde>
 8003356:	2301      	movs	r3, #1
 8003358:	e073      	b.n	8003442 <HAL_RCC_ClockConfig+0x1b6>
 800335a:	4b3d      	ldr	r3, [pc, #244]	; (8003450 <HAL_RCC_ClockConfig+0x1c4>)
 800335c:	681b      	ldr	r3, [r3, #0]
 800335e:	f003 0302 	and.w	r3, r3, #2
 8003362:	2b00      	cmp	r3, #0
 8003364:	d101      	bne.n	800336a <HAL_RCC_ClockConfig+0xde>
 8003366:	2301      	movs	r3, #1
 8003368:	e06b      	b.n	8003442 <HAL_RCC_ClockConfig+0x1b6>
 800336a:	4b39      	ldr	r3, [pc, #228]	; (8003450 <HAL_RCC_ClockConfig+0x1c4>)
 800336c:	685b      	ldr	r3, [r3, #4]
 800336e:	f023 0203 	bic.w	r2, r3, #3
 8003372:	687b      	ldr	r3, [r7, #4]
 8003374:	685b      	ldr	r3, [r3, #4]
 8003376:	4936      	ldr	r1, [pc, #216]	; (8003450 <HAL_RCC_ClockConfig+0x1c4>)
 8003378:	4313      	orrs	r3, r2
 800337a:	604b      	str	r3, [r1, #4]
 800337c:	f7fd fbb6 	bl	8000aec <HAL_GetTick>
 8003380:	60f8      	str	r0, [r7, #12]
 8003382:	e00a      	b.n	800339a <HAL_RCC_ClockConfig+0x10e>
 8003384:	f7fd fbb2 	bl	8000aec <HAL_GetTick>
 8003388:	4602      	mov	r2, r0
 800338a:	68fb      	ldr	r3, [r7, #12]
 800338c:	1ad3      	subs	r3, r2, r3
 800338e:	f241 3288 	movw	r2, #5000	; 0x1388
 8003392:	4293      	cmp	r3, r2
 8003394:	d901      	bls.n	800339a <HAL_RCC_ClockConfig+0x10e>
 8003396:	2303      	movs	r3, #3
 8003398:	e053      	b.n	8003442 <HAL_RCC_ClockConfig+0x1b6>
 800339a:	4b2d      	ldr	r3, [pc, #180]	; (8003450 <HAL_RCC_ClockConfig+0x1c4>)
 800339c:	685b      	ldr	r3, [r3, #4]
 800339e:	f003 020c 	and.w	r2, r3, #12
 80033a2:	687b      	ldr	r3, [r7, #4]
 80033a4:	685b      	ldr	r3, [r3, #4]
 80033a6:	009b      	lsls	r3, r3, #2
 80033a8:	429a      	cmp	r2, r3
 80033aa:	d1eb      	bne.n	8003384 <HAL_RCC_ClockConfig+0xf8>
 80033ac:	4b27      	ldr	r3, [pc, #156]	; (800344c <HAL_RCC_ClockConfig+0x1c0>)
 80033ae:	681b      	ldr	r3, [r3, #0]
 80033b0:	f003 0307 	and.w	r3, r3, #7
 80033b4:	683a      	ldr	r2, [r7, #0]
 80033b6:	429a      	cmp	r2, r3
 80033b8:	d210      	bcs.n	80033dc <HAL_RCC_ClockConfig+0x150>
 80033ba:	4b24      	ldr	r3, [pc, #144]	; (800344c <HAL_RCC_ClockConfig+0x1c0>)
 80033bc:	681b      	ldr	r3, [r3, #0]
 80033be:	f023 0207 	bic.w	r2, r3, #7
 80033c2:	4922      	ldr	r1, [pc, #136]	; (800344c <HAL_RCC_ClockConfig+0x1c0>)
 80033c4:	683b      	ldr	r3, [r7, #0]
 80033c6:	4313      	orrs	r3, r2
 80033c8:	600b      	str	r3, [r1, #0]
 80033ca:	4b20      	ldr	r3, [pc, #128]	; (800344c <HAL_RCC_ClockConfig+0x1c0>)
 80033cc:	681b      	ldr	r3, [r3, #0]
 80033ce:	f003 0307 	and.w	r3, r3, #7
 80033d2:	683a      	ldr	r2, [r7, #0]
 80033d4:	429a      	cmp	r2, r3
 80033d6:	d001      	beq.n	80033dc <HAL_RCC_ClockConfig+0x150>
 80033d8:	2301      	movs	r3, #1
 80033da:	e032      	b.n	8003442 <HAL_RCC_ClockConfig+0x1b6>
 80033dc:	687b      	ldr	r3, [r7, #4]
 80033de:	681b      	ldr	r3, [r3, #0]
 80033e0:	f003 0304 	and.w	r3, r3, #4
 80033e4:	2b00      	cmp	r3, #0
 80033e6:	d008      	beq.n	80033fa <HAL_RCC_ClockConfig+0x16e>
 80033e8:	4b19      	ldr	r3, [pc, #100]	; (8003450 <HAL_RCC_ClockConfig+0x1c4>)
 80033ea:	685b      	ldr	r3, [r3, #4]
 80033ec:	f423 62e0 	bic.w	r2, r3, #1792	; 0x700
 80033f0:	687b      	ldr	r3, [r7, #4]
 80033f2:	68db      	ldr	r3, [r3, #12]
 80033f4:	4916      	ldr	r1, [pc, #88]	; (8003450 <HAL_RCC_ClockConfig+0x1c4>)
 80033f6:	4313      	orrs	r3, r2
 80033f8:	604b      	str	r3, [r1, #4]
 80033fa:	687b      	ldr	r3, [r7, #4]
 80033fc:	681b      	ldr	r3, [r3, #0]
 80033fe:	f003 0308 	and.w	r3, r3, #8
 8003402:	2b00      	cmp	r3, #0
 8003404:	d009      	beq.n	800341a <HAL_RCC_ClockConfig+0x18e>
 8003406:	4b12      	ldr	r3, [pc, #72]	; (8003450 <HAL_RCC_ClockConfig+0x1c4>)
 8003408:	685b      	ldr	r3, [r3, #4]
 800340a:	f423 5260 	bic.w	r2, r3, #14336	; 0x3800
 800340e:	687b      	ldr	r3, [r7, #4]
 8003410:	691b      	ldr	r3, [r3, #16]
 8003412:	00db      	lsls	r3, r3, #3
 8003414:	490e      	ldr	r1, [pc, #56]	; (8003450 <HAL_RCC_ClockConfig+0x1c4>)
 8003416:	4313      	orrs	r3, r2
 8003418:	604b      	str	r3, [r1, #4]
 800341a:	f000 f821 	bl	8003460 <HAL_RCC_GetSysClockFreq>
 800341e:	4601      	mov	r1, r0
 8003420:	4b0b      	ldr	r3, [pc, #44]	; (8003450 <HAL_RCC_ClockConfig+0x1c4>)
 8003422:	685b      	ldr	r3, [r3, #4]
 8003424:	091b      	lsrs	r3, r3, #4
 8003426:	f003 030f 	and.w	r3, r3, #15
 800342a:	4a0a      	ldr	r2, [pc, #40]	; (8003454 <HAL_RCC_ClockConfig+0x1c8>)
 800342c:	5cd3      	ldrb	r3, [r2, r3]
 800342e:	fa21 f303 	lsr.w	r3, r1, r3
 8003432:	4a09      	ldr	r2, [pc, #36]	; (8003458 <HAL_RCC_ClockConfig+0x1cc>)
 8003434:	6013      	str	r3, [r2, #0]
 8003436:	4b09      	ldr	r3, [pc, #36]	; (800345c <HAL_RCC_ClockConfig+0x1d0>)
 8003438:	681b      	ldr	r3, [r3, #0]
 800343a:	4618      	mov	r0, r3
 800343c:	f7fd fb14 	bl	8000a68 <HAL_InitTick>
 8003440:	2300      	movs	r3, #0
 8003442:	4618      	mov	r0, r3
 8003444:	3710      	adds	r7, #16
 8003446:	46bd      	mov	sp, r7
 8003448:	bd80      	pop	{r7, pc}
 800344a:	bf00      	nop
 800344c:	40022000 	.word	0x40022000
 8003450:	40021000 	.word	0x40021000
 8003454:	08007fcc 	.word	0x08007fcc
 8003458:	20000014 	.word	0x20000014
 800345c:	20000018 	.word	0x20000018

08003460 <HAL_RCC_GetSysClockFreq>:
 8003460:	b490      	push	{r4, r7}
 8003462:	b08a      	sub	sp, #40	; 0x28
 8003464:	af00      	add	r7, sp, #0
 8003466:	4b2a      	ldr	r3, [pc, #168]	; (8003510 <HAL_RCC_GetSysClockFreq+0xb0>)
 8003468:	1d3c      	adds	r4, r7, #4
 800346a:	cb0f      	ldmia	r3, {r0, r1, r2, r3}
 800346c:	e884 000f 	stmia.w	r4, {r0, r1, r2, r3}
 8003470:	4b28      	ldr	r3, [pc, #160]	; (8003514 <HAL_RCC_GetSysClockFreq+0xb4>)
 8003472:	881b      	ldrh	r3, [r3, #0]
 8003474:	803b      	strh	r3, [r7, #0]
 8003476:	2300      	movs	r3, #0
 8003478:	61fb      	str	r3, [r7, #28]
 800347a:	2300      	movs	r3, #0
 800347c:	61bb      	str	r3, [r7, #24]
 800347e:	2300      	movs	r3, #0
 8003480:	627b      	str	r3, [r7, #36]	; 0x24
 8003482:	2300      	movs	r3, #0
 8003484:	617b      	str	r3, [r7, #20]
 8003486:	2300      	movs	r3, #0
 8003488:	623b      	str	r3, [r7, #32]
 800348a:	4b23      	ldr	r3, [pc, #140]	; (8003518 <HAL_RCC_GetSysClockFreq+0xb8>)
 800348c:	685b      	ldr	r3, [r3, #4]
 800348e:	61fb      	str	r3, [r7, #28]
 8003490:	69fb      	ldr	r3, [r7, #28]
 8003492:	f003 030c 	and.w	r3, r3, #12
 8003496:	2b04      	cmp	r3, #4
 8003498:	d002      	beq.n	80034a0 <HAL_RCC_GetSysClockFreq+0x40>
 800349a:	2b08      	cmp	r3, #8
 800349c:	d003      	beq.n	80034a6 <HAL_RCC_GetSysClockFreq+0x46>
 800349e:	e02d      	b.n	80034fc <HAL_RCC_GetSysClockFreq+0x9c>
 80034a0:	4b1e      	ldr	r3, [pc, #120]	; (800351c <HAL_RCC_GetSysClockFreq+0xbc>)
 80034a2:	623b      	str	r3, [r7, #32]
 80034a4:	e02d      	b.n	8003502 <HAL_RCC_GetSysClockFreq+0xa2>
 80034a6:	69fb      	ldr	r3, [r7, #28]
 80034a8:	0c9b      	lsrs	r3, r3, #18
 80034aa:	f003 030f 	and.w	r3, r3, #15
 80034ae:	f107 0228 	add.w	r2, r7, #40	; 0x28
 80034b2:	4413      	add	r3, r2
 80034b4:	f813 3c24 	ldrb.w	r3, [r3, #-36]
 80034b8:	617b      	str	r3, [r7, #20]
 80034ba:	69fb      	ldr	r3, [r7, #28]
 80034bc:	f403 3380 	and.w	r3, r3, #65536	; 0x10000
 80034c0:	2b00      	cmp	r3, #0
 80034c2:	d013      	beq.n	80034ec <HAL_RCC_GetSysClockFreq+0x8c>
 80034c4:	4b14      	ldr	r3, [pc, #80]	; (8003518 <HAL_RCC_GetSysClockFreq+0xb8>)
 80034c6:	685b      	ldr	r3, [r3, #4]
 80034c8:	0c5b      	lsrs	r3, r3, #17
 80034ca:	f003 0301 	and.w	r3, r3, #1
 80034ce:	f107 0228 	add.w	r2, r7, #40	; 0x28
 80034d2:	4413      	add	r3, r2
 80034d4:	f813 3c28 	ldrb.w	r3, [r3, #-40]
 80034d8:	61bb      	str	r3, [r7, #24]
 80034da:	697b      	ldr	r3, [r7, #20]
 80034dc:	4a0f      	ldr	r2, [pc, #60]	; (800351c <HAL_RCC_GetSysClockFreq+0xbc>)
 80034de:	fb02 f203 	mul.w	r2, r2, r3
 80034e2:	69bb      	ldr	r3, [r7, #24]
 80034e4:	fbb2 f3f3 	udiv	r3, r2, r3
 80034e8:	627b      	str	r3, [r7, #36]	; 0x24
 80034ea:	e004      	b.n	80034f6 <HAL_RCC_GetSysClockFreq+0x96>
 80034ec:	697b      	ldr	r3, [r7, #20]
 80034ee:	4a0c      	ldr	r2, [pc, #48]	; (8003520 <HAL_RCC_GetSysClockFreq+0xc0>)
 80034f0:	fb02 f303 	mul.w	r3, r2, r3
 80034f4:	627b      	str	r3, [r7, #36]	; 0x24
 80034f6:	6a7b      	ldr	r3, [r7, #36]	; 0x24
 80034f8:	623b      	str	r3, [r7, #32]
 80034fa:	e002      	b.n	8003502 <HAL_RCC_GetSysClockFreq+0xa2>
 80034fc:	4b07      	ldr	r3, [pc, #28]	; (800351c <HAL_RCC_GetSysClockFreq+0xbc>)
 80034fe:	623b      	str	r3, [r7, #32]
 8003500:	bf00      	nop
 8003502:	6a3b      	ldr	r3, [r7, #32]
 8003504:	4618      	mov	r0, r3
 8003506:	3728      	adds	r7, #40	; 0x28
 8003508:	46bd      	mov	sp, r7
 800350a:	bc90      	pop	{r4, r7}
 800350c:	4770      	bx	lr
 800350e:	bf00      	nop
 8003510:	08007f70 	.word	0x08007f70
 8003514:	08007f80 	.word	0x08007f80
 8003518:	40021000 	.word	0x40021000
 800351c:	007a1200 	.word	0x007a1200
 8003520:	003d0900 	.word	0x003d0900

08003524 <HAL_RCC_GetHCLKFreq>:
 8003524:	b480      	push	{r7}
 8003526:	af00      	add	r7, sp, #0
 8003528:	4b02      	ldr	r3, [pc, #8]	; (8003534 <HAL_RCC_GetHCLKFreq+0x10>)
 800352a:	681b      	ldr	r3, [r3, #0]
 800352c:	4618      	mov	r0, r3
 800352e:	46bd      	mov	sp, r7
 8003530:	bc80      	pop	{r7}
 8003532:	4770      	bx	lr
 8003534:	20000014 	.word	0x20000014

08003538 <HAL_RCC_GetPCLK1Freq>:
 8003538:	b580      	push	{r7, lr}
 800353a:	af00      	add	r7, sp, #0
 800353c:	f7ff fff2 	bl	8003524 <HAL_RCC_GetHCLKFreq>
 8003540:	4601      	mov	r1, r0
 8003542:	4b05      	ldr	r3, [pc, #20]	; (8003558 <HAL_RCC_GetPCLK1Freq+0x20>)
 8003544:	685b      	ldr	r3, [r3, #4]
 8003546:	0a1b      	lsrs	r3, r3, #8
 8003548:	f003 0307 	and.w	r3, r3, #7
 800354c:	4a03      	ldr	r2, [pc, #12]	; (800355c <HAL_RCC_GetPCLK1Freq+0x24>)
 800354e:	5cd3      	ldrb	r3, [r2, r3]
 8003550:	fa21 f303 	lsr.w	r3, r1, r3
 8003554:	4618      	mov	r0, r3
 8003556:	bd80      	pop	{r7, pc}
 8003558:	40021000 	.word	0x40021000
 800355c:	08007fdc 	.word	0x08007fdc

08003560 <RCC_Delay>:
 8003560:	b480      	push	{r7}
 8003562:	b085      	sub	sp, #20
 8003564:	af00      	add	r7, sp, #0
 8003566:	6078      	str	r0, [r7, #4]
 8003568:	4b0a      	ldr	r3, [pc, #40]	; (8003594 <RCC_Delay+0x34>)
 800356a:	681b      	ldr	r3, [r3, #0]
 800356c:	4a0a      	ldr	r2, [pc, #40]	; (8003598 <RCC_Delay+0x38>)
 800356e:	fba2 2303 	umull	r2, r3, r2, r3
 8003572:	0a5b      	lsrs	r3, r3, #9
 8003574:	687a      	ldr	r2, [r7, #4]
 8003576:	fb02 f303 	mul.w	r3, r2, r3
 800357a:	60fb      	str	r3, [r7, #12]
 800357c:	bf00      	nop
 800357e:	68fb      	ldr	r3, [r7, #12]
 8003580:	1e5a      	subs	r2, r3, #1
 8003582:	60fa      	str	r2, [r7, #12]
 8003584:	2b00      	cmp	r3, #0
 8003586:	d1f9      	bne.n	800357c <RCC_Delay+0x1c>
 8003588:	bf00      	nop
 800358a:	3714      	adds	r7, #20
 800358c:	46bd      	mov	sp, r7
 800358e:	bc80      	pop	{r7}
 8003590:	4770      	bx	lr
 8003592:	bf00      	nop
 8003594:	20000014 	.word	0x20000014
 8003598:	10624dd3 	.word	0x10624dd3

0800359c <HAL_RCCEx_PeriphCLKConfig>:
 800359c:	b580      	push	{r7, lr}
 800359e:	b086      	sub	sp, #24
 80035a0:	af00      	add	r7, sp, #0
 80035a2:	6078      	str	r0, [r7, #4]
 80035a4:	2300      	movs	r3, #0
 80035a6:	613b      	str	r3, [r7, #16]
 80035a8:	2300      	movs	r3, #0
 80035aa:	60fb      	str	r3, [r7, #12]
 80035ac:	687b      	ldr	r3, [r7, #4]
 80035ae:	681b      	ldr	r3, [r3, #0]
 80035b0:	f003 0301 	and.w	r3, r3, #1
 80035b4:	2b00      	cmp	r3, #0
 80035b6:	d07d      	beq.n	80036b4 <HAL_RCCEx_PeriphCLKConfig+0x118>
 80035b8:	2300      	movs	r3, #0
 80035ba:	75fb      	strb	r3, [r7, #23]
 80035bc:	4b4f      	ldr	r3, [pc, #316]	; (80036fc <HAL_RCCEx_PeriphCLKConfig+0x160>)
 80035be:	69db      	ldr	r3, [r3, #28]
 80035c0:	f003 5380 	and.w	r3, r3, #268435456	; 0x10000000
 80035c4:	2b00      	cmp	r3, #0
 80035c6:	d10d      	bne.n	80035e4 <HAL_RCCEx_PeriphCLKConfig+0x48>
 80035c8:	4b4c      	ldr	r3, [pc, #304]	; (80036fc <HAL_RCCEx_PeriphCLKConfig+0x160>)
 80035ca:	69db      	ldr	r3, [r3, #28]
 80035cc:	4a4b      	ldr	r2, [pc, #300]	; (80036fc <HAL_RCCEx_PeriphCLKConfig+0x160>)
 80035ce:	f043 5380 	orr.w	r3, r3, #268435456	; 0x10000000
 80035d2:	61d3      	str	r3, [r2, #28]
 80035d4:	4b49      	ldr	r3, [pc, #292]	; (80036fc <HAL_RCCEx_PeriphCLKConfig+0x160>)
 80035d6:	69db      	ldr	r3, [r3, #28]
 80035d8:	f003 5380 	and.w	r3, r3, #268435456	; 0x10000000
 80035dc:	60bb      	str	r3, [r7, #8]
 80035de:	68bb      	ldr	r3, [r7, #8]
 80035e0:	2301      	movs	r3, #1
 80035e2:	75fb      	strb	r3, [r7, #23]
 80035e4:	4b46      	ldr	r3, [pc, #280]	; (8003700 <HAL_RCCEx_PeriphCLKConfig+0x164>)
 80035e6:	681b      	ldr	r3, [r3, #0]
 80035e8:	f403 7380 	and.w	r3, r3, #256	; 0x100
 80035ec:	2b00      	cmp	r3, #0
 80035ee:	d118      	bne.n	8003622 <HAL_RCCEx_PeriphCLKConfig+0x86>
 80035f0:	4b43      	ldr	r3, [pc, #268]	; (8003700 <HAL_RCCEx_PeriphCLKConfig+0x164>)
 80035f2:	681b      	ldr	r3, [r3, #0]
 80035f4:	4a42      	ldr	r2, [pc, #264]	; (8003700 <HAL_RCCEx_PeriphCLKConfig+0x164>)
 80035f6:	f443 7380 	orr.w	r3, r3, #256	; 0x100
 80035fa:	6013      	str	r3, [r2, #0]
 80035fc:	f7fd fa76 	bl	8000aec <HAL_GetTick>
 8003600:	6138      	str	r0, [r7, #16]
 8003602:	e008      	b.n	8003616 <HAL_RCCEx_PeriphCLKConfig+0x7a>
 8003604:	f7fd fa72 	bl	8000aec <HAL_GetTick>
 8003608:	4602      	mov	r2, r0
 800360a:	693b      	ldr	r3, [r7, #16]
 800360c:	1ad3      	subs	r3, r2, r3
 800360e:	2b64      	cmp	r3, #100	; 0x64
 8003610:	d901      	bls.n	8003616 <HAL_RCCEx_PeriphCLKConfig+0x7a>
 8003612:	2303      	movs	r3, #3
 8003614:	e06d      	b.n	80036f2 <HAL_RCCEx_PeriphCLKConfig+0x156>
 8003616:	4b3a      	ldr	r3, [pc, #232]	; (8003700 <HAL_RCCEx_PeriphCLKConfig+0x164>)
 8003618:	681b      	ldr	r3, [r3, #0]
 800361a:	f403 7380 	and.w	r3, r3, #256	; 0x100
 800361e:	2b00      	cmp	r3, #0
 8003620:	d0f0      	beq.n	8003604 <HAL_RCCEx_PeriphCLKConfig+0x68>
 8003622:	4b36      	ldr	r3, [pc, #216]	; (80036fc <HAL_RCCEx_PeriphCLKConfig+0x160>)
 8003624:	6a1b      	ldr	r3, [r3, #32]
 8003626:	f403 7340 	and.w	r3, r3, #768	; 0x300
 800362a:	60fb      	str	r3, [r7, #12]
 800362c:	68fb      	ldr	r3, [r7, #12]
 800362e:	2b00      	cmp	r3, #0
 8003630:	d02e      	beq.n	8003690 <HAL_RCCEx_PeriphCLKConfig+0xf4>
 8003632:	687b      	ldr	r3, [r7, #4]
 8003634:	685b      	ldr	r3, [r3, #4]
 8003636:	f403 7340 	and.w	r3, r3, #768	; 0x300
 800363a:	68fa      	ldr	r2, [r7, #12]
 800363c:	429a      	cmp	r2, r3
 800363e:	d027      	beq.n	8003690 <HAL_RCCEx_PeriphCLKConfig+0xf4>
 8003640:	4b2e      	ldr	r3, [pc, #184]	; (80036fc <HAL_RCCEx_PeriphCLKConfig+0x160>)
 8003642:	6a1b      	ldr	r3, [r3, #32]
 8003644:	f423 7340 	bic.w	r3, r3, #768	; 0x300
 8003648:	60fb      	str	r3, [r7, #12]
 800364a:	4b2e      	ldr	r3, [pc, #184]	; (8003704 <HAL_RCCEx_PeriphCLKConfig+0x168>)
 800364c:	2201      	movs	r2, #1
 800364e:	601a      	str	r2, [r3, #0]
 8003650:	4b2c      	ldr	r3, [pc, #176]	; (8003704 <HAL_RCCEx_PeriphCLKConfig+0x168>)
 8003652:	2200      	movs	r2, #0
 8003654:	601a      	str	r2, [r3, #0]
 8003656:	4a29      	ldr	r2, [pc, #164]	; (80036fc <HAL_RCCEx_PeriphCLKConfig+0x160>)
 8003658:	68fb      	ldr	r3, [r7, #12]
 800365a:	6213      	str	r3, [r2, #32]
 800365c:	68fb      	ldr	r3, [r7, #12]
 800365e:	f003 0301 	and.w	r3, r3, #1
 8003662:	2b00      	cmp	r3, #0
 8003664:	d014      	beq.n	8003690 <HAL_RCCEx_PeriphCLKConfig+0xf4>
 8003666:	f7fd fa41 	bl	8000aec <HAL_GetTick>
 800366a:	6138      	str	r0, [r7, #16]
 800366c:	e00a      	b.n	8003684 <HAL_RCCEx_PeriphCLKConfig+0xe8>
 800366e:	f7fd fa3d 	bl	8000aec <HAL_GetTick>
 8003672:	4602      	mov	r2, r0
 8003674:	693b      	ldr	r3, [r7, #16]
 8003676:	1ad3      	subs	r3, r2, r3
 8003678:	f241 3288 	movw	r2, #5000	; 0x1388
 800367c:	4293      	cmp	r3, r2
 800367e:	d901      	bls.n	8003684 <HAL_RCCEx_PeriphCLKConfig+0xe8>
 8003680:	2303      	movs	r3, #3
 8003682:	e036      	b.n	80036f2 <HAL_RCCEx_PeriphCLKConfig+0x156>
 8003684:	4b1d      	ldr	r3, [pc, #116]	; (80036fc <HAL_RCCEx_PeriphCLKConfig+0x160>)
 8003686:	6a1b      	ldr	r3, [r3, #32]
 8003688:	f003 0302 	and.w	r3, r3, #2
 800368c:	2b00      	cmp	r3, #0
 800368e:	d0ee      	beq.n	800366e <HAL_RCCEx_PeriphCLKConfig+0xd2>
 8003690:	4b1a      	ldr	r3, [pc, #104]	; (80036fc <HAL_RCCEx_PeriphCLKConfig+0x160>)
 8003692:	6a1b      	ldr	r3, [r3, #32]
 8003694:	f423 7240 	bic.w	r2, r3, #768	; 0x300
 8003698:	687b      	ldr	r3, [r7, #4]
 800369a:	685b      	ldr	r3, [r3, #4]
 800369c:	4917      	ldr	r1, [pc, #92]	; (80036fc <HAL_RCCEx_PeriphCLKConfig+0x160>)
 800369e:	4313      	orrs	r3, r2
 80036a0:	620b      	str	r3, [r1, #32]
 80036a2:	7dfb      	ldrb	r3, [r7, #23]
 80036a4:	2b01      	cmp	r3, #1
 80036a6:	d105      	bne.n	80036b4 <HAL_RCCEx_PeriphCLKConfig+0x118>
 80036a8:	4b14      	ldr	r3, [pc, #80]	; (80036fc <HAL_RCCEx_PeriphCLKConfig+0x160>)
 80036aa:	69db      	ldr	r3, [r3, #28]
 80036ac:	4a13      	ldr	r2, [pc, #76]	; (80036fc <HAL_RCCEx_PeriphCLKConfig+0x160>)
 80036ae:	f023 5380 	bic.w	r3, r3, #268435456	; 0x10000000
 80036b2:	61d3      	str	r3, [r2, #28]
 80036b4:	687b      	ldr	r3, [r7, #4]
 80036b6:	681b      	ldr	r3, [r3, #0]
 80036b8:	f003 0302 	and.w	r3, r3, #2
 80036bc:	2b00      	cmp	r3, #0
 80036be:	d008      	beq.n	80036d2 <HAL_RCCEx_PeriphCLKConfig+0x136>
 80036c0:	4b0e      	ldr	r3, [pc, #56]	; (80036fc <HAL_RCCEx_PeriphCLKConfig+0x160>)
 80036c2:	685b      	ldr	r3, [r3, #4]
 80036c4:	f423 4240 	bic.w	r2, r3, #49152	; 0xc000
 80036c8:	687b      	ldr	r3, [r7, #4]
 80036ca:	689b      	ldr	r3, [r3, #8]
 80036cc:	490b      	ldr	r1, [pc, #44]	; (80036fc <HAL_RCCEx_PeriphCLKConfig+0x160>)
 80036ce:	4313      	orrs	r3, r2
 80036d0:	604b      	str	r3, [r1, #4]
 80036d2:	687b      	ldr	r3, [r7, #4]
 80036d4:	681b      	ldr	r3, [r3, #0]
 80036d6:	f003 0310 	and.w	r3, r3, #16
 80036da:	2b00      	cmp	r3, #0
 80036dc:	d008      	beq.n	80036f0 <HAL_RCCEx_PeriphCLKConfig+0x154>
 80036de:	4b07      	ldr	r3, [pc, #28]	; (80036fc <HAL_RCCEx_PeriphCLKConfig+0x160>)
 80036e0:	685b      	ldr	r3, [r3, #4]
 80036e2:	f423 0280 	bic.w	r2, r3, #4194304	; 0x400000
 80036e6:	687b      	ldr	r3, [r7, #4]
 80036e8:	68db      	ldr	r3, [r3, #12]
 80036ea:	4904      	ldr	r1, [pc, #16]	; (80036fc <HAL_RCCEx_PeriphCLKConfig+0x160>)
 80036ec:	4313      	orrs	r3, r2
 80036ee:	604b      	str	r3, [r1, #4]
 80036f0:	2300      	movs	r3, #0
 80036f2:	4618      	mov	r0, r3
 80036f4:	3718      	adds	r7, #24
 80036f6:	46bd      	mov	sp, r7
 80036f8:	bd80      	pop	{r7, pc}
 80036fa:	bf00      	nop
 80036fc:	40021000 	.word	0x40021000
 8003700:	40007000 	.word	0x40007000
 8003704:	42420440 	.word	0x42420440

08003708 <HAL_TIM_Base_Init>:
 8003708:	b580      	push	{r7, lr}
 800370a:	b082      	sub	sp, #8
 800370c:	af00      	add	r7, sp, #0
 800370e:	6078      	str	r0, [r7, #4]
 8003710:	687b      	ldr	r3, [r7, #4]
 8003712:	2b00      	cmp	r3, #0
 8003714:	d101      	bne.n	800371a <HAL_TIM_Base_Init+0x12>
 8003716:	2301      	movs	r3, #1
 8003718:	e041      	b.n	800379e <HAL_TIM_Base_Init+0x96>
 800371a:	687b      	ldr	r3, [r7, #4]
 800371c:	f893 303d 	ldrb.w	r3, [r3, #61]	; 0x3d
 8003720:	b2db      	uxtb	r3, r3
 8003722:	2b00      	cmp	r3, #0
 8003724:	d106      	bne.n	8003734 <HAL_TIM_Base_Init+0x2c>
 8003726:	687b      	ldr	r3, [r7, #4]
 8003728:	2200      	movs	r2, #0
 800372a:	f883 203c 	strb.w	r2, [r3, #60]	; 0x3c
 800372e:	6878      	ldr	r0, [r7, #4]
 8003730:	f7fd f858 	bl	80007e4 <HAL_TIM_Base_MspInit>
 8003734:	687b      	ldr	r3, [r7, #4]
 8003736:	2202      	movs	r2, #2
 8003738:	f883 203d 	strb.w	r2, [r3, #61]	; 0x3d
 800373c:	687b      	ldr	r3, [r7, #4]
 800373e:	681a      	ldr	r2, [r3, #0]
 8003740:	687b      	ldr	r3, [r7, #4]
 8003742:	3304      	adds	r3, #4
 8003744:	4619      	mov	r1, r3
 8003746:	4610      	mov	r0, r2
 8003748:	f000 fa1a 	bl	8003b80 <TIM_Base_SetConfig>
 800374c:	687b      	ldr	r3, [r7, #4]
 800374e:	2201      	movs	r2, #1
 8003750:	f883 2046 	strb.w	r2, [r3, #70]	; 0x46
 8003754:	687b      	ldr	r3, [r7, #4]
 8003756:	2201      	movs	r2, #1
 8003758:	f883 203e 	strb.w	r2, [r3, #62]	; 0x3e
 800375c:	687b      	ldr	r3, [r7, #4]
 800375e:	2201      	movs	r2, #1
 8003760:	f883 203f 	strb.w	r2, [r3, #63]	; 0x3f
 8003764:	687b      	ldr	r3, [r7, #4]
 8003766:	2201      	movs	r2, #1
 8003768:	f883 2040 	strb.w	r2, [r3, #64]	; 0x40
 800376c:	687b      	ldr	r3, [r7, #4]
 800376e:	2201      	movs	r2, #1
 8003770:	f883 2041 	strb.w	r2, [r3, #65]	; 0x41
 8003774:	687b      	ldr	r3, [r7, #4]
 8003776:	2201      	movs	r2, #1
 8003778:	f883 2042 	strb.w	r2, [r3, #66]	; 0x42
 800377c:	687b      	ldr	r3, [r7, #4]
 800377e:	2201      	movs	r2, #1
 8003780:	f883 2043 	strb.w	r2, [r3, #67]	; 0x43
 8003784:	687b      	ldr	r3, [r7, #4]
 8003786:	2201      	movs	r2, #1
 8003788:	f883 2044 	strb.w	r2, [r3, #68]	; 0x44
 800378c:	687b      	ldr	r3, [r7, #4]
 800378e:	2201      	movs	r2, #1
 8003790:	f883 2045 	strb.w	r2, [r3, #69]	; 0x45
 8003794:	687b      	ldr	r3, [r7, #4]
 8003796:	2201      	movs	r2, #1
 8003798:	f883 203d 	strb.w	r2, [r3, #61]	; 0x3d
 800379c:	2300      	movs	r3, #0
 800379e:	4618      	mov	r0, r3
 80037a0:	3708      	adds	r7, #8
 80037a2:	46bd      	mov	sp, r7
 80037a4:	bd80      	pop	{r7, pc}

080037a6 <HAL_TIM_IRQHandler>:
 80037a6:	b580      	push	{r7, lr}
 80037a8:	b082      	sub	sp, #8
 80037aa:	af00      	add	r7, sp, #0
 80037ac:	6078      	str	r0, [r7, #4]
 80037ae:	687b      	ldr	r3, [r7, #4]
 80037b0:	681b      	ldr	r3, [r3, #0]
 80037b2:	691b      	ldr	r3, [r3, #16]
 80037b4:	f003 0302 	and.w	r3, r3, #2
 80037b8:	2b02      	cmp	r3, #2
 80037ba:	d122      	bne.n	8003802 <HAL_TIM_IRQHandler+0x5c>
 80037bc:	687b      	ldr	r3, [r7, #4]
 80037be:	681b      	ldr	r3, [r3, #0]
 80037c0:	68db      	ldr	r3, [r3, #12]
 80037c2:	f003 0302 	and.w	r3, r3, #2
 80037c6:	2b02      	cmp	r3, #2
 80037c8:	d11b      	bne.n	8003802 <HAL_TIM_IRQHandler+0x5c>
 80037ca:	687b      	ldr	r3, [r7, #4]
 80037cc:	681b      	ldr	r3, [r3, #0]
 80037ce:	f06f 0202 	mvn.w	r2, #2
 80037d2:	611a      	str	r2, [r3, #16]
 80037d4:	687b      	ldr	r3, [r7, #4]
 80037d6:	2201      	movs	r2, #1
 80037d8:	771a      	strb	r2, [r3, #28]
 80037da:	687b      	ldr	r3, [r7, #4]
 80037dc:	681b      	ldr	r3, [r3, #0]
 80037de:	699b      	ldr	r3, [r3, #24]
 80037e0:	f003 0303 	and.w	r3, r3, #3
 80037e4:	2b00      	cmp	r3, #0
 80037e6:	d003      	beq.n	80037f0 <HAL_TIM_IRQHandler+0x4a>
 80037e8:	6878      	ldr	r0, [r7, #4]
 80037ea:	f000 f9ad 	bl	8003b48 <HAL_TIM_IC_CaptureCallback>
 80037ee:	e005      	b.n	80037fc <HAL_TIM_IRQHandler+0x56>
 80037f0:	6878      	ldr	r0, [r7, #4]
 80037f2:	f000 f9a0 	bl	8003b36 <HAL_TIM_OC_DelayElapsedCallback>
 80037f6:	6878      	ldr	r0, [r7, #4]
 80037f8:	f000 f9af 	bl	8003b5a <HAL_TIM_PWM_PulseFinishedCallback>
 80037fc:	687b      	ldr	r3, [r7, #4]
 80037fe:	2200      	movs	r2, #0
 8003800:	771a      	strb	r2, [r3, #28]
 8003802:	687b      	ldr	r3, [r7, #4]
 8003804:	681b      	ldr	r3, [r3, #0]
 8003806:	691b      	ldr	r3, [r3, #16]
 8003808:	f003 0304 	and.w	r3, r3, #4
 800380c:	2b04      	cmp	r3, #4
 800380e:	d122      	bne.n	8003856 <HAL_TIM_IRQHandler+0xb0>
 8003810:	687b      	ldr	r3, [r7, #4]
 8003812:	681b      	ldr	r3, [r3, #0]
 8003814:	68db      	ldr	r3, [r3, #12]
 8003816:	f003 0304 	and.w	r3, r3, #4
 800381a:	2b04      	cmp	r3, #4
 800381c:	d11b      	bne.n	8003856 <HAL_TIM_IRQHandler+0xb0>
 800381e:	687b      	ldr	r3, [r7, #4]
 8003820:	681b      	ldr	r3, [r3, #0]
 8003822:	f06f 0204 	mvn.w	r2, #4
 8003826:	611a      	str	r2, [r3, #16]
 8003828:	687b      	ldr	r3, [r7, #4]
 800382a:	2202      	movs	r2, #2
 800382c:	771a      	strb	r2, [r3, #28]
 800382e:	687b      	ldr	r3, [r7, #4]
 8003830:	681b      	ldr	r3, [r3, #0]
 8003832:	699b      	ldr	r3, [r3, #24]
 8003834:	f403 7340 	and.w	r3, r3, #768	; 0x300
 8003838:	2b00      	cmp	r3, #0
 800383a:	d003      	beq.n	8003844 <HAL_TIM_IRQHandler+0x9e>
 800383c:	6878      	ldr	r0, [r7, #4]
 800383e:	f000 f983 	bl	8003b48 <HAL_TIM_IC_CaptureCallback>
 8003842:	e005      	b.n	8003850 <HAL_TIM_IRQHandler+0xaa>
 8003844:	6878      	ldr	r0, [r7, #4]
 8003846:	f000 f976 	bl	8003b36 <HAL_TIM_OC_DelayElapsedCallback>
 800384a:	6878      	ldr	r0, [r7, #4]
 800384c:	f000 f985 	bl	8003b5a <HAL_TIM_PWM_PulseFinishedCallback>
 8003850:	687b      	ldr	r3, [r7, #4]
 8003852:	2200      	movs	r2, #0
 8003854:	771a      	strb	r2, [r3, #28]
 8003856:	687b      	ldr	r3, [r7, #4]
 8003858:	681b      	ldr	r3, [r3, #0]
 800385a:	691b      	ldr	r3, [r3, #16]
 800385c:	f003 0308 	and.w	r3, r3, #8
 8003860:	2b08      	cmp	r3, #8
 8003862:	d122      	bne.n	80038aa <HAL_TIM_IRQHandler+0x104>
 8003864:	687b      	ldr	r3, [r7, #4]
 8003866:	681b      	ldr	r3, [r3, #0]
 8003868:	68db      	ldr	r3, [r3, #12]
 800386a:	f003 0308 	and.w	r3, r3, #8
 800386e:	2b08      	cmp	r3, #8
 8003870:	d11b      	bne.n	80038aa <HAL_TIM_IRQHandler+0x104>
 8003872:	687b      	ldr	r3, [r7, #4]
 8003874:	681b      	ldr	r3, [r3, #0]
 8003876:	f06f 0208 	mvn.w	r2, #8
 800387a:	611a      	str	r2, [r3, #16]
 800387c:	687b      	ldr	r3, [r7, #4]
 800387e:	2204      	movs	r2, #4
 8003880:	771a      	strb	r2, [r3, #28]
 8003882:	687b      	ldr	r3, [r7, #4]
 8003884:	681b      	ldr	r3, [r3, #0]
 8003886:	69db      	ldr	r3, [r3, #28]
 8003888:	f003 0303 	and.w	r3, r3, #3
 800388c:	2b00      	cmp	r3, #0
 800388e:	d003      	beq.n	8003898 <HAL_TIM_IRQHandler+0xf2>
 8003890:	6878      	ldr	r0, [r7, #4]
 8003892:	f000 f959 	bl	8003b48 <HAL_TIM_IC_CaptureCallback>
 8003896:	e005      	b.n	80038a4 <HAL_TIM_IRQHandler+0xfe>
 8003898:	6878      	ldr	r0, [r7, #4]
 800389a:	f000 f94c 	bl	8003b36 <HAL_TIM_OC_DelayElapsedCallback>
 800389e:	6878      	ldr	r0, [r7, #4]
 80038a0:	f000 f95b 	bl	8003b5a <HAL_TIM_PWM_PulseFinishedCallback>
 80038a4:	687b      	ldr	r3, [r7, #4]
 80038a6:	2200      	movs	r2, #0
 80038a8:	771a      	strb	r2, [r3, #28]
 80038aa:	687b      	ldr	r3, [r7, #4]
 80038ac:	681b      	ldr	r3, [r3, #0]
 80038ae:	691b      	ldr	r3, [r3, #16]
 80038b0:	f003 0310 	and.w	r3, r3, #16
 80038b4:	2b10      	cmp	r3, #16
 80038b6:	d122      	bne.n	80038fe <HAL_TIM_IRQHandler+0x158>
 80038b8:	687b      	ldr	r3, [r7, #4]
 80038ba:	681b      	ldr	r3, [r3, #0]
 80038bc:	68db      	ldr	r3, [r3, #12]
 80038be:	f003 0310 	and.w	r3, r3, #16
 80038c2:	2b10      	cmp	r3, #16
 80038c4:	d11b      	bne.n	80038fe <HAL_TIM_IRQHandler+0x158>
 80038c6:	687b      	ldr	r3, [r7, #4]
 80038c8:	681b      	ldr	r3, [r3, #0]
 80038ca:	f06f 0210 	mvn.w	r2, #16
 80038ce:	611a      	str	r2, [r3, #16]
 80038d0:	687b      	ldr	r3, [r7, #4]
 80038d2:	2208      	movs	r2, #8
 80038d4:	771a      	strb	r2, [r3, #28]
 80038d6:	687b      	ldr	r3, [r7, #4]
 80038d8:	681b      	ldr	r3, [r3, #0]
 80038da:	69db      	ldr	r3, [r3, #28]
 80038dc:	f403 7340 	and.w	r3, r3, #768	; 0x300
 80038e0:	2b00      	cmp	r3, #0
 80038e2:	d003      	beq.n	80038ec <HAL_TIM_IRQHandler+0x146>
 80038e4:	6878      	ldr	r0, [r7, #4]
 80038e6:	f000 f92f 	bl	8003b48 <HAL_TIM_IC_CaptureCallback>
 80038ea:	e005      	b.n	80038f8 <HAL_TIM_IRQHandler+0x152>
 80038ec:	6878      	ldr	r0, [r7, #4]
 80038ee:	f000 f922 	bl	8003b36 <HAL_TIM_OC_DelayElapsedCallback>
 80038f2:	6878      	ldr	r0, [r7, #4]
 80038f4:	f000 f931 	bl	8003b5a <HAL_TIM_PWM_PulseFinishedCallback>
 80038f8:	687b      	ldr	r3, [r7, #4]
 80038fa:	2200      	movs	r2, #0
 80038fc:	771a      	strb	r2, [r3, #28]
 80038fe:	687b      	ldr	r3, [r7, #4]
 8003900:	681b      	ldr	r3, [r3, #0]
 8003902:	691b      	ldr	r3, [r3, #16]
 8003904:	f003 0301 	and.w	r3, r3, #1
 8003908:	2b01      	cmp	r3, #1
 800390a:	d10e      	bne.n	800392a <HAL_TIM_IRQHandler+0x184>
 800390c:	687b      	ldr	r3, [r7, #4]
 800390e:	681b      	ldr	r3, [r3, #0]
 8003910:	68db      	ldr	r3, [r3, #12]
 8003912:	f003 0301 	and.w	r3, r3, #1
 8003916:	2b01      	cmp	r3, #1
 8003918:	d107      	bne.n	800392a <HAL_TIM_IRQHandler+0x184>
 800391a:	687b      	ldr	r3, [r7, #4]
 800391c:	681b      	ldr	r3, [r3, #0]
 800391e:	f06f 0201 	mvn.w	r2, #1
 8003922:	611a      	str	r2, [r3, #16]
 8003924:	6878      	ldr	r0, [r7, #4]
 8003926:	f000 f8fd 	bl	8003b24 <HAL_TIM_PeriodElapsedCallback>
 800392a:	687b      	ldr	r3, [r7, #4]
 800392c:	681b      	ldr	r3, [r3, #0]
 800392e:	691b      	ldr	r3, [r3, #16]
 8003930:	f003 0380 	and.w	r3, r3, #128	; 0x80
 8003934:	2b80      	cmp	r3, #128	; 0x80
 8003936:	d10e      	bne.n	8003956 <HAL_TIM_IRQHandler+0x1b0>
 8003938:	687b      	ldr	r3, [r7, #4]
 800393a:	681b      	ldr	r3, [r3, #0]
 800393c:	68db      	ldr	r3, [r3, #12]
 800393e:	f003 0380 	and.w	r3, r3, #128	; 0x80
 8003942:	2b80      	cmp	r3, #128	; 0x80
 8003944:	d107      	bne.n	8003956 <HAL_TIM_IRQHandler+0x1b0>
 8003946:	687b      	ldr	r3, [r7, #4]
 8003948:	681b      	ldr	r3, [r3, #0]
 800394a:	f06f 0280 	mvn.w	r2, #128	; 0x80
 800394e:	611a      	str	r2, [r3, #16]
 8003950:	6878      	ldr	r0, [r7, #4]
 8003952:	f000 fa74 	bl	8003e3e <HAL_TIMEx_BreakCallback>
 8003956:	687b      	ldr	r3, [r7, #4]
 8003958:	681b      	ldr	r3, [r3, #0]
 800395a:	691b      	ldr	r3, [r3, #16]
 800395c:	f003 0340 	and.w	r3, r3, #64	; 0x40
 8003960:	2b40      	cmp	r3, #64	; 0x40
 8003962:	d10e      	bne.n	8003982 <HAL_TIM_IRQHandler+0x1dc>
 8003964:	687b      	ldr	r3, [r7, #4]
 8003966:	681b      	ldr	r3, [r3, #0]
 8003968:	68db      	ldr	r3, [r3, #12]
 800396a:	f003 0340 	and.w	r3, r3, #64	; 0x40
 800396e:	2b40      	cmp	r3, #64	; 0x40
 8003970:	d107      	bne.n	8003982 <HAL_TIM_IRQHandler+0x1dc>
 8003972:	687b      	ldr	r3, [r7, #4]
 8003974:	681b      	ldr	r3, [r3, #0]
 8003976:	f06f 0240 	mvn.w	r2, #64	; 0x40
 800397a:	611a      	str	r2, [r3, #16]
 800397c:	6878      	ldr	r0, [r7, #4]
 800397e:	f000 f8f5 	bl	8003b6c <HAL_TIM_TriggerCallback>
 8003982:	687b      	ldr	r3, [r7, #4]
 8003984:	681b      	ldr	r3, [r3, #0]
 8003986:	691b      	ldr	r3, [r3, #16]
 8003988:	f003 0320 	and.w	r3, r3, #32
 800398c:	2b20      	cmp	r3, #32
 800398e:	d10e      	bne.n	80039ae <HAL_TIM_IRQHandler+0x208>
 8003990:	687b      	ldr	r3, [r7, #4]
 8003992:	681b      	ldr	r3, [r3, #0]
 8003994:	68db      	ldr	r3, [r3, #12]
 8003996:	f003 0320 	and.w	r3, r3, #32
 800399a:	2b20      	cmp	r3, #32
 800399c:	d107      	bne.n	80039ae <HAL_TIM_IRQHandler+0x208>
 800399e:	687b      	ldr	r3, [r7, #4]
 80039a0:	681b      	ldr	r3, [r3, #0]
 80039a2:	f06f 0220 	mvn.w	r2, #32
 80039a6:	611a      	str	r2, [r3, #16]
 80039a8:	6878      	ldr	r0, [r7, #4]
 80039aa:	f000 fa3f 	bl	8003e2c <HAL_TIMEx_CommutCallback>
 80039ae:	bf00      	nop
 80039b0:	3708      	adds	r7, #8
 80039b2:	46bd      	mov	sp, r7
 80039b4:	bd80      	pop	{r7, pc}

080039b6 <HAL_TIM_ConfigClockSource>:
 80039b6:	b580      	push	{r7, lr}
 80039b8:	b084      	sub	sp, #16
 80039ba:	af00      	add	r7, sp, #0
 80039bc:	6078      	str	r0, [r7, #4]
 80039be:	6039      	str	r1, [r7, #0]
 80039c0:	687b      	ldr	r3, [r7, #4]
 80039c2:	f893 303c 	ldrb.w	r3, [r3, #60]	; 0x3c
 80039c6:	2b01      	cmp	r3, #1
 80039c8:	d101      	bne.n	80039ce <HAL_TIM_ConfigClockSource+0x18>
 80039ca:	2302      	movs	r3, #2
 80039cc:	e0a6      	b.n	8003b1c <HAL_TIM_ConfigClockSource+0x166>
 80039ce:	687b      	ldr	r3, [r7, #4]
 80039d0:	2201      	movs	r2, #1
 80039d2:	f883 203c 	strb.w	r2, [r3, #60]	; 0x3c
 80039d6:	687b      	ldr	r3, [r7, #4]
 80039d8:	2202      	movs	r2, #2
 80039da:	f883 203d 	strb.w	r2, [r3, #61]	; 0x3d
 80039de:	687b      	ldr	r3, [r7, #4]
 80039e0:	681b      	ldr	r3, [r3, #0]
 80039e2:	689b      	ldr	r3, [r3, #8]
 80039e4:	60fb      	str	r3, [r7, #12]
 80039e6:	68fb      	ldr	r3, [r7, #12]
 80039e8:	f023 0377 	bic.w	r3, r3, #119	; 0x77
 80039ec:	60fb      	str	r3, [r7, #12]
 80039ee:	68fb      	ldr	r3, [r7, #12]
 80039f0:	f423 437f 	bic.w	r3, r3, #65280	; 0xff00
 80039f4:	60fb      	str	r3, [r7, #12]
 80039f6:	687b      	ldr	r3, [r7, #4]
 80039f8:	681b      	ldr	r3, [r3, #0]
 80039fa:	68fa      	ldr	r2, [r7, #12]
 80039fc:	609a      	str	r2, [r3, #8]
 80039fe:	683b      	ldr	r3, [r7, #0]
 8003a00:	681b      	ldr	r3, [r3, #0]
 8003a02:	2b40      	cmp	r3, #64	; 0x40
 8003a04:	d067      	beq.n	8003ad6 <HAL_TIM_ConfigClockSource+0x120>
 8003a06:	2b40      	cmp	r3, #64	; 0x40
 8003a08:	d80b      	bhi.n	8003a22 <HAL_TIM_ConfigClockSource+0x6c>
 8003a0a:	2b10      	cmp	r3, #16
 8003a0c:	d073      	beq.n	8003af6 <HAL_TIM_ConfigClockSource+0x140>
 8003a0e:	2b10      	cmp	r3, #16
 8003a10:	d802      	bhi.n	8003a18 <HAL_TIM_ConfigClockSource+0x62>
 8003a12:	2b00      	cmp	r3, #0
 8003a14:	d06f      	beq.n	8003af6 <HAL_TIM_ConfigClockSource+0x140>
 8003a16:	e078      	b.n	8003b0a <HAL_TIM_ConfigClockSource+0x154>
 8003a18:	2b20      	cmp	r3, #32
 8003a1a:	d06c      	beq.n	8003af6 <HAL_TIM_ConfigClockSource+0x140>
 8003a1c:	2b30      	cmp	r3, #48	; 0x30
 8003a1e:	d06a      	beq.n	8003af6 <HAL_TIM_ConfigClockSource+0x140>
 8003a20:	e073      	b.n	8003b0a <HAL_TIM_ConfigClockSource+0x154>
 8003a22:	2b70      	cmp	r3, #112	; 0x70
 8003a24:	d00d      	beq.n	8003a42 <HAL_TIM_ConfigClockSource+0x8c>
 8003a26:	2b70      	cmp	r3, #112	; 0x70
 8003a28:	d804      	bhi.n	8003a34 <HAL_TIM_ConfigClockSource+0x7e>
 8003a2a:	2b50      	cmp	r3, #80	; 0x50
 8003a2c:	d033      	beq.n	8003a96 <HAL_TIM_ConfigClockSource+0xe0>
 8003a2e:	2b60      	cmp	r3, #96	; 0x60
 8003a30:	d041      	beq.n	8003ab6 <HAL_TIM_ConfigClockSource+0x100>
 8003a32:	e06a      	b.n	8003b0a <HAL_TIM_ConfigClockSource+0x154>
 8003a34:	f5b3 5f80 	cmp.w	r3, #4096	; 0x1000
 8003a38:	d066      	beq.n	8003b08 <HAL_TIM_ConfigClockSource+0x152>
 8003a3a:	f5b3 5f00 	cmp.w	r3, #8192	; 0x2000
 8003a3e:	d017      	beq.n	8003a70 <HAL_TIM_ConfigClockSource+0xba>
 8003a40:	e063      	b.n	8003b0a <HAL_TIM_ConfigClockSource+0x154>
 8003a42:	687b      	ldr	r3, [r7, #4]
 8003a44:	6818      	ldr	r0, [r3, #0]
 8003a46:	683b      	ldr	r3, [r7, #0]
 8003a48:	6899      	ldr	r1, [r3, #8]
 8003a4a:	683b      	ldr	r3, [r7, #0]
 8003a4c:	685a      	ldr	r2, [r3, #4]
 8003a4e:	683b      	ldr	r3, [r7, #0]
 8003a50:	68db      	ldr	r3, [r3, #12]
 8003a52:	f000 f96e 	bl	8003d32 <TIM_ETR_SetConfig>
 8003a56:	687b      	ldr	r3, [r7, #4]
 8003a58:	681b      	ldr	r3, [r3, #0]
 8003a5a:	689b      	ldr	r3, [r3, #8]
 8003a5c:	60fb      	str	r3, [r7, #12]
 8003a5e:	68fb      	ldr	r3, [r7, #12]
 8003a60:	f043 0377 	orr.w	r3, r3, #119	; 0x77
 8003a64:	60fb      	str	r3, [r7, #12]
 8003a66:	687b      	ldr	r3, [r7, #4]
 8003a68:	681b      	ldr	r3, [r3, #0]
 8003a6a:	68fa      	ldr	r2, [r7, #12]
 8003a6c:	609a      	str	r2, [r3, #8]
 8003a6e:	e04c      	b.n	8003b0a <HAL_TIM_ConfigClockSource+0x154>
 8003a70:	687b      	ldr	r3, [r7, #4]
 8003a72:	6818      	ldr	r0, [r3, #0]
 8003a74:	683b      	ldr	r3, [r7, #0]
 8003a76:	6899      	ldr	r1, [r3, #8]
 8003a78:	683b      	ldr	r3, [r7, #0]
 8003a7a:	685a      	ldr	r2, [r3, #4]
 8003a7c:	683b      	ldr	r3, [r7, #0]
 8003a7e:	68db      	ldr	r3, [r3, #12]
 8003a80:	f000 f957 	bl	8003d32 <TIM_ETR_SetConfig>
 8003a84:	687b      	ldr	r3, [r7, #4]
 8003a86:	681b      	ldr	r3, [r3, #0]
 8003a88:	689a      	ldr	r2, [r3, #8]
 8003a8a:	687b      	ldr	r3, [r7, #4]
 8003a8c:	681b      	ldr	r3, [r3, #0]
 8003a8e:	f442 4280 	orr.w	r2, r2, #16384	; 0x4000
 8003a92:	609a      	str	r2, [r3, #8]
 8003a94:	e039      	b.n	8003b0a <HAL_TIM_ConfigClockSource+0x154>
 8003a96:	687b      	ldr	r3, [r7, #4]
 8003a98:	6818      	ldr	r0, [r3, #0]
 8003a9a:	683b      	ldr	r3, [r7, #0]
 8003a9c:	6859      	ldr	r1, [r3, #4]
 8003a9e:	683b      	ldr	r3, [r7, #0]
 8003aa0:	68db      	ldr	r3, [r3, #12]
 8003aa2:	461a      	mov	r2, r3
 8003aa4:	f000 f8ce 	bl	8003c44 <TIM_TI1_ConfigInputStage>
 8003aa8:	687b      	ldr	r3, [r7, #4]
 8003aaa:	681b      	ldr	r3, [r3, #0]
 8003aac:	2150      	movs	r1, #80	; 0x50
 8003aae:	4618      	mov	r0, r3
 8003ab0:	f000 f925 	bl	8003cfe <TIM_ITRx_SetConfig>
 8003ab4:	e029      	b.n	8003b0a <HAL_TIM_ConfigClockSource+0x154>
 8003ab6:	687b      	ldr	r3, [r7, #4]
 8003ab8:	6818      	ldr	r0, [r3, #0]
 8003aba:	683b      	ldr	r3, [r7, #0]
 8003abc:	6859      	ldr	r1, [r3, #4]
 8003abe:	683b      	ldr	r3, [r7, #0]
 8003ac0:	68db      	ldr	r3, [r3, #12]
 8003ac2:	461a      	mov	r2, r3
 8003ac4:	f000 f8ec 	bl	8003ca0 <TIM_TI2_ConfigInputStage>
 8003ac8:	687b      	ldr	r3, [r7, #4]
 8003aca:	681b      	ldr	r3, [r3, #0]
 8003acc:	2160      	movs	r1, #96	; 0x60
 8003ace:	4618      	mov	r0, r3
 8003ad0:	f000 f915 	bl	8003cfe <TIM_ITRx_SetConfig>
 8003ad4:	e019      	b.n	8003b0a <HAL_TIM_ConfigClockSource+0x154>
 8003ad6:	687b      	ldr	r3, [r7, #4]
 8003ad8:	6818      	ldr	r0, [r3, #0]
 8003ada:	683b      	ldr	r3, [r7, #0]
 8003adc:	6859      	ldr	r1, [r3, #4]
 8003ade:	683b      	ldr	r3, [r7, #0]
 8003ae0:	68db      	ldr	r3, [r3, #12]
 8003ae2:	461a      	mov	r2, r3
 8003ae4:	f000 f8ae 	bl	8003c44 <TIM_TI1_ConfigInputStage>
 8003ae8:	687b      	ldr	r3, [r7, #4]
 8003aea:	681b      	ldr	r3, [r3, #0]
 8003aec:	2140      	movs	r1, #64	; 0x40
 8003aee:	4618      	mov	r0, r3
 8003af0:	f000 f905 	bl	8003cfe <TIM_ITRx_SetConfig>
 8003af4:	e009      	b.n	8003b0a <HAL_TIM_ConfigClockSource+0x154>
 8003af6:	687b      	ldr	r3, [r7, #4]
 8003af8:	681a      	ldr	r2, [r3, #0]
 8003afa:	683b      	ldr	r3, [r7, #0]
 8003afc:	681b      	ldr	r3, [r3, #0]
 8003afe:	4619      	mov	r1, r3
 8003b00:	4610      	mov	r0, r2
 8003b02:	f000 f8fc 	bl	8003cfe <TIM_ITRx_SetConfig>
 8003b06:	e000      	b.n	8003b0a <HAL_TIM_ConfigClockSource+0x154>
 8003b08:	bf00      	nop
 8003b0a:	687b      	ldr	r3, [r7, #4]
 8003b0c:	2201      	movs	r2, #1
 8003b0e:	f883 203d 	strb.w	r2, [r3, #61]	; 0x3d
 8003b12:	687b      	ldr	r3, [r7, #4]
 8003b14:	2200      	movs	r2, #0
 8003b16:	f883 203c 	strb.w	r2, [r3, #60]	; 0x3c
 8003b1a:	2300      	movs	r3, #0
 8003b1c:	4618      	mov	r0, r3
 8003b1e:	3710      	adds	r7, #16
 8003b20:	46bd      	mov	sp, r7
 8003b22:	bd80      	pop	{r7, pc}

08003b24 <HAL_TIM_PeriodElapsedCallback>:
 8003b24:	b480      	push	{r7}
 8003b26:	b083      	sub	sp, #12
 8003b28:	af00      	add	r7, sp, #0
 8003b2a:	6078      	str	r0, [r7, #4]
 8003b2c:	bf00      	nop
 8003b2e:	370c      	adds	r7, #12
 8003b30:	46bd      	mov	sp, r7
 8003b32:	bc80      	pop	{r7}
 8003b34:	4770      	bx	lr

08003b36 <HAL_TIM_OC_DelayElapsedCallback>:
 8003b36:	b480      	push	{r7}
 8003b38:	b083      	sub	sp, #12
 8003b3a:	af00      	add	r7, sp, #0
 8003b3c:	6078      	str	r0, [r7, #4]
 8003b3e:	bf00      	nop
 8003b40:	370c      	adds	r7, #12
 8003b42:	46bd      	mov	sp, r7
 8003b44:	bc80      	pop	{r7}
 8003b46:	4770      	bx	lr

08003b48 <HAL_TIM_IC_CaptureCallback>:
 8003b48:	b480      	push	{r7}
 8003b4a:	b083      	sub	sp, #12
 8003b4c:	af00      	add	r7, sp, #0
 8003b4e:	6078      	str	r0, [r7, #4]
 8003b50:	bf00      	nop
 8003b52:	370c      	adds	r7, #12
 8003b54:	46bd      	mov	sp, r7
 8003b56:	bc80      	pop	{r7}
 8003b58:	4770      	bx	lr

08003b5a <HAL_TIM_PWM_PulseFinishedCallback>:
 8003b5a:	b480      	push	{r7}
 8003b5c:	b083      	sub	sp, #12
 8003b5e:	af00      	add	r7, sp, #0
 8003b60:	6078      	str	r0, [r7, #4]
 8003b62:	bf00      	nop
 8003b64:	370c      	adds	r7, #12
 8003b66:	46bd      	mov	sp, r7
 8003b68:	bc80      	pop	{r7}
 8003b6a:	4770      	bx	lr

08003b6c <HAL_TIM_TriggerCallback>:
 8003b6c:	b480      	push	{r7}
 8003b6e:	b083      	sub	sp, #12
 8003b70:	af00      	add	r7, sp, #0
 8003b72:	6078      	str	r0, [r7, #4]
 8003b74:	bf00      	nop
 8003b76:	370c      	adds	r7, #12
 8003b78:	46bd      	mov	sp, r7
 8003b7a:	bc80      	pop	{r7}
 8003b7c:	4770      	bx	lr
	...

08003b80 <TIM_Base_SetConfig>:
 8003b80:	b480      	push	{r7}
 8003b82:	b085      	sub	sp, #20
 8003b84:	af00      	add	r7, sp, #0
 8003b86:	6078      	str	r0, [r7, #4]
 8003b88:	6039      	str	r1, [r7, #0]
 8003b8a:	687b      	ldr	r3, [r7, #4]
 8003b8c:	681b      	ldr	r3, [r3, #0]
 8003b8e:	60fb      	str	r3, [r7, #12]
 8003b90:	687b      	ldr	r3, [r7, #4]
 8003b92:	4a29      	ldr	r2, [pc, #164]	; (8003c38 <TIM_Base_SetConfig+0xb8>)
 8003b94:	4293      	cmp	r3, r2
 8003b96:	d00b      	beq.n	8003bb0 <TIM_Base_SetConfig+0x30>
 8003b98:	687b      	ldr	r3, [r7, #4]
 8003b9a:	f1b3 4f80 	cmp.w	r3, #1073741824	; 0x40000000
 8003b9e:	d007      	beq.n	8003bb0 <TIM_Base_SetConfig+0x30>
 8003ba0:	687b      	ldr	r3, [r7, #4]
 8003ba2:	4a26      	ldr	r2, [pc, #152]	; (8003c3c <TIM_Base_SetConfig+0xbc>)
 8003ba4:	4293      	cmp	r3, r2
 8003ba6:	d003      	beq.n	8003bb0 <TIM_Base_SetConfig+0x30>
 8003ba8:	687b      	ldr	r3, [r7, #4]
 8003baa:	4a25      	ldr	r2, [pc, #148]	; (8003c40 <TIM_Base_SetConfig+0xc0>)
 8003bac:	4293      	cmp	r3, r2
 8003bae:	d108      	bne.n	8003bc2 <TIM_Base_SetConfig+0x42>
 8003bb0:	68fb      	ldr	r3, [r7, #12]
 8003bb2:	f023 0370 	bic.w	r3, r3, #112	; 0x70
 8003bb6:	60fb      	str	r3, [r7, #12]
 8003bb8:	683b      	ldr	r3, [r7, #0]
 8003bba:	685b      	ldr	r3, [r3, #4]
 8003bbc:	68fa      	ldr	r2, [r7, #12]
 8003bbe:	4313      	orrs	r3, r2
 8003bc0:	60fb      	str	r3, [r7, #12]
 8003bc2:	687b      	ldr	r3, [r7, #4]
 8003bc4:	4a1c      	ldr	r2, [pc, #112]	; (8003c38 <TIM_Base_SetConfig+0xb8>)
 8003bc6:	4293      	cmp	r3, r2
 8003bc8:	d00b      	beq.n	8003be2 <TIM_Base_SetConfig+0x62>
 8003bca:	687b      	ldr	r3, [r7, #4]
 8003bcc:	f1b3 4f80 	cmp.w	r3, #1073741824	; 0x40000000
 8003bd0:	d007      	beq.n	8003be2 <TIM_Base_SetConfig+0x62>
 8003bd2:	687b      	ldr	r3, [r7, #4]
 8003bd4:	4a19      	ldr	r2, [pc, #100]	; (8003c3c <TIM_Base_SetConfig+0xbc>)
 8003bd6:	4293      	cmp	r3, r2
 8003bd8:	d003      	beq.n	8003be2 <TIM_Base_SetConfig+0x62>
 8003bda:	687b      	ldr	r3, [r7, #4]
 8003bdc:	4a18      	ldr	r2, [pc, #96]	; (8003c40 <TIM_Base_SetConfig+0xc0>)
 8003bde:	4293      	cmp	r3, r2
 8003be0:	d108      	bne.n	8003bf4 <TIM_Base_SetConfig+0x74>
 8003be2:	68fb      	ldr	r3, [r7, #12]
 8003be4:	f423 7340 	bic.w	r3, r3, #768	; 0x300
 8003be8:	60fb      	str	r3, [r7, #12]
 8003bea:	683b      	ldr	r3, [r7, #0]
 8003bec:	68db      	ldr	r3, [r3, #12]
 8003bee:	68fa      	ldr	r2, [r7, #12]
 8003bf0:	4313      	orrs	r3, r2
 8003bf2:	60fb      	str	r3, [r7, #12]
 8003bf4:	68fb      	ldr	r3, [r7, #12]
 8003bf6:	f023 0280 	bic.w	r2, r3, #128	; 0x80
 8003bfa:	683b      	ldr	r3, [r7, #0]
 8003bfc:	695b      	ldr	r3, [r3, #20]
 8003bfe:	4313      	orrs	r3, r2
 8003c00:	60fb      	str	r3, [r7, #12]
 8003c02:	687b      	ldr	r3, [r7, #4]
 8003c04:	68fa      	ldr	r2, [r7, #12]
 8003c06:	601a      	str	r2, [r3, #0]
 8003c08:	683b      	ldr	r3, [r7, #0]
 8003c0a:	689a      	ldr	r2, [r3, #8]
 8003c0c:	687b      	ldr	r3, [r7, #4]
 8003c0e:	62da      	str	r2, [r3, #44]	; 0x2c
 8003c10:	683b      	ldr	r3, [r7, #0]
 8003c12:	681a      	ldr	r2, [r3, #0]
 8003c14:	687b      	ldr	r3, [r7, #4]
 8003c16:	629a      	str	r2, [r3, #40]	; 0x28
 8003c18:	687b      	ldr	r3, [r7, #4]
 8003c1a:	4a07      	ldr	r2, [pc, #28]	; (8003c38 <TIM_Base_SetConfig+0xb8>)
 8003c1c:	4293      	cmp	r3, r2
 8003c1e:	d103      	bne.n	8003c28 <TIM_Base_SetConfig+0xa8>
 8003c20:	683b      	ldr	r3, [r7, #0]
 8003c22:	691a      	ldr	r2, [r3, #16]
 8003c24:	687b      	ldr	r3, [r7, #4]
 8003c26:	631a      	str	r2, [r3, #48]	; 0x30
 8003c28:	687b      	ldr	r3, [r7, #4]
 8003c2a:	2201      	movs	r2, #1
 8003c2c:	615a      	str	r2, [r3, #20]
 8003c2e:	bf00      	nop
 8003c30:	3714      	adds	r7, #20
 8003c32:	46bd      	mov	sp, r7
 8003c34:	bc80      	pop	{r7}
 8003c36:	4770      	bx	lr
 8003c38:	40012c00 	.word	0x40012c00
 8003c3c:	40000400 	.word	0x40000400
 8003c40:	40000800 	.word	0x40000800

08003c44 <TIM_TI1_ConfigInputStage>:
 8003c44:	b480      	push	{r7}
 8003c46:	b087      	sub	sp, #28
 8003c48:	af00      	add	r7, sp, #0
 8003c4a:	60f8      	str	r0, [r7, #12]
 8003c4c:	60b9      	str	r1, [r7, #8]
 8003c4e:	607a      	str	r2, [r7, #4]
 8003c50:	68fb      	ldr	r3, [r7, #12]
 8003c52:	6a1b      	ldr	r3, [r3, #32]
 8003c54:	617b      	str	r3, [r7, #20]
 8003c56:	68fb      	ldr	r3, [r7, #12]
 8003c58:	6a1b      	ldr	r3, [r3, #32]
 8003c5a:	f023 0201 	bic.w	r2, r3, #1
 8003c5e:	68fb      	ldr	r3, [r7, #12]
 8003c60:	621a      	str	r2, [r3, #32]
 8003c62:	68fb      	ldr	r3, [r7, #12]
 8003c64:	699b      	ldr	r3, [r3, #24]
 8003c66:	613b      	str	r3, [r7, #16]
 8003c68:	693b      	ldr	r3, [r7, #16]
 8003c6a:	f023 03f0 	bic.w	r3, r3, #240	; 0xf0
 8003c6e:	613b      	str	r3, [r7, #16]
 8003c70:	687b      	ldr	r3, [r7, #4]
 8003c72:	011b      	lsls	r3, r3, #4
 8003c74:	693a      	ldr	r2, [r7, #16]
 8003c76:	4313      	orrs	r3, r2
 8003c78:	613b      	str	r3, [r7, #16]
 8003c7a:	697b      	ldr	r3, [r7, #20]
 8003c7c:	f023 030a 	bic.w	r3, r3, #10
 8003c80:	617b      	str	r3, [r7, #20]
 8003c82:	697a      	ldr	r2, [r7, #20]
 8003c84:	68bb      	ldr	r3, [r7, #8]
 8003c86:	4313      	orrs	r3, r2
 8003c88:	617b      	str	r3, [r7, #20]
 8003c8a:	68fb      	ldr	r3, [r7, #12]
 8003c8c:	693a      	ldr	r2, [r7, #16]
 8003c8e:	619a      	str	r2, [r3, #24]
 8003c90:	68fb      	ldr	r3, [r7, #12]
 8003c92:	697a      	ldr	r2, [r7, #20]
 8003c94:	621a      	str	r2, [r3, #32]
 8003c96:	bf00      	nop
 8003c98:	371c      	adds	r7, #28
 8003c9a:	46bd      	mov	sp, r7
 8003c9c:	bc80      	pop	{r7}
 8003c9e:	4770      	bx	lr

08003ca0 <TIM_TI2_ConfigInputStage>:
 8003ca0:	b480      	push	{r7}
 8003ca2:	b087      	sub	sp, #28
 8003ca4:	af00      	add	r7, sp, #0
 8003ca6:	60f8      	str	r0, [r7, #12]
 8003ca8:	60b9      	str	r1, [r7, #8]
 8003caa:	607a      	str	r2, [r7, #4]
 8003cac:	68fb      	ldr	r3, [r7, #12]
 8003cae:	6a1b      	ldr	r3, [r3, #32]
 8003cb0:	f023 0210 	bic.w	r2, r3, #16
 8003cb4:	68fb      	ldr	r3, [r7, #12]
 8003cb6:	621a      	str	r2, [r3, #32]
 8003cb8:	68fb      	ldr	r3, [r7, #12]
 8003cba:	699b      	ldr	r3, [r3, #24]
 8003cbc:	617b      	str	r3, [r7, #20]
 8003cbe:	68fb      	ldr	r3, [r7, #12]
 8003cc0:	6a1b      	ldr	r3, [r3, #32]
 8003cc2:	613b      	str	r3, [r7, #16]
 8003cc4:	697b      	ldr	r3, [r7, #20]
 8003cc6:	f423 4370 	bic.w	r3, r3, #61440	; 0xf000
 8003cca:	617b      	str	r3, [r7, #20]
 8003ccc:	687b      	ldr	r3, [r7, #4]
 8003cce:	031b      	lsls	r3, r3, #12
 8003cd0:	697a      	ldr	r2, [r7, #20]
 8003cd2:	4313      	orrs	r3, r2
 8003cd4:	617b      	str	r3, [r7, #20]
 8003cd6:	693b      	ldr	r3, [r7, #16]
 8003cd8:	f023 03a0 	bic.w	r3, r3, #160	; 0xa0
 8003cdc:	613b      	str	r3, [r7, #16]
 8003cde:	68bb      	ldr	r3, [r7, #8]
 8003ce0:	011b      	lsls	r3, r3, #4
 8003ce2:	693a      	ldr	r2, [r7, #16]
 8003ce4:	4313      	orrs	r3, r2
 8003ce6:	613b      	str	r3, [r7, #16]
 8003ce8:	68fb      	ldr	r3, [r7, #12]
 8003cea:	697a      	ldr	r2, [r7, #20]
 8003cec:	619a      	str	r2, [r3, #24]
 8003cee:	68fb      	ldr	r3, [r7, #12]
 8003cf0:	693a      	ldr	r2, [r7, #16]
 8003cf2:	621a      	str	r2, [r3, #32]
 8003cf4:	bf00      	nop
 8003cf6:	371c      	adds	r7, #28
 8003cf8:	46bd      	mov	sp, r7
 8003cfa:	bc80      	pop	{r7}
 8003cfc:	4770      	bx	lr

08003cfe <TIM_ITRx_SetConfig>:
 8003cfe:	b480      	push	{r7}
 8003d00:	b085      	sub	sp, #20
 8003d02:	af00      	add	r7, sp, #0
 8003d04:	6078      	str	r0, [r7, #4]
 8003d06:	6039      	str	r1, [r7, #0]
 8003d08:	687b      	ldr	r3, [r7, #4]
 8003d0a:	689b      	ldr	r3, [r3, #8]
 8003d0c:	60fb      	str	r3, [r7, #12]
 8003d0e:	68fb      	ldr	r3, [r7, #12]
 8003d10:	f023 0370 	bic.w	r3, r3, #112	; 0x70
 8003d14:	60fb      	str	r3, [r7, #12]
 8003d16:	683a      	ldr	r2, [r7, #0]
 8003d18:	68fb      	ldr	r3, [r7, #12]
 8003d1a:	4313      	orrs	r3, r2
 8003d1c:	f043 0307 	orr.w	r3, r3, #7
 8003d20:	60fb      	str	r3, [r7, #12]
 8003d22:	687b      	ldr	r3, [r7, #4]
 8003d24:	68fa      	ldr	r2, [r7, #12]
 8003d26:	609a      	str	r2, [r3, #8]
 8003d28:	bf00      	nop
 8003d2a:	3714      	adds	r7, #20
 8003d2c:	46bd      	mov	sp, r7
 8003d2e:	bc80      	pop	{r7}
 8003d30:	4770      	bx	lr

08003d32 <TIM_ETR_SetConfig>:
 8003d32:	b480      	push	{r7}
 8003d34:	b087      	sub	sp, #28
 8003d36:	af00      	add	r7, sp, #0
 8003d38:	60f8      	str	r0, [r7, #12]
 8003d3a:	60b9      	str	r1, [r7, #8]
 8003d3c:	607a      	str	r2, [r7, #4]
 8003d3e:	603b      	str	r3, [r7, #0]
 8003d40:	68fb      	ldr	r3, [r7, #12]
 8003d42:	689b      	ldr	r3, [r3, #8]
 8003d44:	617b      	str	r3, [r7, #20]
 8003d46:	697b      	ldr	r3, [r7, #20]
 8003d48:	f423 437f 	bic.w	r3, r3, #65280	; 0xff00
 8003d4c:	617b      	str	r3, [r7, #20]
 8003d4e:	683b      	ldr	r3, [r7, #0]
 8003d50:	021a      	lsls	r2, r3, #8
 8003d52:	687b      	ldr	r3, [r7, #4]
 8003d54:	431a      	orrs	r2, r3
 8003d56:	68bb      	ldr	r3, [r7, #8]
 8003d58:	4313      	orrs	r3, r2
 8003d5a:	697a      	ldr	r2, [r7, #20]
 8003d5c:	4313      	orrs	r3, r2
 8003d5e:	617b      	str	r3, [r7, #20]
 8003d60:	68fb      	ldr	r3, [r7, #12]
 8003d62:	697a      	ldr	r2, [r7, #20]
 8003d64:	609a      	str	r2, [r3, #8]
 8003d66:	bf00      	nop
 8003d68:	371c      	adds	r7, #28
 8003d6a:	46bd      	mov	sp, r7
 8003d6c:	bc80      	pop	{r7}
 8003d6e:	4770      	bx	lr

08003d70 <HAL_TIMEx_MasterConfigSynchronization>:
 8003d70:	b480      	push	{r7}
 8003d72:	b085      	sub	sp, #20
 8003d74:	af00      	add	r7, sp, #0
 8003d76:	6078      	str	r0, [r7, #4]
 8003d78:	6039      	str	r1, [r7, #0]
 8003d7a:	687b      	ldr	r3, [r7, #4]
 8003d7c:	f893 303c 	ldrb.w	r3, [r3, #60]	; 0x3c
 8003d80:	2b01      	cmp	r3, #1
 8003d82:	d101      	bne.n	8003d88 <HAL_TIMEx_MasterConfigSynchronization+0x18>
 8003d84:	2302      	movs	r3, #2
 8003d86:	e046      	b.n	8003e16 <HAL_TIMEx_MasterConfigSynchronization+0xa6>
 8003d88:	687b      	ldr	r3, [r7, #4]
 8003d8a:	2201      	movs	r2, #1
 8003d8c:	f883 203c 	strb.w	r2, [r3, #60]	; 0x3c
 8003d90:	687b      	ldr	r3, [r7, #4]
 8003d92:	2202      	movs	r2, #2
 8003d94:	f883 203d 	strb.w	r2, [r3, #61]	; 0x3d
 8003d98:	687b      	ldr	r3, [r7, #4]
 8003d9a:	681b      	ldr	r3, [r3, #0]
 8003d9c:	685b      	ldr	r3, [r3, #4]
 8003d9e:	60fb      	str	r3, [r7, #12]
 8003da0:	687b      	ldr	r3, [r7, #4]
 8003da2:	681b      	ldr	r3, [r3, #0]
 8003da4:	689b      	ldr	r3, [r3, #8]
 8003da6:	60bb      	str	r3, [r7, #8]
 8003da8:	68fb      	ldr	r3, [r7, #12]
 8003daa:	f023 0370 	bic.w	r3, r3, #112	; 0x70
 8003dae:	60fb      	str	r3, [r7, #12]
 8003db0:	683b      	ldr	r3, [r7, #0]
 8003db2:	681b      	ldr	r3, [r3, #0]
 8003db4:	68fa      	ldr	r2, [r7, #12]
 8003db6:	4313      	orrs	r3, r2
 8003db8:	60fb      	str	r3, [r7, #12]
 8003dba:	687b      	ldr	r3, [r7, #4]
 8003dbc:	681b      	ldr	r3, [r3, #0]
 8003dbe:	68fa      	ldr	r2, [r7, #12]
 8003dc0:	605a      	str	r2, [r3, #4]
 8003dc2:	687b      	ldr	r3, [r7, #4]
 8003dc4:	681b      	ldr	r3, [r3, #0]
 8003dc6:	4a16      	ldr	r2, [pc, #88]	; (8003e20 <HAL_TIMEx_MasterConfigSynchronization+0xb0>)
 8003dc8:	4293      	cmp	r3, r2
 8003dca:	d00e      	beq.n	8003dea <HAL_TIMEx_MasterConfigSynchronization+0x7a>
 8003dcc:	687b      	ldr	r3, [r7, #4]
 8003dce:	681b      	ldr	r3, [r3, #0]
 8003dd0:	f1b3 4f80 	cmp.w	r3, #1073741824	; 0x40000000
 8003dd4:	d009      	beq.n	8003dea <HAL_TIMEx_MasterConfigSynchronization+0x7a>
 8003dd6:	687b      	ldr	r3, [r7, #4]
 8003dd8:	681b      	ldr	r3, [r3, #0]
 8003dda:	4a12      	ldr	r2, [pc, #72]	; (8003e24 <HAL_TIMEx_MasterConfigSynchronization+0xb4>)
 8003ddc:	4293      	cmp	r3, r2
 8003dde:	d004      	beq.n	8003dea <HAL_TIMEx_MasterConfigSynchronization+0x7a>
 8003de0:	687b      	ldr	r3, [r7, #4]
 8003de2:	681b      	ldr	r3, [r3, #0]
 8003de4:	4a10      	ldr	r2, [pc, #64]	; (8003e28 <HAL_TIMEx_MasterConfigSynchronization+0xb8>)
 8003de6:	4293      	cmp	r3, r2
 8003de8:	d10c      	bne.n	8003e04 <HAL_TIMEx_MasterConfigSynchronization+0x94>
 8003dea:	68bb      	ldr	r3, [r7, #8]
 8003dec:	f023 0380 	bic.w	r3, r3, #128	; 0x80
 8003df0:	60bb      	str	r3, [r7, #8]
 8003df2:	683b      	ldr	r3, [r7, #0]
 8003df4:	685b      	ldr	r3, [r3, #4]
 8003df6:	68ba      	ldr	r2, [r7, #8]
 8003df8:	4313      	orrs	r3, r2
 8003dfa:	60bb      	str	r3, [r7, #8]
 8003dfc:	687b      	ldr	r3, [r7, #4]
 8003dfe:	681b      	ldr	r3, [r3, #0]
 8003e00:	68ba      	ldr	r2, [r7, #8]
 8003e02:	609a      	str	r2, [r3, #8]
 8003e04:	687b      	ldr	r3, [r7, #4]
 8003e06:	2201      	movs	r2, #1
 8003e08:	f883 203d 	strb.w	r2, [r3, #61]	; 0x3d
 8003e0c:	687b      	ldr	r3, [r7, #4]
 8003e0e:	2200      	movs	r2, #0
 8003e10:	f883 203c 	strb.w	r2, [r3, #60]	; 0x3c
 8003e14:	2300      	movs	r3, #0
 8003e16:	4618      	mov	r0, r3
 8003e18:	3714      	adds	r7, #20
 8003e1a:	46bd      	mov	sp, r7
 8003e1c:	bc80      	pop	{r7}
 8003e1e:	4770      	bx	lr
 8003e20:	40012c00 	.word	0x40012c00
 8003e24:	40000400 	.word	0x40000400
 8003e28:	40000800 	.word	0x40000800

08003e2c <HAL_TIMEx_CommutCallback>:
 8003e2c:	b480      	push	{r7}
 8003e2e:	b083      	sub	sp, #12
 8003e30:	af00      	add	r7, sp, #0
 8003e32:	6078      	str	r0, [r7, #4]
 8003e34:	bf00      	nop
 8003e36:	370c      	adds	r7, #12
 8003e38:	46bd      	mov	sp, r7
 8003e3a:	bc80      	pop	{r7}
 8003e3c:	4770      	bx	lr

08003e3e <HAL_TIMEx_BreakCallback>:
 8003e3e:	b480      	push	{r7}
 8003e40:	b083      	sub	sp, #12
 8003e42:	af00      	add	r7, sp, #0
 8003e44:	6078      	str	r0, [r7, #4]
 8003e46:	bf00      	nop
 8003e48:	370c      	adds	r7, #12
 8003e4a:	46bd      	mov	sp, r7
 8003e4c:	bc80      	pop	{r7}
 8003e4e:	4770      	bx	lr

08003e50 <USB_CoreInit>:
 8003e50:	b084      	sub	sp, #16
 8003e52:	b480      	push	{r7}
 8003e54:	b083      	sub	sp, #12
 8003e56:	af00      	add	r7, sp, #0
 8003e58:	6078      	str	r0, [r7, #4]
 8003e5a:	f107 0014 	add.w	r0, r7, #20
 8003e5e:	e880 000e 	stmia.w	r0, {r1, r2, r3}
 8003e62:	2300      	movs	r3, #0
 8003e64:	4618      	mov	r0, r3
 8003e66:	370c      	adds	r7, #12
 8003e68:	46bd      	mov	sp, r7
 8003e6a:	bc80      	pop	{r7}
 8003e6c:	b004      	add	sp, #16
 8003e6e:	4770      	bx	lr

08003e70 <USB_EnableGlobalInt>:
 8003e70:	b480      	push	{r7}
 8003e72:	b085      	sub	sp, #20
 8003e74:	af00      	add	r7, sp, #0
 8003e76:	6078      	str	r0, [r7, #4]
 8003e78:	687b      	ldr	r3, [r7, #4]
 8003e7a:	2200      	movs	r2, #0
 8003e7c:	f8a3 2044 	strh.w	r2, [r3, #68]	; 0x44
 8003e80:	f44f 433f 	mov.w	r3, #48896	; 0xbf00
 8003e84:	60fb      	str	r3, [r7, #12]
 8003e86:	68fb      	ldr	r3, [r7, #12]
 8003e88:	b29a      	uxth	r2, r3
 8003e8a:	687b      	ldr	r3, [r7, #4]
 8003e8c:	f8a3 2040 	strh.w	r2, [r3, #64]	; 0x40
 8003e90:	2300      	movs	r3, #0
 8003e92:	4618      	mov	r0, r3
 8003e94:	3714      	adds	r7, #20
 8003e96:	46bd      	mov	sp, r7
 8003e98:	bc80      	pop	{r7}
 8003e9a:	4770      	bx	lr

08003e9c <USB_DisableGlobalInt>:
 8003e9c:	b480      	push	{r7}
 8003e9e:	b085      	sub	sp, #20
 8003ea0:	af00      	add	r7, sp, #0
 8003ea2:	6078      	str	r0, [r7, #4]
 8003ea4:	f44f 433f 	mov.w	r3, #48896	; 0xbf00
 8003ea8:	60fb      	str	r3, [r7, #12]
 8003eaa:	687b      	ldr	r3, [r7, #4]
 8003eac:	f8b3 3040 	ldrh.w	r3, [r3, #64]	; 0x40
 8003eb0:	b29a      	uxth	r2, r3
 8003eb2:	68fb      	ldr	r3, [r7, #12]
 8003eb4:	b29b      	uxth	r3, r3
 8003eb6:	43db      	mvns	r3, r3
 8003eb8:	b29b      	uxth	r3, r3
 8003eba:	4013      	ands	r3, r2
 8003ebc:	b29a      	uxth	r2, r3
 8003ebe:	687b      	ldr	r3, [r7, #4]
 8003ec0:	f8a3 2040 	strh.w	r2, [r3, #64]	; 0x40
 8003ec4:	2300      	movs	r3, #0
 8003ec6:	4618      	mov	r0, r3
 8003ec8:	3714      	adds	r7, #20
 8003eca:	46bd      	mov	sp, r7
 8003ecc:	bc80      	pop	{r7}
 8003ece:	4770      	bx	lr

08003ed0 <USB_SetCurrentMode>:
 8003ed0:	b480      	push	{r7}
 8003ed2:	b083      	sub	sp, #12
 8003ed4:	af00      	add	r7, sp, #0
 8003ed6:	6078      	str	r0, [r7, #4]
 8003ed8:	460b      	mov	r3, r1
 8003eda:	70fb      	strb	r3, [r7, #3]
 8003edc:	2300      	movs	r3, #0
 8003ede:	4618      	mov	r0, r3
 8003ee0:	370c      	adds	r7, #12
 8003ee2:	46bd      	mov	sp, r7
 8003ee4:	bc80      	pop	{r7}
 8003ee6:	4770      	bx	lr

08003ee8 <USB_DevInit>:
 8003ee8:	b084      	sub	sp, #16
 8003eea:	b480      	push	{r7}
 8003eec:	b083      	sub	sp, #12
 8003eee:	af00      	add	r7, sp, #0
 8003ef0:	6078      	str	r0, [r7, #4]
 8003ef2:	f107 0014 	add.w	r0, r7, #20
 8003ef6:	e880 000e 	stmia.w	r0, {r1, r2, r3}
 8003efa:	687b      	ldr	r3, [r7, #4]
 8003efc:	2201      	movs	r2, #1
 8003efe:	f8a3 2040 	strh.w	r2, [r3, #64]	; 0x40
 8003f02:	687b      	ldr	r3, [r7, #4]
 8003f04:	2200      	movs	r2, #0
 8003f06:	f8a3 2040 	strh.w	r2, [r3, #64]	; 0x40
 8003f0a:	687b      	ldr	r3, [r7, #4]
 8003f0c:	2200      	movs	r2, #0
 8003f0e:	f8a3 2044 	strh.w	r2, [r3, #68]	; 0x44
 8003f12:	687b      	ldr	r3, [r7, #4]
 8003f14:	2200      	movs	r2, #0
 8003f16:	f8a3 2050 	strh.w	r2, [r3, #80]	; 0x50
 8003f1a:	2300      	movs	r3, #0
 8003f1c:	4618      	mov	r0, r3
 8003f1e:	370c      	adds	r7, #12
 8003f20:	46bd      	mov	sp, r7
 8003f22:	bc80      	pop	{r7}
 8003f24:	b004      	add	sp, #16
 8003f26:	4770      	bx	lr

08003f28 <USB_ActivateEndpoint>:
 8003f28:	b480      	push	{r7}
 8003f2a:	b09b      	sub	sp, #108	; 0x6c
 8003f2c:	af00      	add	r7, sp, #0
 8003f2e:	6078      	str	r0, [r7, #4]
 8003f30:	6039      	str	r1, [r7, #0]
 8003f32:	2300      	movs	r3, #0
 8003f34:	f887 3067 	strb.w	r3, [r7, #103]	; 0x67
 8003f38:	687a      	ldr	r2, [r7, #4]
 8003f3a:	683b      	ldr	r3, [r7, #0]
 8003f3c:	781b      	ldrb	r3, [r3, #0]
 8003f3e:	009b      	lsls	r3, r3, #2
 8003f40:	4413      	add	r3, r2
 8003f42:	881b      	ldrh	r3, [r3, #0]
 8003f44:	b29b      	uxth	r3, r3
 8003f46:	f423 43ec 	bic.w	r3, r3, #30208	; 0x7600
 8003f4a:	f023 0370 	bic.w	r3, r3, #112	; 0x70
 8003f4e:	f8a7 3064 	strh.w	r3, [r7, #100]	; 0x64
 8003f52:	683b      	ldr	r3, [r7, #0]
 8003f54:	78db      	ldrb	r3, [r3, #3]
 8003f56:	2b03      	cmp	r3, #3
 8003f58:	d81f      	bhi.n	8003f9a <USB_ActivateEndpoint+0x72>
 8003f5a:	a201      	add	r2, pc, #4	; (adr r2, 8003f60 <USB_ActivateEndpoint+0x38>)
 8003f5c:	f852 f023 	ldr.w	pc, [r2, r3, lsl #2]
 8003f60:	08003f71 	.word	0x08003f71
 8003f64:	08003f8d 	.word	0x08003f8d
 8003f68:	08003fa3 	.word	0x08003fa3
 8003f6c:	08003f7f 	.word	0x08003f7f
 8003f70:	f8b7 3064 	ldrh.w	r3, [r7, #100]	; 0x64
 8003f74:	f443 7300 	orr.w	r3, r3, #512	; 0x200
 8003f78:	f8a7 3064 	strh.w	r3, [r7, #100]	; 0x64
 8003f7c:	e012      	b.n	8003fa4 <USB_ActivateEndpoint+0x7c>
 8003f7e:	f8b7 3064 	ldrh.w	r3, [r7, #100]	; 0x64
 8003f82:	f443 63c0 	orr.w	r3, r3, #1536	; 0x600
 8003f86:	f8a7 3064 	strh.w	r3, [r7, #100]	; 0x64
 8003f8a:	e00b      	b.n	8003fa4 <USB_ActivateEndpoint+0x7c>
 8003f8c:	f8b7 3064 	ldrh.w	r3, [r7, #100]	; 0x64
 8003f90:	f443 6380 	orr.w	r3, r3, #1024	; 0x400
 8003f94:	f8a7 3064 	strh.w	r3, [r7, #100]	; 0x64
 8003f98:	e004      	b.n	8003fa4 <USB_ActivateEndpoint+0x7c>
 8003f9a:	2301      	movs	r3, #1
 8003f9c:	f887 3067 	strb.w	r3, [r7, #103]	; 0x67
 8003fa0:	e000      	b.n	8003fa4 <USB_ActivateEndpoint+0x7c>
 8003fa2:	bf00      	nop
 8003fa4:	687a      	ldr	r2, [r7, #4]
 8003fa6:	683b      	ldr	r3, [r7, #0]
 8003fa8:	781b      	ldrb	r3, [r3, #0]
 8003faa:	009b      	lsls	r3, r3, #2
 8003fac:	441a      	add	r2, r3
 8003fae:	f8b7 3064 	ldrh.w	r3, [r7, #100]	; 0x64
 8003fb2:	f043 437f 	orr.w	r3, r3, #4278190080	; 0xff000000
 8003fb6:	f443 037f 	orr.w	r3, r3, #16711680	; 0xff0000
 8003fba:	f443 4300 	orr.w	r3, r3, #32768	; 0x8000
 8003fbe:	f043 0380 	orr.w	r3, r3, #128	; 0x80
 8003fc2:	b29b      	uxth	r3, r3
 8003fc4:	8013      	strh	r3, [r2, #0]
 8003fc6:	687a      	ldr	r2, [r7, #4]
 8003fc8:	683b      	ldr	r3, [r7, #0]
 8003fca:	781b      	ldrb	r3, [r3, #0]
 8003fcc:	009b      	lsls	r3, r3, #2
 8003fce:	4413      	add	r3, r2
 8003fd0:	881b      	ldrh	r3, [r3, #0]
 8003fd2:	b29b      	uxth	r3, r3
 8003fd4:	f423 43e0 	bic.w	r3, r3, #28672	; 0x7000
 8003fd8:	f023 0370 	bic.w	r3, r3, #112	; 0x70
 8003fdc:	b29a      	uxth	r2, r3
 8003fde:	683b      	ldr	r3, [r7, #0]
 8003fe0:	781b      	ldrb	r3, [r3, #0]
 8003fe2:	b29b      	uxth	r3, r3
 8003fe4:	4313      	orrs	r3, r2
 8003fe6:	f8a7 305e 	strh.w	r3, [r7, #94]	; 0x5e
 8003fea:	687a      	ldr	r2, [r7, #4]
 8003fec:	683b      	ldr	r3, [r7, #0]
 8003fee:	781b      	ldrb	r3, [r3, #0]
 8003ff0:	009b      	lsls	r3, r3, #2
 8003ff2:	441a      	add	r2, r3
 8003ff4:	f8b7 305e 	ldrh.w	r3, [r7, #94]	; 0x5e
 8003ff8:	f043 437f 	orr.w	r3, r3, #4278190080	; 0xff000000
 8003ffc:	f443 037f 	orr.w	r3, r3, #16711680	; 0xff0000
 8004000:	f443 4300 	orr.w	r3, r3, #32768	; 0x8000
 8004004:	f043 0380 	orr.w	r3, r3, #128	; 0x80
 8004008:	b29b      	uxth	r3, r3
 800400a:	8013      	strh	r3, [r2, #0]
 800400c:	683b      	ldr	r3, [r7, #0]
 800400e:	7b1b      	ldrb	r3, [r3, #12]
 8004010:	2b00      	cmp	r3, #0
 8004012:	f040 8149 	bne.w	80042a8 <USB_ActivateEndpoint+0x380>
 8004016:	683b      	ldr	r3, [r7, #0]
 8004018:	785b      	ldrb	r3, [r3, #1]
 800401a:	2b00      	cmp	r3, #0
 800401c:	f000 8084 	beq.w	8004128 <USB_ActivateEndpoint+0x200>
 8004020:	687b      	ldr	r3, [r7, #4]
 8004022:	617b      	str	r3, [r7, #20]
 8004024:	687b      	ldr	r3, [r7, #4]
 8004026:	f8b3 3050 	ldrh.w	r3, [r3, #80]	; 0x50
 800402a:	b29b      	uxth	r3, r3
 800402c:	461a      	mov	r2, r3
 800402e:	697b      	ldr	r3, [r7, #20]
 8004030:	4413      	add	r3, r2
 8004032:	617b      	str	r3, [r7, #20]
 8004034:	683b      	ldr	r3, [r7, #0]
 8004036:	781b      	ldrb	r3, [r3, #0]
 8004038:	011a      	lsls	r2, r3, #4
 800403a:	697b      	ldr	r3, [r7, #20]
 800403c:	4413      	add	r3, r2
 800403e:	f503 6380 	add.w	r3, r3, #1024	; 0x400
 8004042:	613b      	str	r3, [r7, #16]
 8004044:	683b      	ldr	r3, [r7, #0]
 8004046:	88db      	ldrh	r3, [r3, #6]
 8004048:	085b      	lsrs	r3, r3, #1
 800404a:	b29b      	uxth	r3, r3
 800404c:	005b      	lsls	r3, r3, #1
 800404e:	b29a      	uxth	r2, r3
 8004050:	693b      	ldr	r3, [r7, #16]
 8004052:	801a      	strh	r2, [r3, #0]
 8004054:	687a      	ldr	r2, [r7, #4]
 8004056:	683b      	ldr	r3, [r7, #0]
 8004058:	781b      	ldrb	r3, [r3, #0]
 800405a:	009b      	lsls	r3, r3, #2
 800405c:	4413      	add	r3, r2
 800405e:	881b      	ldrh	r3, [r3, #0]
 8004060:	81fb      	strh	r3, [r7, #14]
 8004062:	89fb      	ldrh	r3, [r7, #14]
 8004064:	f003 0340 	and.w	r3, r3, #64	; 0x40
 8004068:	2b00      	cmp	r3, #0
 800406a:	d01b      	beq.n	80040a4 <USB_ActivateEndpoint+0x17c>
 800406c:	687a      	ldr	r2, [r7, #4]
 800406e:	683b      	ldr	r3, [r7, #0]
 8004070:	781b      	ldrb	r3, [r3, #0]
 8004072:	009b      	lsls	r3, r3, #2
 8004074:	4413      	add	r3, r2
 8004076:	881b      	ldrh	r3, [r3, #0]
 8004078:	b29b      	uxth	r3, r3
 800407a:	f423 43e0 	bic.w	r3, r3, #28672	; 0x7000
 800407e:	f023 0370 	bic.w	r3, r3, #112	; 0x70
 8004082:	81bb      	strh	r3, [r7, #12]
 8004084:	687a      	ldr	r2, [r7, #4]
 8004086:	683b      	ldr	r3, [r7, #0]
 8004088:	781b      	ldrb	r3, [r3, #0]
 800408a:	009b      	lsls	r3, r3, #2
 800408c:	441a      	add	r2, r3
 800408e:	89bb      	ldrh	r3, [r7, #12]
 8004090:	f043 437f 	orr.w	r3, r3, #4278190080	; 0xff000000
 8004094:	f443 037f 	orr.w	r3, r3, #16711680	; 0xff0000
 8004098:	f443 4300 	orr.w	r3, r3, #32768	; 0x8000
 800409c:	f043 03c0 	orr.w	r3, r3, #192	; 0xc0
 80040a0:	b29b      	uxth	r3, r3
 80040a2:	8013      	strh	r3, [r2, #0]
 80040a4:	683b      	ldr	r3, [r7, #0]
 80040a6:	78db      	ldrb	r3, [r3, #3]
 80040a8:	2b01      	cmp	r3, #1
 80040aa:	d020      	beq.n	80040ee <USB_ActivateEndpoint+0x1c6>
 80040ac:	687a      	ldr	r2, [r7, #4]
 80040ae:	683b      	ldr	r3, [r7, #0]
 80040b0:	781b      	ldrb	r3, [r3, #0]
 80040b2:	009b      	lsls	r3, r3, #2
 80040b4:	4413      	add	r3, r2
 80040b6:	881b      	ldrh	r3, [r3, #0]
 80040b8:	b29b      	uxth	r3, r3
 80040ba:	f423 43e0 	bic.w	r3, r3, #28672	; 0x7000
 80040be:	f023 0340 	bic.w	r3, r3, #64	; 0x40
 80040c2:	813b      	strh	r3, [r7, #8]
 80040c4:	893b      	ldrh	r3, [r7, #8]
 80040c6:	f083 0320 	eor.w	r3, r3, #32
 80040ca:	813b      	strh	r3, [r7, #8]
 80040cc:	687a      	ldr	r2, [r7, #4]
 80040ce:	683b      	ldr	r3, [r7, #0]
 80040d0:	781b      	ldrb	r3, [r3, #0]
 80040d2:	009b      	lsls	r3, r3, #2
 80040d4:	441a      	add	r2, r3
 80040d6:	893b      	ldrh	r3, [r7, #8]
 80040d8:	f043 437f 	orr.w	r3, r3, #4278190080	; 0xff000000
 80040dc:	f443 037f 	orr.w	r3, r3, #16711680	; 0xff0000
 80040e0:	f443 4300 	orr.w	r3, r3, #32768	; 0x8000
 80040e4:	f043 0380 	orr.w	r3, r3, #128	; 0x80
 80040e8:	b29b      	uxth	r3, r3
 80040ea:	8013      	strh	r3, [r2, #0]
 80040ec:	e27f      	b.n	80045ee <USB_ActivateEndpoint+0x6c6>
 80040ee:	687a      	ldr	r2, [r7, #4]
 80040f0:	683b      	ldr	r3, [r7, #0]
 80040f2:	781b      	ldrb	r3, [r3, #0]
 80040f4:	009b      	lsls	r3, r3, #2
 80040f6:	4413      	add	r3, r2
 80040f8:	881b      	ldrh	r3, [r3, #0]
 80040fa:	b29b      	uxth	r3, r3
 80040fc:	f423 43e0 	bic.w	r3, r3, #28672	; 0x7000
 8004100:	f023 0340 	bic.w	r3, r3, #64	; 0x40
 8004104:	817b      	strh	r3, [r7, #10]
 8004106:	687a      	ldr	r2, [r7, #4]
 8004108:	683b      	ldr	r3, [r7, #0]
 800410a:	781b      	ldrb	r3, [r3, #0]
 800410c:	009b      	lsls	r3, r3, #2
 800410e:	441a      	add	r2, r3
 8004110:	897b      	ldrh	r3, [r7, #10]
 8004112:	f043 437f 	orr.w	r3, r3, #4278190080	; 0xff000000
 8004116:	f443 037f 	orr.w	r3, r3, #16711680	; 0xff0000
 800411a:	f443 4300 	orr.w	r3, r3, #32768	; 0x8000
 800411e:	f043 0380 	orr.w	r3, r3, #128	; 0x80
 8004122:	b29b      	uxth	r3, r3
 8004124:	8013      	strh	r3, [r2, #0]
 8004126:	e262      	b.n	80045ee <USB_ActivateEndpoint+0x6c6>
 8004128:	687b      	ldr	r3, [r7, #4]
 800412a:	62fb      	str	r3, [r7, #44]	; 0x2c
 800412c:	687b      	ldr	r3, [r7, #4]
 800412e:	f8b3 3050 	ldrh.w	r3, [r3, #80]	; 0x50
 8004132:	b29b      	uxth	r3, r3
 8004134:	461a      	mov	r2, r3
 8004136:	6afb      	ldr	r3, [r7, #44]	; 0x2c
 8004138:	4413      	add	r3, r2
 800413a:	62fb      	str	r3, [r7, #44]	; 0x2c
 800413c:	683b      	ldr	r3, [r7, #0]
 800413e:	781b      	ldrb	r3, [r3, #0]
 8004140:	011a      	lsls	r2, r3, #4
 8004142:	6afb      	ldr	r3, [r7, #44]	; 0x2c
 8004144:	4413      	add	r3, r2
 8004146:	f503 6381 	add.w	r3, r3, #1032	; 0x408
 800414a:	62bb      	str	r3, [r7, #40]	; 0x28
 800414c:	683b      	ldr	r3, [r7, #0]
 800414e:	88db      	ldrh	r3, [r3, #6]
 8004150:	085b      	lsrs	r3, r3, #1
 8004152:	b29b      	uxth	r3, r3
 8004154:	005b      	lsls	r3, r3, #1
 8004156:	b29a      	uxth	r2, r3
 8004158:	6abb      	ldr	r3, [r7, #40]	; 0x28
 800415a:	801a      	strh	r2, [r3, #0]
 800415c:	687b      	ldr	r3, [r7, #4]
 800415e:	627b      	str	r3, [r7, #36]	; 0x24
 8004160:	687b      	ldr	r3, [r7, #4]
 8004162:	f8b3 3050 	ldrh.w	r3, [r3, #80]	; 0x50
 8004166:	b29b      	uxth	r3, r3
 8004168:	461a      	mov	r2, r3
 800416a:	6a7b      	ldr	r3, [r7, #36]	; 0x24
 800416c:	4413      	add	r3, r2
 800416e:	627b      	str	r3, [r7, #36]	; 0x24
 8004170:	683b      	ldr	r3, [r7, #0]
 8004172:	781b      	ldrb	r3, [r3, #0]
 8004174:	011a      	lsls	r2, r3, #4
 8004176:	6a7b      	ldr	r3, [r7, #36]	; 0x24
 8004178:	4413      	add	r3, r2
 800417a:	f203 430c 	addw	r3, r3, #1036	; 0x40c
 800417e:	623b      	str	r3, [r7, #32]
 8004180:	683b      	ldr	r3, [r7, #0]
 8004182:	691b      	ldr	r3, [r3, #16]
 8004184:	2b00      	cmp	r3, #0
 8004186:	d112      	bne.n	80041ae <USB_ActivateEndpoint+0x286>
 8004188:	6a3b      	ldr	r3, [r7, #32]
 800418a:	881b      	ldrh	r3, [r3, #0]
 800418c:	b29b      	uxth	r3, r3
 800418e:	f423 43f8 	bic.w	r3, r3, #31744	; 0x7c00
 8004192:	b29a      	uxth	r2, r3
 8004194:	6a3b      	ldr	r3, [r7, #32]
 8004196:	801a      	strh	r2, [r3, #0]
 8004198:	6a3b      	ldr	r3, [r7, #32]
 800419a:	881b      	ldrh	r3, [r3, #0]
 800419c:	b29b      	uxth	r3, r3
 800419e:	ea6f 4343 	mvn.w	r3, r3, lsl #17
 80041a2:	ea6f 4353 	mvn.w	r3, r3, lsr #17
 80041a6:	b29a      	uxth	r2, r3
 80041a8:	6a3b      	ldr	r3, [r7, #32]
 80041aa:	801a      	strh	r2, [r3, #0]
 80041ac:	e02f      	b.n	800420e <USB_ActivateEndpoint+0x2e6>
 80041ae:	683b      	ldr	r3, [r7, #0]
 80041b0:	691b      	ldr	r3, [r3, #16]
 80041b2:	2b3e      	cmp	r3, #62	; 0x3e
 80041b4:	d813      	bhi.n	80041de <USB_ActivateEndpoint+0x2b6>
 80041b6:	683b      	ldr	r3, [r7, #0]
 80041b8:	691b      	ldr	r3, [r3, #16]
 80041ba:	085b      	lsrs	r3, r3, #1
 80041bc:	663b      	str	r3, [r7, #96]	; 0x60
 80041be:	683b      	ldr	r3, [r7, #0]
 80041c0:	691b      	ldr	r3, [r3, #16]
 80041c2:	f003 0301 	and.w	r3, r3, #1
 80041c6:	2b00      	cmp	r3, #0
 80041c8:	d002      	beq.n	80041d0 <USB_ActivateEndpoint+0x2a8>
 80041ca:	6e3b      	ldr	r3, [r7, #96]	; 0x60
 80041cc:	3301      	adds	r3, #1
 80041ce:	663b      	str	r3, [r7, #96]	; 0x60
 80041d0:	6e3b      	ldr	r3, [r7, #96]	; 0x60
 80041d2:	b29b      	uxth	r3, r3
 80041d4:	029b      	lsls	r3, r3, #10
 80041d6:	b29a      	uxth	r2, r3
 80041d8:	6a3b      	ldr	r3, [r7, #32]
 80041da:	801a      	strh	r2, [r3, #0]
 80041dc:	e017      	b.n	800420e <USB_ActivateEndpoint+0x2e6>
 80041de:	683b      	ldr	r3, [r7, #0]
 80041e0:	691b      	ldr	r3, [r3, #16]
 80041e2:	095b      	lsrs	r3, r3, #5
 80041e4:	663b      	str	r3, [r7, #96]	; 0x60
 80041e6:	683b      	ldr	r3, [r7, #0]
 80041e8:	691b      	ldr	r3, [r3, #16]
 80041ea:	f003 031f 	and.w	r3, r3, #31
 80041ee:	2b00      	cmp	r3, #0
 80041f0:	d102      	bne.n	80041f8 <USB_ActivateEndpoint+0x2d0>
 80041f2:	6e3b      	ldr	r3, [r7, #96]	; 0x60
 80041f4:	3b01      	subs	r3, #1
 80041f6:	663b      	str	r3, [r7, #96]	; 0x60
 80041f8:	6e3b      	ldr	r3, [r7, #96]	; 0x60
 80041fa:	b29b      	uxth	r3, r3
 80041fc:	029b      	lsls	r3, r3, #10
 80041fe:	b29b      	uxth	r3, r3
 8004200:	ea6f 4343 	mvn.w	r3, r3, lsl #17
 8004204:	ea6f 4353 	mvn.w	r3, r3, lsr #17
 8004208:	b29a      	uxth	r2, r3
 800420a:	6a3b      	ldr	r3, [r7, #32]
 800420c:	801a      	strh	r2, [r3, #0]
 800420e:	687a      	ldr	r2, [r7, #4]
 8004210:	683b      	ldr	r3, [r7, #0]
 8004212:	781b      	ldrb	r3, [r3, #0]
 8004214:	009b      	lsls	r3, r3, #2
 8004216:	4413      	add	r3, r2
 8004218:	881b      	ldrh	r3, [r3, #0]
 800421a:	83fb      	strh	r3, [r7, #30]
 800421c:	8bfb      	ldrh	r3, [r7, #30]
 800421e:	f403 4380 	and.w	r3, r3, #16384	; 0x4000
 8004222:	2b00      	cmp	r3, #0
 8004224:	d01b      	beq.n	800425e <USB_ActivateEndpoint+0x336>
 8004226:	687a      	ldr	r2, [r7, #4]
 8004228:	683b      	ldr	r3, [r7, #0]
 800422a:	781b      	ldrb	r3, [r3, #0]
 800422c:	009b      	lsls	r3, r3, #2
 800422e:	4413      	add	r3, r2
 8004230:	881b      	ldrh	r3, [r3, #0]
 8004232:	b29b      	uxth	r3, r3
 8004234:	f423 43e0 	bic.w	r3, r3, #28672	; 0x7000
 8004238:	f023 0370 	bic.w	r3, r3, #112	; 0x70
 800423c:	83bb      	strh	r3, [r7, #28]
 800423e:	687a      	ldr	r2, [r7, #4]
 8004240:	683b      	ldr	r3, [r7, #0]
 8004242:	781b      	ldrb	r3, [r3, #0]
 8004244:	009b      	lsls	r3, r3, #2
 8004246:	441a      	add	r2, r3
 8004248:	8bbb      	ldrh	r3, [r7, #28]
 800424a:	f043 437f 	orr.w	r3, r3, #4278190080	; 0xff000000
 800424e:	f443 037f 	orr.w	r3, r3, #16711680	; 0xff0000
 8004252:	f443 4340 	orr.w	r3, r3, #49152	; 0xc000
 8004256:	f043 0380 	orr.w	r3, r3, #128	; 0x80
 800425a:	b29b      	uxth	r3, r3
 800425c:	8013      	strh	r3, [r2, #0]
 800425e:	687a      	ldr	r2, [r7, #4]
 8004260:	683b      	ldr	r3, [r7, #0]
 8004262:	781b      	ldrb	r3, [r3, #0]
 8004264:	009b      	lsls	r3, r3, #2
 8004266:	4413      	add	r3, r2
 8004268:	881b      	ldrh	r3, [r3, #0]
 800426a:	b29b      	uxth	r3, r3
 800426c:	f423 4380 	bic.w	r3, r3, #16384	; 0x4000
 8004270:	f023 0370 	bic.w	r3, r3, #112	; 0x70
 8004274:	837b      	strh	r3, [r7, #26]
 8004276:	8b7b      	ldrh	r3, [r7, #26]
 8004278:	f483 5380 	eor.w	r3, r3, #4096	; 0x1000
 800427c:	837b      	strh	r3, [r7, #26]
 800427e:	8b7b      	ldrh	r3, [r7, #26]
 8004280:	f483 5300 	eor.w	r3, r3, #8192	; 0x2000
 8004284:	837b      	strh	r3, [r7, #26]
 8004286:	687a      	ldr	r2, [r7, #4]
 8004288:	683b      	ldr	r3, [r7, #0]
 800428a:	781b      	ldrb	r3, [r3, #0]
 800428c:	009b      	lsls	r3, r3, #2
 800428e:	441a      	add	r2, r3
 8004290:	8b7b      	ldrh	r3, [r7, #26]
 8004292:	f043 437f 	orr.w	r3, r3, #4278190080	; 0xff000000
 8004296:	f443 037f 	orr.w	r3, r3, #16711680	; 0xff0000
 800429a:	f443 4300 	orr.w	r3, r3, #32768	; 0x8000
 800429e:	f043 0380 	orr.w	r3, r3, #128	; 0x80
 80042a2:	b29b      	uxth	r3, r3
 80042a4:	8013      	strh	r3, [r2, #0]
 80042a6:	e1a2      	b.n	80045ee <USB_ActivateEndpoint+0x6c6>
 80042a8:	687a      	ldr	r2, [r7, #4]
 80042aa:	683b      	ldr	r3, [r7, #0]
 80042ac:	781b      	ldrb	r3, [r3, #0]
 80042ae:	009b      	lsls	r3, r3, #2
 80042b0:	4413      	add	r3, r2
 80042b2:	881b      	ldrh	r3, [r3, #0]
 80042b4:	b29b      	uxth	r3, r3
 80042b6:	f423 43e0 	bic.w	r3, r3, #28672	; 0x7000
 80042ba:	f023 0370 	bic.w	r3, r3, #112	; 0x70
 80042be:	f8a7 305c 	strh.w	r3, [r7, #92]	; 0x5c
 80042c2:	687a      	ldr	r2, [r7, #4]
 80042c4:	683b      	ldr	r3, [r7, #0]
 80042c6:	781b      	ldrb	r3, [r3, #0]
 80042c8:	009b      	lsls	r3, r3, #2
 80042ca:	441a      	add	r2, r3
 80042cc:	f8b7 305c 	ldrh.w	r3, [r7, #92]	; 0x5c
 80042d0:	f043 437f 	orr.w	r3, r3, #4278190080	; 0xff000000
 80042d4:	f443 037f 	orr.w	r3, r3, #16711680	; 0xff0000
 80042d8:	f443 4301 	orr.w	r3, r3, #33024	; 0x8100
 80042dc:	f043 0380 	orr.w	r3, r3, #128	; 0x80
 80042e0:	b29b      	uxth	r3, r3
 80042e2:	8013      	strh	r3, [r2, #0]
 80042e4:	687b      	ldr	r3, [r7, #4]
 80042e6:	65bb      	str	r3, [r7, #88]	; 0x58
 80042e8:	687b      	ldr	r3, [r7, #4]
 80042ea:	f8b3 3050 	ldrh.w	r3, [r3, #80]	; 0x50
 80042ee:	b29b      	uxth	r3, r3
 80042f0:	461a      	mov	r2, r3
 80042f2:	6dbb      	ldr	r3, [r7, #88]	; 0x58
 80042f4:	4413      	add	r3, r2
 80042f6:	65bb      	str	r3, [r7, #88]	; 0x58
 80042f8:	683b      	ldr	r3, [r7, #0]
 80042fa:	781b      	ldrb	r3, [r3, #0]
 80042fc:	011a      	lsls	r2, r3, #4
 80042fe:	6dbb      	ldr	r3, [r7, #88]	; 0x58
 8004300:	4413      	add	r3, r2
 8004302:	f503 6380 	add.w	r3, r3, #1024	; 0x400
 8004306:	657b      	str	r3, [r7, #84]	; 0x54
 8004308:	683b      	ldr	r3, [r7, #0]
 800430a:	891b      	ldrh	r3, [r3, #8]
 800430c:	085b      	lsrs	r3, r3, #1
 800430e:	b29b      	uxth	r3, r3
 8004310:	005b      	lsls	r3, r3, #1
 8004312:	b29a      	uxth	r2, r3
 8004314:	6d7b      	ldr	r3, [r7, #84]	; 0x54
 8004316:	801a      	strh	r2, [r3, #0]
 8004318:	687b      	ldr	r3, [r7, #4]
 800431a:	653b      	str	r3, [r7, #80]	; 0x50
 800431c:	687b      	ldr	r3, [r7, #4]
 800431e:	f8b3 3050 	ldrh.w	r3, [r3, #80]	; 0x50
 8004322:	b29b      	uxth	r3, r3
 8004324:	461a      	mov	r2, r3
 8004326:	6d3b      	ldr	r3, [r7, #80]	; 0x50
 8004328:	4413      	add	r3, r2
 800432a:	653b      	str	r3, [r7, #80]	; 0x50
 800432c:	683b      	ldr	r3, [r7, #0]
 800432e:	781b      	ldrb	r3, [r3, #0]
 8004330:	011a      	lsls	r2, r3, #4
 8004332:	6d3b      	ldr	r3, [r7, #80]	; 0x50
 8004334:	4413      	add	r3, r2
 8004336:	f503 6381 	add.w	r3, r3, #1032	; 0x408
 800433a:	64fb      	str	r3, [r7, #76]	; 0x4c
 800433c:	683b      	ldr	r3, [r7, #0]
 800433e:	895b      	ldrh	r3, [r3, #10]
 8004340:	085b      	lsrs	r3, r3, #1
 8004342:	b29b      	uxth	r3, r3
 8004344:	005b      	lsls	r3, r3, #1
 8004346:	b29a      	uxth	r2, r3
 8004348:	6cfb      	ldr	r3, [r7, #76]	; 0x4c
 800434a:	801a      	strh	r2, [r3, #0]
 800434c:	683b      	ldr	r3, [r7, #0]
 800434e:	785b      	ldrb	r3, [r3, #1]
 8004350:	2b00      	cmp	r3, #0
 8004352:	f040 8091 	bne.w	8004478 <USB_ActivateEndpoint+0x550>
 8004356:	687a      	ldr	r2, [r7, #4]
 8004358:	683b      	ldr	r3, [r7, #0]
 800435a:	781b      	ldrb	r3, [r3, #0]
 800435c:	009b      	lsls	r3, r3, #2
 800435e:	4413      	add	r3, r2
 8004360:	881b      	ldrh	r3, [r3, #0]
 8004362:	87bb      	strh	r3, [r7, #60]	; 0x3c
 8004364:	8fbb      	ldrh	r3, [r7, #60]	; 0x3c
 8004366:	f403 4380 	and.w	r3, r3, #16384	; 0x4000
 800436a:	2b00      	cmp	r3, #0
 800436c:	d01b      	beq.n	80043a6 <USB_ActivateEndpoint+0x47e>
 800436e:	687a      	ldr	r2, [r7, #4]
 8004370:	683b      	ldr	r3, [r7, #0]
 8004372:	781b      	ldrb	r3, [r3, #0]
 8004374:	009b      	lsls	r3, r3, #2
 8004376:	4413      	add	r3, r2
 8004378:	881b      	ldrh	r3, [r3, #0]
 800437a:	b29b      	uxth	r3, r3
 800437c:	f423 43e0 	bic.w	r3, r3, #28672	; 0x7000
 8004380:	f023 0370 	bic.w	r3, r3, #112	; 0x70
 8004384:	877b      	strh	r3, [r7, #58]	; 0x3a
 8004386:	687a      	ldr	r2, [r7, #4]
 8004388:	683b      	ldr	r3, [r7, #0]
 800438a:	781b      	ldrb	r3, [r3, #0]
 800438c:	009b      	lsls	r3, r3, #2
 800438e:	441a      	add	r2, r3
 8004390:	8f7b      	ldrh	r3, [r7, #58]	; 0x3a
 8004392:	f043 437f 	orr.w	r3, r3, #4278190080	; 0xff000000
 8004396:	f443 037f 	orr.w	r3, r3, #16711680	; 0xff0000
 800439a:	f443 4340 	orr.w	r3, r3, #49152	; 0xc000
 800439e:	f043 0380 	orr.w	r3, r3, #128	; 0x80
 80043a2:	b29b      	uxth	r3, r3
 80043a4:	8013      	strh	r3, [r2, #0]
 80043a6:	687a      	ldr	r2, [r7, #4]
 80043a8:	683b      	ldr	r3, [r7, #0]
 80043aa:	781b      	ldrb	r3, [r3, #0]
 80043ac:	009b      	lsls	r3, r3, #2
 80043ae:	4413      	add	r3, r2
 80043b0:	881b      	ldrh	r3, [r3, #0]
 80043b2:	873b      	strh	r3, [r7, #56]	; 0x38
 80043b4:	8f3b      	ldrh	r3, [r7, #56]	; 0x38
 80043b6:	f003 0340 	and.w	r3, r3, #64	; 0x40
 80043ba:	2b00      	cmp	r3, #0
 80043bc:	d01b      	beq.n	80043f6 <USB_ActivateEndpoint+0x4ce>
 80043be:	687a      	ldr	r2, [r7, #4]
 80043c0:	683b      	ldr	r3, [r7, #0]
 80043c2:	781b      	ldrb	r3, [r3, #0]
 80043c4:	009b      	lsls	r3, r3, #2
 80043c6:	4413      	add	r3, r2
 80043c8:	881b      	ldrh	r3, [r3, #0]
 80043ca:	b29b      	uxth	r3, r3
 80043cc:	f423 43e0 	bic.w	r3, r3, #28672	; 0x7000
 80043d0:	f023 0370 	bic.w	r3, r3, #112	; 0x70
 80043d4:	86fb      	strh	r3, [r7, #54]	; 0x36
 80043d6:	687a      	ldr	r2, [r7, #4]
 80043d8:	683b      	ldr	r3, [r7, #0]
 80043da:	781b      	ldrb	r3, [r3, #0]
 80043dc:	009b      	lsls	r3, r3, #2
 80043de:	441a      	add	r2, r3
 80043e0:	8efb      	ldrh	r3, [r7, #54]	; 0x36
 80043e2:	f043 437f 	orr.w	r3, r3, #4278190080	; 0xff000000
 80043e6:	f443 037f 	orr.w	r3, r3, #16711680	; 0xff0000
 80043ea:	f443 4300 	orr.w	r3, r3, #32768	; 0x8000
 80043ee:	f043 03c0 	orr.w	r3, r3, #192	; 0xc0
 80043f2:	b29b      	uxth	r3, r3
 80043f4:	8013      	strh	r3, [r2, #0]
 80043f6:	687a      	ldr	r2, [r7, #4]
 80043f8:	683b      	ldr	r3, [r7, #0]
 80043fa:	781b      	ldrb	r3, [r3, #0]
 80043fc:	009b      	lsls	r3, r3, #2
 80043fe:	4413      	add	r3, r2
 8004400:	881b      	ldrh	r3, [r3, #0]
 8004402:	b29b      	uxth	r3, r3
 8004404:	f423 4380 	bic.w	r3, r3, #16384	; 0x4000
 8004408:	f023 0370 	bic.w	r3, r3, #112	; 0x70
 800440c:	86bb      	strh	r3, [r7, #52]	; 0x34
 800440e:	8ebb      	ldrh	r3, [r7, #52]	; 0x34
 8004410:	f483 5380 	eor.w	r3, r3, #4096	; 0x1000
 8004414:	86bb      	strh	r3, [r7, #52]	; 0x34
 8004416:	8ebb      	ldrh	r3, [r7, #52]	; 0x34
 8004418:	f483 5300 	eor.w	r3, r3, #8192	; 0x2000
 800441c:	86bb      	strh	r3, [r7, #52]	; 0x34
 800441e:	687a      	ldr	r2, [r7, #4]
 8004420:	683b      	ldr	r3, [r7, #0]
 8004422:	781b      	ldrb	r3, [r3, #0]
 8004424:	009b      	lsls	r3, r3, #2
 8004426:	441a      	add	r2, r3
 8004428:	8ebb      	ldrh	r3, [r7, #52]	; 0x34
 800442a:	f043 437f 	orr.w	r3, r3, #4278190080	; 0xff000000
 800442e:	f443 037f 	orr.w	r3, r3, #16711680	; 0xff0000
 8004432:	f443 4300 	orr.w	r3, r3, #32768	; 0x8000
 8004436:	f043 0380 	orr.w	r3, r3, #128	; 0x80
 800443a:	b29b      	uxth	r3, r3
 800443c:	8013      	strh	r3, [r2, #0]
 800443e:	687a      	ldr	r2, [r7, #4]
 8004440:	683b      	ldr	r3, [r7, #0]
 8004442:	781b      	ldrb	r3, [r3, #0]
 8004444:	009b      	lsls	r3, r3, #2
 8004446:	4413      	add	r3, r2
 8004448:	881b      	ldrh	r3, [r3, #0]
 800444a:	b29b      	uxth	r3, r3
 800444c:	f423 43e0 	bic.w	r3, r3, #28672	; 0x7000
 8004450:	f023 0340 	bic.w	r3, r3, #64	; 0x40
 8004454:	867b      	strh	r3, [r7, #50]	; 0x32
 8004456:	687a      	ldr	r2, [r7, #4]
 8004458:	683b      	ldr	r3, [r7, #0]
 800445a:	781b      	ldrb	r3, [r3, #0]
 800445c:	009b      	lsls	r3, r3, #2
 800445e:	441a      	add	r2, r3
 8004460:	8e7b      	ldrh	r3, [r7, #50]	; 0x32
 8004462:	f043 437f 	orr.w	r3, r3, #4278190080	; 0xff000000
 8004466:	f443 037f 	orr.w	r3, r3, #16711680	; 0xff0000
 800446a:	f443 4300 	orr.w	r3, r3, #32768	; 0x8000
 800446e:	f043 0380 	orr.w	r3, r3, #128	; 0x80
 8004472:	b29b      	uxth	r3, r3
 8004474:	8013      	strh	r3, [r2, #0]
 8004476:	e0ba      	b.n	80045ee <USB_ActivateEndpoint+0x6c6>
 8004478:	687a      	ldr	r2, [r7, #4]
 800447a:	683b      	ldr	r3, [r7, #0]
 800447c:	781b      	ldrb	r3, [r3, #0]
 800447e:	009b      	lsls	r3, r3, #2
 8004480:	4413      	add	r3, r2
 8004482:	881b      	ldrh	r3, [r3, #0]
 8004484:	f8a7 304a 	strh.w	r3, [r7, #74]	; 0x4a
 8004488:	f8b7 304a 	ldrh.w	r3, [r7, #74]	; 0x4a
 800448c:	f403 4380 	and.w	r3, r3, #16384	; 0x4000
 8004490:	2b00      	cmp	r3, #0
 8004492:	d01d      	beq.n	80044d0 <USB_ActivateEndpoint+0x5a8>
 8004494:	687a      	ldr	r2, [r7, #4]
 8004496:	683b      	ldr	r3, [r7, #0]
 8004498:	781b      	ldrb	r3, [r3, #0]
 800449a:	009b      	lsls	r3, r3, #2
 800449c:	4413      	add	r3, r2
 800449e:	881b      	ldrh	r3, [r3, #0]
 80044a0:	b29b      	uxth	r3, r3
 80044a2:	f423 43e0 	bic.w	r3, r3, #28672	; 0x7000
 80044a6:	f023 0370 	bic.w	r3, r3, #112	; 0x70
 80044aa:	f8a7 3048 	strh.w	r3, [r7, #72]	; 0x48
 80044ae:	687a      	ldr	r2, [r7, #4]
 80044b0:	683b      	ldr	r3, [r7, #0]
 80044b2:	781b      	ldrb	r3, [r3, #0]
 80044b4:	009b      	lsls	r3, r3, #2
 80044b6:	441a      	add	r2, r3
 80044b8:	f8b7 3048 	ldrh.w	r3, [r7, #72]	; 0x48
 80044bc:	f043 437f 	orr.w	r3, r3, #4278190080	; 0xff000000
 80044c0:	f443 037f 	orr.w	r3, r3, #16711680	; 0xff0000
 80044c4:	f443 4340 	orr.w	r3, r3, #49152	; 0xc000
 80044c8:	f043 0380 	orr.w	r3, r3, #128	; 0x80
 80044cc:	b29b      	uxth	r3, r3
 80044ce:	8013      	strh	r3, [r2, #0]
 80044d0:	687a      	ldr	r2, [r7, #4]
 80044d2:	683b      	ldr	r3, [r7, #0]
 80044d4:	781b      	ldrb	r3, [r3, #0]
 80044d6:	009b      	lsls	r3, r3, #2
 80044d8:	4413      	add	r3, r2
 80044da:	881b      	ldrh	r3, [r3, #0]
 80044dc:	f8a7 3046 	strh.w	r3, [r7, #70]	; 0x46
 80044e0:	f8b7 3046 	ldrh.w	r3, [r7, #70]	; 0x46
 80044e4:	f003 0340 	and.w	r3, r3, #64	; 0x40
 80044e8:	2b00      	cmp	r3, #0
 80044ea:	d01d      	beq.n	8004528 <USB_ActivateEndpoint+0x600>
 80044ec:	687a      	ldr	r2, [r7, #4]
 80044ee:	683b      	ldr	r3, [r7, #0]
 80044f0:	781b      	ldrb	r3, [r3, #0]
 80044f2:	009b      	lsls	r3, r3, #2
 80044f4:	4413      	add	r3, r2
 80044f6:	881b      	ldrh	r3, [r3, #0]
 80044f8:	b29b      	uxth	r3, r3
 80044fa:	f423 43e0 	bic.w	r3, r3, #28672	; 0x7000
 80044fe:	f023 0370 	bic.w	r3, r3, #112	; 0x70
 8004502:	f8a7 3044 	strh.w	r3, [r7, #68]	; 0x44
 8004506:	687a      	ldr	r2, [r7, #4]
 8004508:	683b      	ldr	r3, [r7, #0]
 800450a:	781b      	ldrb	r3, [r3, #0]
 800450c:	009b      	lsls	r3, r3, #2
 800450e:	441a      	add	r2, r3
 8004510:	f8b7 3044 	ldrh.w	r3, [r7, #68]	; 0x44
 8004514:	f043 437f 	orr.w	r3, r3, #4278190080	; 0xff000000
 8004518:	f443 037f 	orr.w	r3, r3, #16711680	; 0xff0000
 800451c:	f443 4300 	orr.w	r3, r3, #32768	; 0x8000
 8004520:	f043 03c0 	orr.w	r3, r3, #192	; 0xc0
 8004524:	b29b      	uxth	r3, r3
 8004526:	8013      	strh	r3, [r2, #0]
 8004528:	683b      	ldr	r3, [r7, #0]
 800452a:	78db      	ldrb	r3, [r3, #3]
 800452c:	2b01      	cmp	r3, #1
 800452e:	d024      	beq.n	800457a <USB_ActivateEndpoint+0x652>
 8004530:	687a      	ldr	r2, [r7, #4]
 8004532:	683b      	ldr	r3, [r7, #0]
 8004534:	781b      	ldrb	r3, [r3, #0]
 8004536:	009b      	lsls	r3, r3, #2
 8004538:	4413      	add	r3, r2
 800453a:	881b      	ldrh	r3, [r3, #0]
 800453c:	b29b      	uxth	r3, r3
 800453e:	f423 43e0 	bic.w	r3, r3, #28672	; 0x7000
 8004542:	f023 0340 	bic.w	r3, r3, #64	; 0x40
 8004546:	f8a7 3040 	strh.w	r3, [r7, #64]	; 0x40
 800454a:	f8b7 3040 	ldrh.w	r3, [r7, #64]	; 0x40
 800454e:	f083 0320 	eor.w	r3, r3, #32
 8004552:	f8a7 3040 	strh.w	r3, [r7, #64]	; 0x40
 8004556:	687a      	ldr	r2, [r7, #4]
 8004558:	683b      	ldr	r3, [r7, #0]
 800455a:	781b      	ldrb	r3, [r3, #0]
 800455c:	009b      	lsls	r3, r3, #2
 800455e:	441a      	add	r2, r3
 8004560:	f8b7 3040 	ldrh.w	r3, [r7, #64]	; 0x40
 8004564:	f043 437f 	orr.w	r3, r3, #4278190080	; 0xff000000
 8004568:	f443 037f 	orr.w	r3, r3, #16711680	; 0xff0000
 800456c:	f443 4300 	orr.w	r3, r3, #32768	; 0x8000
 8004570:	f043 0380 	orr.w	r3, r3, #128	; 0x80
 8004574:	b29b      	uxth	r3, r3
 8004576:	8013      	strh	r3, [r2, #0]
 8004578:	e01d      	b.n	80045b6 <USB_ActivateEndpoint+0x68e>
 800457a:	687a      	ldr	r2, [r7, #4]
 800457c:	683b      	ldr	r3, [r7, #0]
 800457e:	781b      	ldrb	r3, [r3, #0]
 8004580:	009b      	lsls	r3, r3, #2
 8004582:	4413      	add	r3, r2
 8004584:	881b      	ldrh	r3, [r3, #0]
 8004586:	b29b      	uxth	r3, r3
 8004588:	f423 43e0 	bic.w	r3, r3, #28672	; 0x7000
 800458c:	f023 0340 	bic.w	r3, r3, #64	; 0x40
 8004590:	f8a7 3042 	strh.w	r3, [r7, #66]	; 0x42
 8004594:	687a      	ldr	r2, [r7, #4]
 8004596:	683b      	ldr	r3, [r7, #0]
 8004598:	781b      	ldrb	r3, [r3, #0]
 800459a:	009b      	lsls	r3, r3, #2
 800459c:	441a      	add	r2, r3
 800459e:	f8b7 3042 	ldrh.w	r3, [r7, #66]	; 0x42
 80045a2:	f043 437f 	orr.w	r3, r3, #4278190080	; 0xff000000
 80045a6:	f443 037f 	orr.w	r3, r3, #16711680	; 0xff0000
 80045aa:	f443 4300 	orr.w	r3, r3, #32768	; 0x8000
 80045ae:	f043 0380 	orr.w	r3, r3, #128	; 0x80
 80045b2:	b29b      	uxth	r3, r3
 80045b4:	8013      	strh	r3, [r2, #0]
 80045b6:	687a      	ldr	r2, [r7, #4]
 80045b8:	683b      	ldr	r3, [r7, #0]
 80045ba:	781b      	ldrb	r3, [r3, #0]
 80045bc:	009b      	lsls	r3, r3, #2
 80045be:	4413      	add	r3, r2
 80045c0:	881b      	ldrh	r3, [r3, #0]
 80045c2:	b29b      	uxth	r3, r3
 80045c4:	f423 4380 	bic.w	r3, r3, #16384	; 0x4000
 80045c8:	f023 0370 	bic.w	r3, r3, #112	; 0x70
 80045cc:	87fb      	strh	r3, [r7, #62]	; 0x3e
 80045ce:	687a      	ldr	r2, [r7, #4]
 80045d0:	683b      	ldr	r3, [r7, #0]
 80045d2:	781b      	ldrb	r3, [r3, #0]
 80045d4:	009b      	lsls	r3, r3, #2
 80045d6:	441a      	add	r2, r3
 80045d8:	8ffb      	ldrh	r3, [r7, #62]	; 0x3e
 80045da:	f043 437f 	orr.w	r3, r3, #4278190080	; 0xff000000
 80045de:	f443 037f 	orr.w	r3, r3, #16711680	; 0xff0000
 80045e2:	f443 4300 	orr.w	r3, r3, #32768	; 0x8000
 80045e6:	f043 0380 	orr.w	r3, r3, #128	; 0x80
 80045ea:	b29b      	uxth	r3, r3
 80045ec:	8013      	strh	r3, [r2, #0]
 80045ee:	f897 3067 	ldrb.w	r3, [r7, #103]	; 0x67
 80045f2:	4618      	mov	r0, r3
 80045f4:	376c      	adds	r7, #108	; 0x6c
 80045f6:	46bd      	mov	sp, r7
 80045f8:	bc80      	pop	{r7}
 80045fa:	4770      	bx	lr

080045fc <USB_DeactivateEndpoint>:
 80045fc:	b480      	push	{r7}
 80045fe:	b08d      	sub	sp, #52	; 0x34
 8004600:	af00      	add	r7, sp, #0
 8004602:	6078      	str	r0, [r7, #4]
 8004604:	6039      	str	r1, [r7, #0]
 8004606:	683b      	ldr	r3, [r7, #0]
 8004608:	7b1b      	ldrb	r3, [r3, #12]
 800460a:	2b00      	cmp	r3, #0
 800460c:	f040 808e 	bne.w	800472c <USB_DeactivateEndpoint+0x130>
 8004610:	683b      	ldr	r3, [r7, #0]
 8004612:	785b      	ldrb	r3, [r3, #1]
 8004614:	2b00      	cmp	r3, #0
 8004616:	d044      	beq.n	80046a2 <USB_DeactivateEndpoint+0xa6>
 8004618:	687a      	ldr	r2, [r7, #4]
 800461a:	683b      	ldr	r3, [r7, #0]
 800461c:	781b      	ldrb	r3, [r3, #0]
 800461e:	009b      	lsls	r3, r3, #2
 8004620:	4413      	add	r3, r2
 8004622:	881b      	ldrh	r3, [r3, #0]
 8004624:	81bb      	strh	r3, [r7, #12]
 8004626:	89bb      	ldrh	r3, [r7, #12]
 8004628:	f003 0340 	and.w	r3, r3, #64	; 0x40
 800462c:	2b00      	cmp	r3, #0
 800462e:	d01b      	beq.n	8004668 <USB_DeactivateEndpoint+0x6c>
 8004630:	687a      	ldr	r2, [r7, #4]
 8004632:	683b      	ldr	r3, [r7, #0]
 8004634:	781b      	ldrb	r3, [r3, #0]
 8004636:	009b      	lsls	r3, r3, #2
 8004638:	4413      	add	r3, r2
 800463a:	881b      	ldrh	r3, [r3, #0]
 800463c:	b29b      	uxth	r3, r3
 800463e:	f423 43e0 	bic.w	r3, r3, #28672	; 0x7000
 8004642:	f023 0370 	bic.w	r3, r3, #112	; 0x70
 8004646:	817b      	strh	r3, [r7, #10]
 8004648:	687a      	ldr	r2, [r7, #4]
 800464a:	683b      	ldr	r3, [r7, #0]
 800464c:	781b      	ldrb	r3, [r3, #0]
 800464e:	009b      	lsls	r3, r3, #2
 8004650:	441a      	add	r2, r3
 8004652:	897b      	ldrh	r3, [r7, #10]
 8004654:	f043 437f 	orr.w	r3, r3, #4278190080	; 0xff000000
 8004658:	f443 037f 	orr.w	r3, r3, #16711680	; 0xff0000
 800465c:	f443 4300 	orr.w	r3, r3, #32768	; 0x8000
 8004660:	f043 03c0 	orr.w	r3, r3, #192	; 0xc0
 8004664:	b29b      	uxth	r3, r3
 8004666:	8013      	strh	r3, [r2, #0]
 8004668:	687a      	ldr	r2, [r7, #4]
 800466a:	683b      	ldr	r3, [r7, #0]
 800466c:	781b      	ldrb	r3, [r3, #0]
 800466e:	009b      	lsls	r3, r3, #2
 8004670:	4413      	add	r3, r2
 8004672:	881b      	ldrh	r3, [r3, #0]
 8004674:	b29b      	uxth	r3, r3
 8004676:	f423 43e0 	bic.w	r3, r3, #28672	; 0x7000
 800467a:	f023 0340 	bic.w	r3, r3, #64	; 0x40
 800467e:	813b      	strh	r3, [r7, #8]
 8004680:	687a      	ldr	r2, [r7, #4]
 8004682:	683b      	ldr	r3, [r7, #0]
 8004684:	781b      	ldrb	r3, [r3, #0]
 8004686:	009b      	lsls	r3, r3, #2
 8004688:	441a      	add	r2, r3
 800468a:	893b      	ldrh	r3, [r7, #8]
 800468c:	f043 437f 	orr.w	r3, r3, #4278190080	; 0xff000000
 8004690:	f443 037f 	orr.w	r3, r3, #16711680	; 0xff0000
 8004694:	f443 4300 	orr.w	r3, r3, #32768	; 0x8000
 8004698:	f043 0380 	orr.w	r3, r3, #128	; 0x80
 800469c:	b29b      	uxth	r3, r3
 800469e:	8013      	strh	r3, [r2, #0]
 80046a0:	e192      	b.n	80049c8 <USB_DeactivateEndpoint+0x3cc>
 80046a2:	687a      	ldr	r2, [r7, #4]
 80046a4:	683b      	ldr	r3, [r7, #0]
 80046a6:	781b      	ldrb	r3, [r3, #0]
 80046a8:	009b      	lsls	r3, r3, #2
 80046aa:	4413      	add	r3, r2
 80046ac:	881b      	ldrh	r3, [r3, #0]
 80046ae:	827b      	strh	r3, [r7, #18]
 80046b0:	8a7b      	ldrh	r3, [r7, #18]
 80046b2:	f403 4380 	and.w	r3, r3, #16384	; 0x4000
 80046b6:	2b00      	cmp	r3, #0
 80046b8:	d01b      	beq.n	80046f2 <USB_DeactivateEndpoint+0xf6>
 80046ba:	687a      	ldr	r2, [r7, #4]
 80046bc:	683b      	ldr	r3, [r7, #0]
 80046be:	781b      	ldrb	r3, [r3, #0]
 80046c0:	009b      	lsls	r3, r3, #2
 80046c2:	4413      	add	r3, r2
 80046c4:	881b      	ldrh	r3, [r3, #0]
 80046c6:	b29b      	uxth	r3, r3
 80046c8:	f423 43e0 	bic.w	r3, r3, #28672	; 0x7000
 80046cc:	f023 0370 	bic.w	r3, r3, #112	; 0x70
 80046d0:	823b      	strh	r3, [r7, #16]
 80046d2:	687a      	ldr	r2, [r7, #4]
 80046d4:	683b      	ldr	r3, [r7, #0]
 80046d6:	781b      	ldrb	r3, [r3, #0]
 80046d8:	009b      	lsls	r3, r3, #2
 80046da:	441a      	add	r2, r3
 80046dc:	8a3b      	ldrh	r3, [r7, #16]
 80046de:	f043 437f 	orr.w	r3, r3, #4278190080	; 0xff000000
 80046e2:	f443 037f 	orr.w	r3, r3, #16711680	; 0xff0000
 80046e6:	f443 4340 	orr.w	r3, r3, #49152	; 0xc000
 80046ea:	f043 0380 	orr.w	r3, r3, #128	; 0x80
 80046ee:	b29b      	uxth	r3, r3
 80046f0:	8013      	strh	r3, [r2, #0]
 80046f2:	687a      	ldr	r2, [r7, #4]
 80046f4:	683b      	ldr	r3, [r7, #0]
 80046f6:	781b      	ldrb	r3, [r3, #0]
 80046f8:	009b      	lsls	r3, r3, #2
 80046fa:	4413      	add	r3, r2
 80046fc:	881b      	ldrh	r3, [r3, #0]
 80046fe:	b29b      	uxth	r3, r3
 8004700:	f423 4380 	bic.w	r3, r3, #16384	; 0x4000
 8004704:	f023 0370 	bic.w	r3, r3, #112	; 0x70
 8004708:	81fb      	strh	r3, [r7, #14]
 800470a:	687a      	ldr	r2, [r7, #4]
 800470c:	683b      	ldr	r3, [r7, #0]
 800470e:	781b      	ldrb	r3, [r3, #0]
 8004710:	009b      	lsls	r3, r3, #2
 8004712:	441a      	add	r2, r3
 8004714:	89fb      	ldrh	r3, [r7, #14]
 8004716:	f043 437f 	orr.w	r3, r3, #4278190080	; 0xff000000
 800471a:	f443 037f 	orr.w	r3, r3, #16711680	; 0xff0000
 800471e:	f443 4300 	orr.w	r3, r3, #32768	; 0x8000
 8004722:	f043 0380 	orr.w	r3, r3, #128	; 0x80
 8004726:	b29b      	uxth	r3, r3
 8004728:	8013      	strh	r3, [r2, #0]
 800472a:	e14d      	b.n	80049c8 <USB_DeactivateEndpoint+0x3cc>
 800472c:	683b      	ldr	r3, [r7, #0]
 800472e:	785b      	ldrb	r3, [r3, #1]
 8004730:	2b00      	cmp	r3, #0
 8004732:	f040 80a5 	bne.w	8004880 <USB_DeactivateEndpoint+0x284>
 8004736:	687a      	ldr	r2, [r7, #4]
 8004738:	683b      	ldr	r3, [r7, #0]
 800473a:	781b      	ldrb	r3, [r3, #0]
 800473c:	009b      	lsls	r3, r3, #2
 800473e:	4413      	add	r3, r2
 8004740:	881b      	ldrh	r3, [r3, #0]
 8004742:	843b      	strh	r3, [r7, #32]
 8004744:	8c3b      	ldrh	r3, [r7, #32]
 8004746:	f403 4380 	and.w	r3, r3, #16384	; 0x4000
 800474a:	2b00      	cmp	r3, #0
 800474c:	d01b      	beq.n	8004786 <USB_DeactivateEndpoint+0x18a>
 800474e:	687a      	ldr	r2, [r7, #4]
 8004750:	683b      	ldr	r3, [r7, #0]
 8004752:	781b      	ldrb	r3, [r3, #0]
 8004754:	009b      	lsls	r3, r3, #2
 8004756:	4413      	add	r3, r2
 8004758:	881b      	ldrh	r3, [r3, #0]
 800475a:	b29b      	uxth	r3, r3
 800475c:	f423 43e0 	bic.w	r3, r3, #28672	; 0x7000
 8004760:	f023 0370 	bic.w	r3, r3, #112	; 0x70
 8004764:	83fb      	strh	r3, [r7, #30]
 8004766:	687a      	ldr	r2, [r7, #4]
 8004768:	683b      	ldr	r3, [r7, #0]
 800476a:	781b      	ldrb	r3, [r3, #0]
 800476c:	009b      	lsls	r3, r3, #2
 800476e:	441a      	add	r2, r3
 8004770:	8bfb      	ldrh	r3, [r7, #30]
 8004772:	f043 437f 	orr.w	r3, r3, #4278190080	; 0xff000000
 8004776:	f443 037f 	orr.w	r3, r3, #16711680	; 0xff0000
 800477a:	f443 4340 	orr.w	r3, r3, #49152	; 0xc000
 800477e:	f043 0380 	orr.w	r3, r3, #128	; 0x80
 8004782:	b29b      	uxth	r3, r3
 8004784:	8013      	strh	r3, [r2, #0]
 8004786:	687a      	ldr	r2, [r7, #4]
 8004788:	683b      	ldr	r3, [r7, #0]
 800478a:	781b      	ldrb	r3, [r3, #0]
 800478c:	009b      	lsls	r3, r3, #2
 800478e:	4413      	add	r3, r2
 8004790:	881b      	ldrh	r3, [r3, #0]
 8004792:	83bb      	strh	r3, [r7, #28]
 8004794:	8bbb      	ldrh	r3, [r7, #28]
 8004796:	f003 0340 	and.w	r3, r3, #64	; 0x40
 800479a:	2b00      	cmp	r3, #0
 800479c:	d01b      	beq.n	80047d6 <USB_DeactivateEndpoint+0x1da>
 800479e:	687a      	ldr	r2, [r7, #4]
 80047a0:	683b      	ldr	r3, [r7, #0]
 80047a2:	781b      	ldrb	r3, [r3, #0]
 80047a4:	009b      	lsls	r3, r3, #2
 80047a6:	4413      	add	r3, r2
 80047a8:	881b      	ldrh	r3, [r3, #0]
 80047aa:	b29b      	uxth	r3, r3
 80047ac:	f423 43e0 	bic.w	r3, r3, #28672	; 0x7000
 80047b0:	f023 0370 	bic.w	r3, r3, #112	; 0x70
 80047b4:	837b      	strh	r3, [r7, #26]
 80047b6:	687a      	ldr	r2, [r7, #4]
 80047b8:	683b      	ldr	r3, [r7, #0]
 80047ba:	781b      	ldrb	r3, [r3, #0]
 80047bc:	009b      	lsls	r3, r3, #2
 80047be:	441a      	add	r2, r3
 80047c0:	8b7b      	ldrh	r3, [r7, #26]
 80047c2:	f043 437f 	orr.w	r3, r3, #4278190080	; 0xff000000
 80047c6:	f443 037f 	orr.w	r3, r3, #16711680	; 0xff0000
 80047ca:	f443 4300 	orr.w	r3, r3, #32768	; 0x8000
 80047ce:	f043 03c0 	orr.w	r3, r3, #192	; 0xc0
 80047d2:	b29b      	uxth	r3, r3
 80047d4:	8013      	strh	r3, [r2, #0]
 80047d6:	687a      	ldr	r2, [r7, #4]
 80047d8:	683b      	ldr	r3, [r7, #0]
 80047da:	781b      	ldrb	r3, [r3, #0]
 80047dc:	009b      	lsls	r3, r3, #2
 80047de:	4413      	add	r3, r2
 80047e0:	881b      	ldrh	r3, [r3, #0]
 80047e2:	b29b      	uxth	r3, r3
 80047e4:	f423 43e0 	bic.w	r3, r3, #28672	; 0x7000
 80047e8:	f023 0370 	bic.w	r3, r3, #112	; 0x70
 80047ec:	833b      	strh	r3, [r7, #24]
 80047ee:	687a      	ldr	r2, [r7, #4]
 80047f0:	683b      	ldr	r3, [r7, #0]
 80047f2:	781b      	ldrb	r3, [r3, #0]
 80047f4:	009b      	lsls	r3, r3, #2
 80047f6:	441a      	add	r2, r3
 80047f8:	8b3b      	ldrh	r3, [r7, #24]
 80047fa:	f043 437f 	orr.w	r3, r3, #4278190080	; 0xff000000
 80047fe:	f443 037f 	orr.w	r3, r3, #16711680	; 0xff0000
 8004802:	f443 4300 	orr.w	r3, r3, #32768	; 0x8000
 8004806:	f043 03c0 	orr.w	r3, r3, #192	; 0xc0
 800480a:	b29b      	uxth	r3, r3
 800480c:	8013      	strh	r3, [r2, #0]
 800480e:	687a      	ldr	r2, [r7, #4]
 8004810:	683b      	ldr	r3, [r7, #0]
 8004812:	781b      	ldrb	r3, [r3, #0]
 8004814:	009b      	lsls	r3, r3, #2
 8004816:	4413      	add	r3, r2
 8004818:	881b      	ldrh	r3, [r3, #0]
 800481a:	b29b      	uxth	r3, r3
 800481c:	f423 4380 	bic.w	r3, r3, #16384	; 0x4000
 8004820:	f023 0370 	bic.w	r3, r3, #112	; 0x70
 8004824:	82fb      	strh	r3, [r7, #22]
 8004826:	687a      	ldr	r2, [r7, #4]
 8004828:	683b      	ldr	r3, [r7, #0]
 800482a:	781b      	ldrb	r3, [r3, #0]
 800482c:	009b      	lsls	r3, r3, #2
 800482e:	441a      	add	r2, r3
 8004830:	8afb      	ldrh	r3, [r7, #22]
 8004832:	f043 437f 	orr.w	r3, r3, #4278190080	; 0xff000000
 8004836:	f443 037f 	orr.w	r3, r3, #16711680	; 0xff0000
 800483a:	f443 4300 	orr.w	r3, r3, #32768	; 0x8000
 800483e:	f043 0380 	orr.w	r3, r3, #128	; 0x80
 8004842:	b29b      	uxth	r3, r3
 8004844:	8013      	strh	r3, [r2, #0]
 8004846:	687a      	ldr	r2, [r7, #4]
 8004848:	683b      	ldr	r3, [r7, #0]
 800484a:	781b      	ldrb	r3, [r3, #0]
 800484c:	009b      	lsls	r3, r3, #2
 800484e:	4413      	add	r3, r2
 8004850:	881b      	ldrh	r3, [r3, #0]
 8004852:	b29b      	uxth	r3, r3
 8004854:	f423 43e0 	bic.w	r3, r3, #28672	; 0x7000
 8004858:	f023 0340 	bic.w	r3, r3, #64	; 0x40
 800485c:	82bb      	strh	r3, [r7, #20]
 800485e:	687a      	ldr	r2, [r7, #4]
 8004860:	683b      	ldr	r3, [r7, #0]
 8004862:	781b      	ldrb	r3, [r3, #0]
 8004864:	009b      	lsls	r3, r3, #2
 8004866:	441a      	add	r2, r3
 8004868:	8abb      	ldrh	r3, [r7, #20]
 800486a:	f043 437f 	orr.w	r3, r3, #4278190080	; 0xff000000
 800486e:	f443 037f 	orr.w	r3, r3, #16711680	; 0xff0000
 8004872:	f443 4300 	orr.w	r3, r3, #32768	; 0x8000
 8004876:	f043 0380 	orr.w	r3, r3, #128	; 0x80
 800487a:	b29b      	uxth	r3, r3
 800487c:	8013      	strh	r3, [r2, #0]
 800487e:	e0a3      	b.n	80049c8 <USB_DeactivateEndpoint+0x3cc>
 8004880:	687a      	ldr	r2, [r7, #4]
 8004882:	683b      	ldr	r3, [r7, #0]
 8004884:	781b      	ldrb	r3, [r3, #0]
 8004886:	009b      	lsls	r3, r3, #2
 8004888:	4413      	add	r3, r2
 800488a:	881b      	ldrh	r3, [r3, #0]
 800488c:	85fb      	strh	r3, [r7, #46]	; 0x2e
 800488e:	8dfb      	ldrh	r3, [r7, #46]	; 0x2e
 8004890:	f403 4380 	and.w	r3, r3, #16384	; 0x4000
 8004894:	2b00      	cmp	r3, #0
 8004896:	d01b      	beq.n	80048d0 <USB_DeactivateEndpoint+0x2d4>
 8004898:	687a      	ldr	r2, [r7, #4]
 800489a:	683b      	ldr	r3, [r7, #0]
 800489c:	781b      	ldrb	r3, [r3, #0]
 800489e:	009b      	lsls	r3, r3, #2
 80048a0:	4413      	add	r3, r2
 80048a2:	881b      	ldrh	r3, [r3, #0]
 80048a4:	b29b      	uxth	r3, r3
 80048a6:	f423 43e0 	bic.w	r3, r3, #28672	; 0x7000
 80048aa:	f023 0370 	bic.w	r3, r3, #112	; 0x70
 80048ae:	85bb      	strh	r3, [r7, #44]	; 0x2c
 80048b0:	687a      	ldr	r2, [r7, #4]
 80048b2:	683b      	ldr	r3, [r7, #0]
 80048b4:	781b      	ldrb	r3, [r3, #0]
 80048b6:	009b      	lsls	r3, r3, #2
 80048b8:	441a      	add	r2, r3
 80048ba:	8dbb      	ldrh	r3, [r7, #44]	; 0x2c
 80048bc:	f043 437f 	orr.w	r3, r3, #4278190080	; 0xff000000
 80048c0:	f443 037f 	orr.w	r3, r3, #16711680	; 0xff0000
 80048c4:	f443 4340 	orr.w	r3, r3, #49152	; 0xc000
 80048c8:	f043 0380 	orr.w	r3, r3, #128	; 0x80
 80048cc:	b29b      	uxth	r3, r3
 80048ce:	8013      	strh	r3, [r2, #0]
 80048d0:	687a      	ldr	r2, [r7, #4]
 80048d2:	683b      	ldr	r3, [r7, #0]
 80048d4:	781b      	ldrb	r3, [r3, #0]
 80048d6:	009b      	lsls	r3, r3, #2
 80048d8:	4413      	add	r3, r2
 80048da:	881b      	ldrh	r3, [r3, #0]
 80048dc:	857b      	strh	r3, [r7, #42]	; 0x2a
 80048de:	8d7b      	ldrh	r3, [r7, #42]	; 0x2a
 80048e0:	f003 0340 	and.w	r3, r3, #64	; 0x40
 80048e4:	2b00      	cmp	r3, #0
 80048e6:	d01b      	beq.n	8004920 <USB_DeactivateEndpoint+0x324>
 80048e8:	687a      	ldr	r2, [r7, #4]
 80048ea:	683b      	ldr	r3, [r7, #0]
 80048ec:	781b      	ldrb	r3, [r3, #0]
 80048ee:	009b      	lsls	r3, r3, #2
 80048f0:	4413      	add	r3, r2
 80048f2:	881b      	ldrh	r3, [r3, #0]
 80048f4:	b29b      	uxth	r3, r3
 80048f6:	f423 43e0 	bic.w	r3, r3, #28672	; 0x7000
 80048fa:	f023 0370 	bic.w	r3, r3, #112	; 0x70
 80048fe:	853b      	strh	r3, [r7, #40]	; 0x28
 8004900:	687a      	ldr	r2, [r7, #4]
 8004902:	683b      	ldr	r3, [r7, #0]
 8004904:	781b      	ldrb	r3, [r3, #0]
 8004906:	009b      	lsls	r3, r3, #2
 8004908:	441a      	add	r2, r3
 800490a:	8d3b      	ldrh	r3, [r7, #40]	; 0x28
 800490c:	f043 437f 	orr.w	r3, r3, #4278190080	; 0xff000000
 8004910:	f443 037f 	orr.w	r3, r3, #16711680	; 0xff0000
 8004914:	f443 4300 	orr.w	r3, r3, #32768	; 0x8000
 8004918:	f043 03c0 	orr.w	r3, r3, #192	; 0xc0
 800491c:	b29b      	uxth	r3, r3
 800491e:	8013      	strh	r3, [r2, #0]
 8004920:	687a      	ldr	r2, [r7, #4]
 8004922:	683b      	ldr	r3, [r7, #0]
 8004924:	781b      	ldrb	r3, [r3, #0]
 8004926:	009b      	lsls	r3, r3, #2
 8004928:	4413      	add	r3, r2
 800492a:	881b      	ldrh	r3, [r3, #0]
 800492c:	b29b      	uxth	r3, r3
 800492e:	f423 43e0 	bic.w	r3, r3, #28672	; 0x7000
 8004932:	f023 0370 	bic.w	r3, r3, #112	; 0x70
 8004936:	84fb      	strh	r3, [r7, #38]	; 0x26
 8004938:	687a      	ldr	r2, [r7, #4]
 800493a:	683b      	ldr	r3, [r7, #0]
 800493c:	781b      	ldrb	r3, [r3, #0]
 800493e:	009b      	lsls	r3, r3, #2
 8004940:	441a      	add	r2, r3
 8004942:	8cfb      	ldrh	r3, [r7, #38]	; 0x26
 8004944:	f043 437f 	orr.w	r3, r3, #4278190080	; 0xff000000
 8004948:	f443 037f 	orr.w	r3, r3, #16711680	; 0xff0000
 800494c:	f443 4340 	orr.w	r3, r3, #49152	; 0xc000
 8004950:	f043 0380 	orr.w	r3, r3, #128	; 0x80
 8004954:	b29b      	uxth	r3, r3
 8004956:	8013      	strh	r3, [r2, #0]
 8004958:	687a      	ldr	r2, [r7, #4]
 800495a:	683b      	ldr	r3, [r7, #0]
 800495c:	781b      	ldrb	r3, [r3, #0]
 800495e:	009b      	lsls	r3, r3, #2
 8004960:	4413      	add	r3, r2
 8004962:	881b      	ldrh	r3, [r3, #0]
 8004964:	b29b      	uxth	r3, r3
 8004966:	f423 43e0 	bic.w	r3, r3, #28672	; 0x7000
 800496a:	f023 0340 	bic.w	r3, r3, #64	; 0x40
 800496e:	84bb      	strh	r3, [r7, #36]	; 0x24
 8004970:	687a      	ldr	r2, [r7, #4]
 8004972:	683b      	ldr	r3, [r7, #0]
 8004974:	781b      	ldrb	r3, [r3, #0]
 8004976:	009b      	lsls	r3, r3, #2
 8004978:	441a      	add	r2, r3
 800497a:	8cbb      	ldrh	r3, [r7, #36]	; 0x24
 800497c:	f043 437f 	orr.w	r3, r3, #4278190080	; 0xff000000
 8004980:	f443 037f 	orr.w	r3, r3, #16711680	; 0xff0000
 8004984:	f443 4300 	orr.w	r3, r3, #32768	; 0x8000
 8004988:	f043 0380 	orr.w	r3, r3, #128	; 0x80
 800498c:	b29b      	uxth	r3, r3
 800498e:	8013      	strh	r3, [r2, #0]
 8004990:	687a      	ldr	r2, [r7, #4]
 8004992:	683b      	ldr	r3, [r7, #0]
 8004994:	781b      	ldrb	r3, [r3, #0]
 8004996:	009b      	lsls	r3, r3, #2
 8004998:	4413      	add	r3, r2
 800499a:	881b      	ldrh	r3, [r3, #0]
 800499c:	b29b      	uxth	r3, r3
 800499e:	f423 4380 	bic.w	r3, r3, #16384	; 0x4000
 80049a2:	f023 0370 	bic.w	r3, r3, #112	; 0x70
 80049a6:	847b      	strh	r3, [r7, #34]	; 0x22
 80049a8:	687a      	ldr	r2, [r7, #4]
 80049aa:	683b      	ldr	r3, [r7, #0]
 80049ac:	781b      	ldrb	r3, [r3, #0]
 80049ae:	009b      	lsls	r3, r3, #2
 80049b0:	441a      	add	r2, r3
 80049b2:	8c7b      	ldrh	r3, [r7, #34]	; 0x22
 80049b4:	f043 437f 	orr.w	r3, r3, #4278190080	; 0xff000000
 80049b8:	f443 037f 	orr.w	r3, r3, #16711680	; 0xff0000
 80049bc:	f443 4300 	orr.w	r3, r3, #32768	; 0x8000
 80049c0:	f043 0380 	orr.w	r3, r3, #128	; 0x80
 80049c4:	b29b      	uxth	r3, r3
 80049c6:	8013      	strh	r3, [r2, #0]
 80049c8:	2300      	movs	r3, #0
 80049ca:	4618      	mov	r0, r3
 80049cc:	3734      	adds	r7, #52	; 0x34
 80049ce:	46bd      	mov	sp, r7
 80049d0:	bc80      	pop	{r7}
 80049d2:	4770      	bx	lr

080049d4 <USB_EPStartXfer>:
 80049d4:	b580      	push	{r7, lr}
 80049d6:	b0c4      	sub	sp, #272	; 0x110
 80049d8:	af00      	add	r7, sp, #0
 80049da:	1d3b      	adds	r3, r7, #4
 80049dc:	6018      	str	r0, [r3, #0]
 80049de:	463b      	mov	r3, r7
 80049e0:	6019      	str	r1, [r3, #0]
 80049e2:	463b      	mov	r3, r7
 80049e4:	681b      	ldr	r3, [r3, #0]
 80049e6:	785b      	ldrb	r3, [r3, #1]
 80049e8:	2b01      	cmp	r3, #1
 80049ea:	f040 8557 	bne.w	800549c <USB_EPStartXfer+0xac8>
 80049ee:	463b      	mov	r3, r7
 80049f0:	681b      	ldr	r3, [r3, #0]
 80049f2:	699a      	ldr	r2, [r3, #24]
 80049f4:	463b      	mov	r3, r7
 80049f6:	681b      	ldr	r3, [r3, #0]
 80049f8:	691b      	ldr	r3, [r3, #16]
 80049fa:	429a      	cmp	r2, r3
 80049fc:	d905      	bls.n	8004a0a <USB_EPStartXfer+0x36>
 80049fe:	463b      	mov	r3, r7
 8004a00:	681b      	ldr	r3, [r3, #0]
 8004a02:	691b      	ldr	r3, [r3, #16]
 8004a04:	f8c7 310c 	str.w	r3, [r7, #268]	; 0x10c
 8004a08:	e004      	b.n	8004a14 <USB_EPStartXfer+0x40>
 8004a0a:	463b      	mov	r3, r7
 8004a0c:	681b      	ldr	r3, [r3, #0]
 8004a0e:	699b      	ldr	r3, [r3, #24]
 8004a10:	f8c7 310c 	str.w	r3, [r7, #268]	; 0x10c
 8004a14:	463b      	mov	r3, r7
 8004a16:	681b      	ldr	r3, [r3, #0]
 8004a18:	7b1b      	ldrb	r3, [r3, #12]
 8004a1a:	2b00      	cmp	r3, #0
 8004a1c:	d12c      	bne.n	8004a78 <USB_EPStartXfer+0xa4>
 8004a1e:	463b      	mov	r3, r7
 8004a20:	681b      	ldr	r3, [r3, #0]
 8004a22:	6959      	ldr	r1, [r3, #20]
 8004a24:	463b      	mov	r3, r7
 8004a26:	681b      	ldr	r3, [r3, #0]
 8004a28:	88da      	ldrh	r2, [r3, #6]
 8004a2a:	f8d7 310c 	ldr.w	r3, [r7, #268]	; 0x10c
 8004a2e:	b29b      	uxth	r3, r3
 8004a30:	1d38      	adds	r0, r7, #4
 8004a32:	6800      	ldr	r0, [r0, #0]
 8004a34:	f001 fa2c 	bl	8005e90 <USB_WritePMA>
 8004a38:	1d3b      	adds	r3, r7, #4
 8004a3a:	681b      	ldr	r3, [r3, #0]
 8004a3c:	617b      	str	r3, [r7, #20]
 8004a3e:	1d3b      	adds	r3, r7, #4
 8004a40:	681b      	ldr	r3, [r3, #0]
 8004a42:	f8b3 3050 	ldrh.w	r3, [r3, #80]	; 0x50
 8004a46:	b29b      	uxth	r3, r3
 8004a48:	461a      	mov	r2, r3
 8004a4a:	697b      	ldr	r3, [r7, #20]
 8004a4c:	4413      	add	r3, r2
 8004a4e:	617b      	str	r3, [r7, #20]
 8004a50:	463b      	mov	r3, r7
 8004a52:	681b      	ldr	r3, [r3, #0]
 8004a54:	781b      	ldrb	r3, [r3, #0]
 8004a56:	011a      	lsls	r2, r3, #4
 8004a58:	697b      	ldr	r3, [r7, #20]
 8004a5a:	4413      	add	r3, r2
 8004a5c:	f203 4204 	addw	r2, r3, #1028	; 0x404
 8004a60:	f107 0310 	add.w	r3, r7, #16
 8004a64:	601a      	str	r2, [r3, #0]
 8004a66:	f8d7 310c 	ldr.w	r3, [r7, #268]	; 0x10c
 8004a6a:	b29a      	uxth	r2, r3
 8004a6c:	f107 0310 	add.w	r3, r7, #16
 8004a70:	681b      	ldr	r3, [r3, #0]
 8004a72:	801a      	strh	r2, [r3, #0]
 8004a74:	f000 bcdd 	b.w	8005432 <USB_EPStartXfer+0xa5e>
 8004a78:	463b      	mov	r3, r7
 8004a7a:	681b      	ldr	r3, [r3, #0]
 8004a7c:	78db      	ldrb	r3, [r3, #3]
 8004a7e:	2b02      	cmp	r3, #2
 8004a80:	f040 8347 	bne.w	8005112 <USB_EPStartXfer+0x73e>
 8004a84:	463b      	mov	r3, r7
 8004a86:	681b      	ldr	r3, [r3, #0]
 8004a88:	6a1a      	ldr	r2, [r3, #32]
 8004a8a:	463b      	mov	r3, r7
 8004a8c:	681b      	ldr	r3, [r3, #0]
 8004a8e:	691b      	ldr	r3, [r3, #16]
 8004a90:	429a      	cmp	r2, r3
 8004a92:	f240 82eb 	bls.w	800506c <USB_EPStartXfer+0x698>
 8004a96:	1d3b      	adds	r3, r7, #4
 8004a98:	681a      	ldr	r2, [r3, #0]
 8004a9a:	463b      	mov	r3, r7
 8004a9c:	681b      	ldr	r3, [r3, #0]
 8004a9e:	781b      	ldrb	r3, [r3, #0]
 8004aa0:	009b      	lsls	r3, r3, #2
 8004aa2:	4413      	add	r3, r2
 8004aa4:	881b      	ldrh	r3, [r3, #0]
 8004aa6:	b29b      	uxth	r3, r3
 8004aa8:	f423 43e0 	bic.w	r3, r3, #28672	; 0x7000
 8004aac:	f023 0370 	bic.w	r3, r3, #112	; 0x70
 8004ab0:	f8a7 305a 	strh.w	r3, [r7, #90]	; 0x5a
 8004ab4:	1d3b      	adds	r3, r7, #4
 8004ab6:	681a      	ldr	r2, [r3, #0]
 8004ab8:	463b      	mov	r3, r7
 8004aba:	681b      	ldr	r3, [r3, #0]
 8004abc:	781b      	ldrb	r3, [r3, #0]
 8004abe:	009b      	lsls	r3, r3, #2
 8004ac0:	441a      	add	r2, r3
 8004ac2:	f8b7 305a 	ldrh.w	r3, [r7, #90]	; 0x5a
 8004ac6:	f043 437f 	orr.w	r3, r3, #4278190080	; 0xff000000
 8004aca:	f443 037f 	orr.w	r3, r3, #16711680	; 0xff0000
 8004ace:	f443 4301 	orr.w	r3, r3, #33024	; 0x8100
 8004ad2:	f043 0380 	orr.w	r3, r3, #128	; 0x80
 8004ad6:	b29b      	uxth	r3, r3
 8004ad8:	8013      	strh	r3, [r2, #0]
 8004ada:	463b      	mov	r3, r7
 8004adc:	681b      	ldr	r3, [r3, #0]
 8004ade:	6a1a      	ldr	r2, [r3, #32]
 8004ae0:	f8d7 310c 	ldr.w	r3, [r7, #268]	; 0x10c
 8004ae4:	1ad2      	subs	r2, r2, r3
 8004ae6:	463b      	mov	r3, r7
 8004ae8:	681b      	ldr	r3, [r3, #0]
 8004aea:	621a      	str	r2, [r3, #32]
 8004aec:	1d3b      	adds	r3, r7, #4
 8004aee:	681a      	ldr	r2, [r3, #0]
 8004af0:	463b      	mov	r3, r7
 8004af2:	681b      	ldr	r3, [r3, #0]
 8004af4:	781b      	ldrb	r3, [r3, #0]
 8004af6:	009b      	lsls	r3, r3, #2
 8004af8:	4413      	add	r3, r2
 8004afa:	881b      	ldrh	r3, [r3, #0]
 8004afc:	b29b      	uxth	r3, r3
 8004afe:	f003 0340 	and.w	r3, r3, #64	; 0x40
 8004b02:	2b00      	cmp	r3, #0
 8004b04:	f000 8159 	beq.w	8004dba <USB_EPStartXfer+0x3e6>
 8004b08:	1d3b      	adds	r3, r7, #4
 8004b0a:	681b      	ldr	r3, [r3, #0]
 8004b0c:	637b      	str	r3, [r7, #52]	; 0x34
 8004b0e:	463b      	mov	r3, r7
 8004b10:	681b      	ldr	r3, [r3, #0]
 8004b12:	785b      	ldrb	r3, [r3, #1]
 8004b14:	2b00      	cmp	r3, #0
 8004b16:	d164      	bne.n	8004be2 <USB_EPStartXfer+0x20e>
 8004b18:	1d3b      	adds	r3, r7, #4
 8004b1a:	681b      	ldr	r3, [r3, #0]
 8004b1c:	62fb      	str	r3, [r7, #44]	; 0x2c
 8004b1e:	1d3b      	adds	r3, r7, #4
 8004b20:	681b      	ldr	r3, [r3, #0]
 8004b22:	f8b3 3050 	ldrh.w	r3, [r3, #80]	; 0x50
 8004b26:	b29b      	uxth	r3, r3
 8004b28:	461a      	mov	r2, r3
 8004b2a:	6afb      	ldr	r3, [r7, #44]	; 0x2c
 8004b2c:	4413      	add	r3, r2
 8004b2e:	62fb      	str	r3, [r7, #44]	; 0x2c
 8004b30:	463b      	mov	r3, r7
 8004b32:	681b      	ldr	r3, [r3, #0]
 8004b34:	781b      	ldrb	r3, [r3, #0]
 8004b36:	011a      	lsls	r2, r3, #4
 8004b38:	6afb      	ldr	r3, [r7, #44]	; 0x2c
 8004b3a:	4413      	add	r3, r2
 8004b3c:	f203 430c 	addw	r3, r3, #1036	; 0x40c
 8004b40:	62bb      	str	r3, [r7, #40]	; 0x28
 8004b42:	f8d7 310c 	ldr.w	r3, [r7, #268]	; 0x10c
 8004b46:	2b00      	cmp	r3, #0
 8004b48:	d112      	bne.n	8004b70 <USB_EPStartXfer+0x19c>
 8004b4a:	6abb      	ldr	r3, [r7, #40]	; 0x28
 8004b4c:	881b      	ldrh	r3, [r3, #0]
 8004b4e:	b29b      	uxth	r3, r3
 8004b50:	f423 43f8 	bic.w	r3, r3, #31744	; 0x7c00
 8004b54:	b29a      	uxth	r2, r3
 8004b56:	6abb      	ldr	r3, [r7, #40]	; 0x28
 8004b58:	801a      	strh	r2, [r3, #0]
 8004b5a:	6abb      	ldr	r3, [r7, #40]	; 0x28
 8004b5c:	881b      	ldrh	r3, [r3, #0]
 8004b5e:	b29b      	uxth	r3, r3
 8004b60:	ea6f 4343 	mvn.w	r3, r3, lsl #17
 8004b64:	ea6f 4353 	mvn.w	r3, r3, lsr #17
 8004b68:	b29a      	uxth	r2, r3
 8004b6a:	6abb      	ldr	r3, [r7, #40]	; 0x28
 8004b6c:	801a      	strh	r2, [r3, #0]
 8004b6e:	e054      	b.n	8004c1a <USB_EPStartXfer+0x246>
 8004b70:	f8d7 310c 	ldr.w	r3, [r7, #268]	; 0x10c
 8004b74:	2b3e      	cmp	r3, #62	; 0x3e
 8004b76:	d817      	bhi.n	8004ba8 <USB_EPStartXfer+0x1d4>
 8004b78:	f8d7 310c 	ldr.w	r3, [r7, #268]	; 0x10c
 8004b7c:	085b      	lsrs	r3, r3, #1
 8004b7e:	f8c7 3104 	str.w	r3, [r7, #260]	; 0x104
 8004b82:	f8d7 310c 	ldr.w	r3, [r7, #268]	; 0x10c
 8004b86:	f003 0301 	and.w	r3, r3, #1
 8004b8a:	2b00      	cmp	r3, #0
 8004b8c:	d004      	beq.n	8004b98 <USB_EPStartXfer+0x1c4>
 8004b8e:	f8d7 3104 	ldr.w	r3, [r7, #260]	; 0x104
 8004b92:	3301      	adds	r3, #1
 8004b94:	f8c7 3104 	str.w	r3, [r7, #260]	; 0x104
 8004b98:	f8d7 3104 	ldr.w	r3, [r7, #260]	; 0x104
 8004b9c:	b29b      	uxth	r3, r3
 8004b9e:	029b      	lsls	r3, r3, #10
 8004ba0:	b29a      	uxth	r2, r3
 8004ba2:	6abb      	ldr	r3, [r7, #40]	; 0x28
 8004ba4:	801a      	strh	r2, [r3, #0]
 8004ba6:	e038      	b.n	8004c1a <USB_EPStartXfer+0x246>
 8004ba8:	f8d7 310c 	ldr.w	r3, [r7, #268]	; 0x10c
 8004bac:	095b      	lsrs	r3, r3, #5
 8004bae:	f8c7 3104 	str.w	r3, [r7, #260]	; 0x104
 8004bb2:	f8d7 310c 	ldr.w	r3, [r7, #268]	; 0x10c
 8004bb6:	f003 031f 	and.w	r3, r3, #31
 8004bba:	2b00      	cmp	r3, #0
 8004bbc:	d104      	bne.n	8004bc8 <USB_EPStartXfer+0x1f4>
 8004bbe:	f8d7 3104 	ldr.w	r3, [r7, #260]	; 0x104
 8004bc2:	3b01      	subs	r3, #1
 8004bc4:	f8c7 3104 	str.w	r3, [r7, #260]	; 0x104
 8004bc8:	f8d7 3104 	ldr.w	r3, [r7, #260]	; 0x104
 8004bcc:	b29b      	uxth	r3, r3
 8004bce:	029b      	lsls	r3, r3, #10
 8004bd0:	b29b      	uxth	r3, r3
 8004bd2:	ea6f 4343 	mvn.w	r3, r3, lsl #17
 8004bd6:	ea6f 4353 	mvn.w	r3, r3, lsr #17
 8004bda:	b29a      	uxth	r2, r3
 8004bdc:	6abb      	ldr	r3, [r7, #40]	; 0x28
 8004bde:	801a      	strh	r2, [r3, #0]
 8004be0:	e01b      	b.n	8004c1a <USB_EPStartXfer+0x246>
 8004be2:	463b      	mov	r3, r7
 8004be4:	681b      	ldr	r3, [r3, #0]
 8004be6:	785b      	ldrb	r3, [r3, #1]
 8004be8:	2b01      	cmp	r3, #1
 8004bea:	d116      	bne.n	8004c1a <USB_EPStartXfer+0x246>
 8004bec:	1d3b      	adds	r3, r7, #4
 8004bee:	681b      	ldr	r3, [r3, #0]
 8004bf0:	f8b3 3050 	ldrh.w	r3, [r3, #80]	; 0x50
 8004bf4:	b29b      	uxth	r3, r3
 8004bf6:	461a      	mov	r2, r3
 8004bf8:	6b7b      	ldr	r3, [r7, #52]	; 0x34
 8004bfa:	4413      	add	r3, r2
 8004bfc:	637b      	str	r3, [r7, #52]	; 0x34
 8004bfe:	463b      	mov	r3, r7
 8004c00:	681b      	ldr	r3, [r3, #0]
 8004c02:	781b      	ldrb	r3, [r3, #0]
 8004c04:	011a      	lsls	r2, r3, #4
 8004c06:	6b7b      	ldr	r3, [r7, #52]	; 0x34
 8004c08:	4413      	add	r3, r2
 8004c0a:	f203 430c 	addw	r3, r3, #1036	; 0x40c
 8004c0e:	633b      	str	r3, [r7, #48]	; 0x30
 8004c10:	f8d7 310c 	ldr.w	r3, [r7, #268]	; 0x10c
 8004c14:	b29a      	uxth	r2, r3
 8004c16:	6b3b      	ldr	r3, [r7, #48]	; 0x30
 8004c18:	801a      	strh	r2, [r3, #0]
 8004c1a:	463b      	mov	r3, r7
 8004c1c:	681b      	ldr	r3, [r3, #0]
 8004c1e:	895b      	ldrh	r3, [r3, #10]
 8004c20:	f8a7 310a 	strh.w	r3, [r7, #266]	; 0x10a
 8004c24:	463b      	mov	r3, r7
 8004c26:	681b      	ldr	r3, [r3, #0]
 8004c28:	6959      	ldr	r1, [r3, #20]
 8004c2a:	f8d7 310c 	ldr.w	r3, [r7, #268]	; 0x10c
 8004c2e:	b29b      	uxth	r3, r3
 8004c30:	f8b7 210a 	ldrh.w	r2, [r7, #266]	; 0x10a
 8004c34:	1d38      	adds	r0, r7, #4
 8004c36:	6800      	ldr	r0, [r0, #0]
 8004c38:	f001 f92a 	bl	8005e90 <USB_WritePMA>
 8004c3c:	463b      	mov	r3, r7
 8004c3e:	681b      	ldr	r3, [r3, #0]
 8004c40:	695a      	ldr	r2, [r3, #20]
 8004c42:	f8d7 310c 	ldr.w	r3, [r7, #268]	; 0x10c
 8004c46:	441a      	add	r2, r3
 8004c48:	463b      	mov	r3, r7
 8004c4a:	681b      	ldr	r3, [r3, #0]
 8004c4c:	615a      	str	r2, [r3, #20]
 8004c4e:	463b      	mov	r3, r7
 8004c50:	681b      	ldr	r3, [r3, #0]
 8004c52:	6a1a      	ldr	r2, [r3, #32]
 8004c54:	463b      	mov	r3, r7
 8004c56:	681b      	ldr	r3, [r3, #0]
 8004c58:	691b      	ldr	r3, [r3, #16]
 8004c5a:	429a      	cmp	r2, r3
 8004c5c:	d909      	bls.n	8004c72 <USB_EPStartXfer+0x29e>
 8004c5e:	463b      	mov	r3, r7
 8004c60:	681b      	ldr	r3, [r3, #0]
 8004c62:	6a1a      	ldr	r2, [r3, #32]
 8004c64:	f8d7 310c 	ldr.w	r3, [r7, #268]	; 0x10c
 8004c68:	1ad2      	subs	r2, r2, r3
 8004c6a:	463b      	mov	r3, r7
 8004c6c:	681b      	ldr	r3, [r3, #0]
 8004c6e:	621a      	str	r2, [r3, #32]
 8004c70:	e008      	b.n	8004c84 <USB_EPStartXfer+0x2b0>
 8004c72:	463b      	mov	r3, r7
 8004c74:	681b      	ldr	r3, [r3, #0]
 8004c76:	6a1b      	ldr	r3, [r3, #32]
 8004c78:	f8c7 310c 	str.w	r3, [r7, #268]	; 0x10c
 8004c7c:	463b      	mov	r3, r7
 8004c7e:	681b      	ldr	r3, [r3, #0]
 8004c80:	2200      	movs	r2, #0
 8004c82:	621a      	str	r2, [r3, #32]
 8004c84:	463b      	mov	r3, r7
 8004c86:	681b      	ldr	r3, [r3, #0]
 8004c88:	785b      	ldrb	r3, [r3, #1]
 8004c8a:	2b00      	cmp	r3, #0
 8004c8c:	d164      	bne.n	8004d58 <USB_EPStartXfer+0x384>
 8004c8e:	1d3b      	adds	r3, r7, #4
 8004c90:	681b      	ldr	r3, [r3, #0]
 8004c92:	61fb      	str	r3, [r7, #28]
 8004c94:	1d3b      	adds	r3, r7, #4
 8004c96:	681b      	ldr	r3, [r3, #0]
 8004c98:	f8b3 3050 	ldrh.w	r3, [r3, #80]	; 0x50
 8004c9c:	b29b      	uxth	r3, r3
 8004c9e:	461a      	mov	r2, r3
 8004ca0:	69fb      	ldr	r3, [r7, #28]
 8004ca2:	4413      	add	r3, r2
 8004ca4:	61fb      	str	r3, [r7, #28]
 8004ca6:	463b      	mov	r3, r7
 8004ca8:	681b      	ldr	r3, [r3, #0]
 8004caa:	781b      	ldrb	r3, [r3, #0]
 8004cac:	011a      	lsls	r2, r3, #4
 8004cae:	69fb      	ldr	r3, [r7, #28]
 8004cb0:	4413      	add	r3, r2
 8004cb2:	f203 4304 	addw	r3, r3, #1028	; 0x404
 8004cb6:	61bb      	str	r3, [r7, #24]
 8004cb8:	f8d7 310c 	ldr.w	r3, [r7, #268]	; 0x10c
 8004cbc:	2b00      	cmp	r3, #0
 8004cbe:	d112      	bne.n	8004ce6 <USB_EPStartXfer+0x312>
 8004cc0:	69bb      	ldr	r3, [r7, #24]
 8004cc2:	881b      	ldrh	r3, [r3, #0]
 8004cc4:	b29b      	uxth	r3, r3
 8004cc6:	f423 43f8 	bic.w	r3, r3, #31744	; 0x7c00
 8004cca:	b29a      	uxth	r2, r3
 8004ccc:	69bb      	ldr	r3, [r7, #24]
 8004cce:	801a      	strh	r2, [r3, #0]
 8004cd0:	69bb      	ldr	r3, [r7, #24]
 8004cd2:	881b      	ldrh	r3, [r3, #0]
 8004cd4:	b29b      	uxth	r3, r3
 8004cd6:	ea6f 4343 	mvn.w	r3, r3, lsl #17
 8004cda:	ea6f 4353 	mvn.w	r3, r3, lsr #17
 8004cde:	b29a      	uxth	r2, r3
 8004ce0:	69bb      	ldr	r3, [r7, #24]
 8004ce2:	801a      	strh	r2, [r3, #0]
 8004ce4:	e057      	b.n	8004d96 <USB_EPStartXfer+0x3c2>
 8004ce6:	f8d7 310c 	ldr.w	r3, [r7, #268]	; 0x10c
 8004cea:	2b3e      	cmp	r3, #62	; 0x3e
 8004cec:	d817      	bhi.n	8004d1e <USB_EPStartXfer+0x34a>
 8004cee:	f8d7 310c 	ldr.w	r3, [r7, #268]	; 0x10c
 8004cf2:	085b      	lsrs	r3, r3, #1
 8004cf4:	f8c7 3100 	str.w	r3, [r7, #256]	; 0x100
 8004cf8:	f8d7 310c 	ldr.w	r3, [r7, #268]	; 0x10c
 8004cfc:	f003 0301 	and.w	r3, r3, #1
 8004d00:	2b00      	cmp	r3, #0
 8004d02:	d004      	beq.n	8004d0e <USB_EPStartXfer+0x33a>
 8004d04:	f8d7 3100 	ldr.w	r3, [r7, #256]	; 0x100
 8004d08:	3301      	adds	r3, #1
 8004d0a:	f8c7 3100 	str.w	r3, [r7, #256]	; 0x100
 8004d0e:	f8d7 3100 	ldr.w	r3, [r7, #256]	; 0x100
 8004d12:	b29b      	uxth	r3, r3
 8004d14:	029b      	lsls	r3, r3, #10
 8004d16:	b29a      	uxth	r2, r3
 8004d18:	69bb      	ldr	r3, [r7, #24]
 8004d1a:	801a      	strh	r2, [r3, #0]
 8004d1c:	e03b      	b.n	8004d96 <USB_EPStartXfer+0x3c2>
 8004d1e:	f8d7 310c 	ldr.w	r3, [r7, #268]	; 0x10c
 8004d22:	095b      	lsrs	r3, r3, #5
 8004d24:	f8c7 3100 	str.w	r3, [r7, #256]	; 0x100
 8004d28:	f8d7 310c 	ldr.w	r3, [r7, #268]	; 0x10c
 8004d2c:	f003 031f 	and.w	r3, r3, #31
 8004d30:	2b00      	cmp	r3, #0
 8004d32:	d104      	bne.n	8004d3e <USB_EPStartXfer+0x36a>
 8004d34:	f8d7 3100 	ldr.w	r3, [r7, #256]	; 0x100
 8004d38:	3b01      	subs	r3, #1
 8004d3a:	f8c7 3100 	str.w	r3, [r7, #256]	; 0x100
 8004d3e:	f8d7 3100 	ldr.w	r3, [r7, #256]	; 0x100
 8004d42:	b29b      	uxth	r3, r3
 8004d44:	029b      	lsls	r3, r3, #10
 8004d46:	b29b      	uxth	r3, r3
 8004d48:	ea6f 4343 	mvn.w	r3, r3, lsl #17
 8004d4c:	ea6f 4353 	mvn.w	r3, r3, lsr #17
 8004d50:	b29a      	uxth	r2, r3
 8004d52:	69bb      	ldr	r3, [r7, #24]
 8004d54:	801a      	strh	r2, [r3, #0]
 8004d56:	e01e      	b.n	8004d96 <USB_EPStartXfer+0x3c2>
 8004d58:	463b      	mov	r3, r7
 8004d5a:	681b      	ldr	r3, [r3, #0]
 8004d5c:	785b      	ldrb	r3, [r3, #1]
 8004d5e:	2b01      	cmp	r3, #1
 8004d60:	d119      	bne.n	8004d96 <USB_EPStartXfer+0x3c2>
 8004d62:	1d3b      	adds	r3, r7, #4
 8004d64:	681b      	ldr	r3, [r3, #0]
 8004d66:	627b      	str	r3, [r7, #36]	; 0x24
 8004d68:	1d3b      	adds	r3, r7, #4
 8004d6a:	681b      	ldr	r3, [r3, #0]
 8004d6c:	f8b3 3050 	ldrh.w	r3, [r3, #80]	; 0x50
 8004d70:	b29b      	uxth	r3, r3
 8004d72:	461a      	mov	r2, r3
 8004d74:	6a7b      	ldr	r3, [r7, #36]	; 0x24
 8004d76:	4413      	add	r3, r2
 8004d78:	627b      	str	r3, [r7, #36]	; 0x24
 8004d7a:	463b      	mov	r3, r7
 8004d7c:	681b      	ldr	r3, [r3, #0]
 8004d7e:	781b      	ldrb	r3, [r3, #0]
 8004d80:	011a      	lsls	r2, r3, #4
 8004d82:	6a7b      	ldr	r3, [r7, #36]	; 0x24
 8004d84:	4413      	add	r3, r2
 8004d86:	f203 4304 	addw	r3, r3, #1028	; 0x404
 8004d8a:	623b      	str	r3, [r7, #32]
 8004d8c:	f8d7 310c 	ldr.w	r3, [r7, #268]	; 0x10c
 8004d90:	b29a      	uxth	r2, r3
 8004d92:	6a3b      	ldr	r3, [r7, #32]
 8004d94:	801a      	strh	r2, [r3, #0]
 8004d96:	463b      	mov	r3, r7
 8004d98:	681b      	ldr	r3, [r3, #0]
 8004d9a:	891b      	ldrh	r3, [r3, #8]
 8004d9c:	f8a7 310a 	strh.w	r3, [r7, #266]	; 0x10a
 8004da0:	463b      	mov	r3, r7
 8004da2:	681b      	ldr	r3, [r3, #0]
 8004da4:	6959      	ldr	r1, [r3, #20]
 8004da6:	f8d7 310c 	ldr.w	r3, [r7, #268]	; 0x10c
 8004daa:	b29b      	uxth	r3, r3
 8004dac:	f8b7 210a 	ldrh.w	r2, [r7, #266]	; 0x10a
 8004db0:	1d38      	adds	r0, r7, #4
 8004db2:	6800      	ldr	r0, [r0, #0]
 8004db4:	f001 f86c 	bl	8005e90 <USB_WritePMA>
 8004db8:	e33b      	b.n	8005432 <USB_EPStartXfer+0xa5e>
 8004dba:	463b      	mov	r3, r7
 8004dbc:	681b      	ldr	r3, [r3, #0]
 8004dbe:	785b      	ldrb	r3, [r3, #1]
 8004dc0:	2b00      	cmp	r3, #0
 8004dc2:	d164      	bne.n	8004e8e <USB_EPStartXfer+0x4ba>
 8004dc4:	1d3b      	adds	r3, r7, #4
 8004dc6:	681b      	ldr	r3, [r3, #0]
 8004dc8:	64fb      	str	r3, [r7, #76]	; 0x4c
 8004dca:	1d3b      	adds	r3, r7, #4
 8004dcc:	681b      	ldr	r3, [r3, #0]
 8004dce:	f8b3 3050 	ldrh.w	r3, [r3, #80]	; 0x50
 8004dd2:	b29b      	uxth	r3, r3
 8004dd4:	461a      	mov	r2, r3
 8004dd6:	6cfb      	ldr	r3, [r7, #76]	; 0x4c
 8004dd8:	4413      	add	r3, r2
 8004dda:	64fb      	str	r3, [r7, #76]	; 0x4c
 8004ddc:	463b      	mov	r3, r7
 8004dde:	681b      	ldr	r3, [r3, #0]
 8004de0:	781b      	ldrb	r3, [r3, #0]
 8004de2:	011a      	lsls	r2, r3, #4
 8004de4:	6cfb      	ldr	r3, [r7, #76]	; 0x4c
 8004de6:	4413      	add	r3, r2
 8004de8:	f203 4304 	addw	r3, r3, #1028	; 0x404
 8004dec:	64bb      	str	r3, [r7, #72]	; 0x48
 8004dee:	f8d7 310c 	ldr.w	r3, [r7, #268]	; 0x10c
 8004df2:	2b00      	cmp	r3, #0
 8004df4:	d112      	bne.n	8004e1c <USB_EPStartXfer+0x448>
 8004df6:	6cbb      	ldr	r3, [r7, #72]	; 0x48
 8004df8:	881b      	ldrh	r3, [r3, #0]
 8004dfa:	b29b      	uxth	r3, r3
 8004dfc:	f423 43f8 	bic.w	r3, r3, #31744	; 0x7c00
 8004e00:	b29a      	uxth	r2, r3
 8004e02:	6cbb      	ldr	r3, [r7, #72]	; 0x48
 8004e04:	801a      	strh	r2, [r3, #0]
 8004e06:	6cbb      	ldr	r3, [r7, #72]	; 0x48
 8004e08:	881b      	ldrh	r3, [r3, #0]
 8004e0a:	b29b      	uxth	r3, r3
 8004e0c:	ea6f 4343 	mvn.w	r3, r3, lsl #17
 8004e10:	ea6f 4353 	mvn.w	r3, r3, lsr #17
 8004e14:	b29a      	uxth	r2, r3
 8004e16:	6cbb      	ldr	r3, [r7, #72]	; 0x48
 8004e18:	801a      	strh	r2, [r3, #0]
 8004e1a:	e057      	b.n	8004ecc <USB_EPStartXfer+0x4f8>
 8004e1c:	f8d7 310c 	ldr.w	r3, [r7, #268]	; 0x10c
 8004e20:	2b3e      	cmp	r3, #62	; 0x3e
 8004e22:	d817      	bhi.n	8004e54 <USB_EPStartXfer+0x480>
 8004e24:	f8d7 310c 	ldr.w	r3, [r7, #268]	; 0x10c
 8004e28:	085b      	lsrs	r3, r3, #1
 8004e2a:	f8c7 30fc 	str.w	r3, [r7, #252]	; 0xfc
 8004e2e:	f8d7 310c 	ldr.w	r3, [r7, #268]	; 0x10c
 8004e32:	f003 0301 	and.w	r3, r3, #1
 8004e36:	2b00      	cmp	r3, #0
 8004e38:	d004      	beq.n	8004e44 <USB_EPStartXfer+0x470>
 8004e3a:	f8d7 30fc 	ldr.w	r3, [r7, #252]	; 0xfc
 8004e3e:	3301      	adds	r3, #1
 8004e40:	f8c7 30fc 	str.w	r3, [r7, #252]	; 0xfc
 8004e44:	f8d7 30fc 	ldr.w	r3, [r7, #252]	; 0xfc
 8004e48:	b29b      	uxth	r3, r3
 8004e4a:	029b      	lsls	r3, r3, #10
 8004e4c:	b29a      	uxth	r2, r3
 8004e4e:	6cbb      	ldr	r3, [r7, #72]	; 0x48
 8004e50:	801a      	strh	r2, [r3, #0]
 8004e52:	e03b      	b.n	8004ecc <USB_EPStartXfer+0x4f8>
 8004e54:	f8d7 310c 	ldr.w	r3, [r7, #268]	; 0x10c
 8004e58:	095b      	lsrs	r3, r3, #5
 8004e5a:	f8c7 30fc 	str.w	r3, [r7, #252]	; 0xfc
 8004e5e:	f8d7 310c 	ldr.w	r3, [r7, #268]	; 0x10c
 8004e62:	f003 031f 	and.w	r3, r3, #31
 8004e66:	2b00      	cmp	r3, #0
 8004e68:	d104      	bne.n	8004e74 <USB_EPStartXfer+0x4a0>
 8004e6a:	f8d7 30fc 	ldr.w	r3, [r7, #252]	; 0xfc
 8004e6e:	3b01      	subs	r3, #1
 8004e70:	f8c7 30fc 	str.w	r3, [r7, #252]	; 0xfc
 8004e74:	f8d7 30fc 	ldr.w	r3, [r7, #252]	; 0xfc
 8004e78:	b29b      	uxth	r3, r3
 8004e7a:	029b      	lsls	r3, r3, #10
 8004e7c:	b29b      	uxth	r3, r3
 8004e7e:	ea6f 4343 	mvn.w	r3, r3, lsl #17
 8004e82:	ea6f 4353 	mvn.w	r3, r3, lsr #17
 8004e86:	b29a      	uxth	r2, r3
 8004e88:	6cbb      	ldr	r3, [r7, #72]	; 0x48
 8004e8a:	801a      	strh	r2, [r3, #0]
 8004e8c:	e01e      	b.n	8004ecc <USB_EPStartXfer+0x4f8>
 8004e8e:	463b      	mov	r3, r7
 8004e90:	681b      	ldr	r3, [r3, #0]
 8004e92:	785b      	ldrb	r3, [r3, #1]
 8004e94:	2b01      	cmp	r3, #1
 8004e96:	d119      	bne.n	8004ecc <USB_EPStartXfer+0x4f8>
 8004e98:	1d3b      	adds	r3, r7, #4
 8004e9a:	681b      	ldr	r3, [r3, #0]
 8004e9c:	657b      	str	r3, [r7, #84]	; 0x54
 8004e9e:	1d3b      	adds	r3, r7, #4
 8004ea0:	681b      	ldr	r3, [r3, #0]
 8004ea2:	f8b3 3050 	ldrh.w	r3, [r3, #80]	; 0x50
 8004ea6:	b29b      	uxth	r3, r3
 8004ea8:	461a      	mov	r2, r3
 8004eaa:	6d7b      	ldr	r3, [r7, #84]	; 0x54
 8004eac:	4413      	add	r3, r2
 8004eae:	657b      	str	r3, [r7, #84]	; 0x54
 8004eb0:	463b      	mov	r3, r7
 8004eb2:	681b      	ldr	r3, [r3, #0]
 8004eb4:	781b      	ldrb	r3, [r3, #0]
 8004eb6:	011a      	lsls	r2, r3, #4
 8004eb8:	6d7b      	ldr	r3, [r7, #84]	; 0x54
 8004eba:	4413      	add	r3, r2
 8004ebc:	f203 4304 	addw	r3, r3, #1028	; 0x404
 8004ec0:	653b      	str	r3, [r7, #80]	; 0x50
 8004ec2:	f8d7 310c 	ldr.w	r3, [r7, #268]	; 0x10c
 8004ec6:	b29a      	uxth	r2, r3
 8004ec8:	6d3b      	ldr	r3, [r7, #80]	; 0x50
 8004eca:	801a      	strh	r2, [r3, #0]
 8004ecc:	463b      	mov	r3, r7
 8004ece:	681b      	ldr	r3, [r3, #0]
 8004ed0:	891b      	ldrh	r3, [r3, #8]
 8004ed2:	f8a7 310a 	strh.w	r3, [r7, #266]	; 0x10a
 8004ed6:	463b      	mov	r3, r7
 8004ed8:	681b      	ldr	r3, [r3, #0]
 8004eda:	6959      	ldr	r1, [r3, #20]
 8004edc:	f8d7 310c 	ldr.w	r3, [r7, #268]	; 0x10c
 8004ee0:	b29b      	uxth	r3, r3
 8004ee2:	f8b7 210a 	ldrh.w	r2, [r7, #266]	; 0x10a
 8004ee6:	1d38      	adds	r0, r7, #4
 8004ee8:	6800      	ldr	r0, [r0, #0]
 8004eea:	f000 ffd1 	bl	8005e90 <USB_WritePMA>
 8004eee:	463b      	mov	r3, r7
 8004ef0:	681b      	ldr	r3, [r3, #0]
 8004ef2:	695a      	ldr	r2, [r3, #20]
 8004ef4:	f8d7 310c 	ldr.w	r3, [r7, #268]	; 0x10c
 8004ef8:	441a      	add	r2, r3
 8004efa:	463b      	mov	r3, r7
 8004efc:	681b      	ldr	r3, [r3, #0]
 8004efe:	615a      	str	r2, [r3, #20]
 8004f00:	463b      	mov	r3, r7
 8004f02:	681b      	ldr	r3, [r3, #0]
 8004f04:	6a1a      	ldr	r2, [r3, #32]
 8004f06:	463b      	mov	r3, r7
 8004f08:	681b      	ldr	r3, [r3, #0]
 8004f0a:	691b      	ldr	r3, [r3, #16]
 8004f0c:	429a      	cmp	r2, r3
 8004f0e:	d909      	bls.n	8004f24 <USB_EPStartXfer+0x550>
 8004f10:	463b      	mov	r3, r7
 8004f12:	681b      	ldr	r3, [r3, #0]
 8004f14:	6a1a      	ldr	r2, [r3, #32]
 8004f16:	f8d7 310c 	ldr.w	r3, [r7, #268]	; 0x10c
 8004f1a:	1ad2      	subs	r2, r2, r3
 8004f1c:	463b      	mov	r3, r7
 8004f1e:	681b      	ldr	r3, [r3, #0]
 8004f20:	621a      	str	r2, [r3, #32]
 8004f22:	e008      	b.n	8004f36 <USB_EPStartXfer+0x562>
 8004f24:	463b      	mov	r3, r7
 8004f26:	681b      	ldr	r3, [r3, #0]
 8004f28:	6a1b      	ldr	r3, [r3, #32]
 8004f2a:	f8c7 310c 	str.w	r3, [r7, #268]	; 0x10c
 8004f2e:	463b      	mov	r3, r7
 8004f30:	681b      	ldr	r3, [r3, #0]
 8004f32:	2200      	movs	r2, #0
 8004f34:	621a      	str	r2, [r3, #32]
 8004f36:	1d3b      	adds	r3, r7, #4
 8004f38:	681b      	ldr	r3, [r3, #0]
 8004f3a:	647b      	str	r3, [r7, #68]	; 0x44
 8004f3c:	463b      	mov	r3, r7
 8004f3e:	681b      	ldr	r3, [r3, #0]
 8004f40:	785b      	ldrb	r3, [r3, #1]
 8004f42:	2b00      	cmp	r3, #0
 8004f44:	d164      	bne.n	8005010 <USB_EPStartXfer+0x63c>
 8004f46:	1d3b      	adds	r3, r7, #4
 8004f48:	681b      	ldr	r3, [r3, #0]
 8004f4a:	63fb      	str	r3, [r7, #60]	; 0x3c
 8004f4c:	1d3b      	adds	r3, r7, #4
 8004f4e:	681b      	ldr	r3, [r3, #0]
 8004f50:	f8b3 3050 	ldrh.w	r3, [r3, #80]	; 0x50
 8004f54:	b29b      	uxth	r3, r3
 8004f56:	461a      	mov	r2, r3
 8004f58:	6bfb      	ldr	r3, [r7, #60]	; 0x3c
 8004f5a:	4413      	add	r3, r2
 8004f5c:	63fb      	str	r3, [r7, #60]	; 0x3c
 8004f5e:	463b      	mov	r3, r7
 8004f60:	681b      	ldr	r3, [r3, #0]
 8004f62:	781b      	ldrb	r3, [r3, #0]
 8004f64:	011a      	lsls	r2, r3, #4
 8004f66:	6bfb      	ldr	r3, [r7, #60]	; 0x3c
 8004f68:	4413      	add	r3, r2
 8004f6a:	f203 430c 	addw	r3, r3, #1036	; 0x40c
 8004f6e:	63bb      	str	r3, [r7, #56]	; 0x38
 8004f70:	f8d7 310c 	ldr.w	r3, [r7, #268]	; 0x10c
 8004f74:	2b00      	cmp	r3, #0
 8004f76:	d112      	bne.n	8004f9e <USB_EPStartXfer+0x5ca>
 8004f78:	6bbb      	ldr	r3, [r7, #56]	; 0x38
 8004f7a:	881b      	ldrh	r3, [r3, #0]
 8004f7c:	b29b      	uxth	r3, r3
 8004f7e:	f423 43f8 	bic.w	r3, r3, #31744	; 0x7c00
 8004f82:	b29a      	uxth	r2, r3
 8004f84:	6bbb      	ldr	r3, [r7, #56]	; 0x38
 8004f86:	801a      	strh	r2, [r3, #0]
 8004f88:	6bbb      	ldr	r3, [r7, #56]	; 0x38
 8004f8a:	881b      	ldrh	r3, [r3, #0]
 8004f8c:	b29b      	uxth	r3, r3
 8004f8e:	ea6f 4343 	mvn.w	r3, r3, lsl #17
 8004f92:	ea6f 4353 	mvn.w	r3, r3, lsr #17
 8004f96:	b29a      	uxth	r2, r3
 8004f98:	6bbb      	ldr	r3, [r7, #56]	; 0x38
 8004f9a:	801a      	strh	r2, [r3, #0]
 8004f9c:	e054      	b.n	8005048 <USB_EPStartXfer+0x674>
 8004f9e:	f8d7 310c 	ldr.w	r3, [r7, #268]	; 0x10c
 8004fa2:	2b3e      	cmp	r3, #62	; 0x3e
 8004fa4:	d817      	bhi.n	8004fd6 <USB_EPStartXfer+0x602>
 8004fa6:	f8d7 310c 	ldr.w	r3, [r7, #268]	; 0x10c
 8004faa:	085b      	lsrs	r3, r3, #1
 8004fac:	f8c7 30f8 	str.w	r3, [r7, #248]	; 0xf8
 8004fb0:	f8d7 310c 	ldr.w	r3, [r7, #268]	; 0x10c
 8004fb4:	f003 0301 	and.w	r3, r3, #1
 8004fb8:	2b00      	cmp	r3, #0
 8004fba:	d004      	beq.n	8004fc6 <USB_EPStartXfer+0x5f2>
 8004fbc:	f8d7 30f8 	ldr.w	r3, [r7, #248]	; 0xf8
 8004fc0:	3301      	adds	r3, #1
 8004fc2:	f8c7 30f8 	str.w	r3, [r7, #248]	; 0xf8
 8004fc6:	f8d7 30f8 	ldr.w	r3, [r7, #248]	; 0xf8
 8004fca:	b29b      	uxth	r3, r3
 8004fcc:	029b      	lsls	r3, r3, #10
 8004fce:	b29a      	uxth	r2, r3
 8004fd0:	6bbb      	ldr	r3, [r7, #56]	; 0x38
 8004fd2:	801a      	strh	r2, [r3, #0]
 8004fd4:	e038      	b.n	8005048 <USB_EPStartXfer+0x674>
 8004fd6:	f8d7 310c 	ldr.w	r3, [r7, #268]	; 0x10c
 8004fda:	095b      	lsrs	r3, r3, #5
 8004fdc:	f8c7 30f8 	str.w	r3, [r7, #248]	; 0xf8
 8004fe0:	f8d7 310c 	ldr.w	r3, [r7, #268]	; 0x10c
 8004fe4:	f003 031f 	and.w	r3, r3, #31
 8004fe8:	2b00      	cmp	r3, #0
 8004fea:	d104      	bne.n	8004ff6 <USB_EPStartXfer+0x622>
 8004fec:	f8d7 30f8 	ldr.w	r3, [r7, #248]	; 0xf8
 8004ff0:	3b01      	subs	r3, #1
 8004ff2:	f8c7 30f8 	str.w	r3, [r7, #248]	; 0xf8
 8004ff6:	f8d7 30f8 	ldr.w	r3, [r7, #248]	; 0xf8
 8004ffa:	b29b      	uxth	r3, r3
 8004ffc:	029b      	lsls	r3, r3, #10
 8004ffe:	b29b      	uxth	r3, r3
 8005000:	ea6f 4343 	mvn.w	r3, r3, lsl #17
 8005004:	ea6f 4353 	mvn.w	r3, r3, lsr #17
 8005008:	b29a      	uxth	r2, r3
 800500a:	6bbb      	ldr	r3, [r7, #56]	; 0x38
 800500c:	801a      	strh	r2, [r3, #0]
 800500e:	e01b      	b.n	8005048 <USB_EPStartXfer+0x674>
 8005010:	463b      	mov	r3, r7
 8005012:	681b      	ldr	r3, [r3, #0]
 8005014:	785b      	ldrb	r3, [r3, #1]
 8005016:	2b01      	cmp	r3, #1
 8005018:	d116      	bne.n	8005048 <USB_EPStartXfer+0x674>
 800501a:	1d3b      	adds	r3, r7, #4
 800501c:	681b      	ldr	r3, [r3, #0]
 800501e:	f8b3 3050 	ldrh.w	r3, [r3, #80]	; 0x50
 8005022:	b29b      	uxth	r3, r3
 8005024:	461a      	mov	r2, r3
 8005026:	6c7b      	ldr	r3, [r7, #68]	; 0x44
 8005028:	4413      	add	r3, r2
 800502a:	647b      	str	r3, [r7, #68]	; 0x44
 800502c:	463b      	mov	r3, r7
 800502e:	681b      	ldr	r3, [r3, #0]
 8005030:	781b      	ldrb	r3, [r3, #0]
 8005032:	011a      	lsls	r2, r3, #4
 8005034:	6c7b      	ldr	r3, [r7, #68]	; 0x44
 8005036:	4413      	add	r3, r2
 8005038:	f203 430c 	addw	r3, r3, #1036	; 0x40c
 800503c:	643b      	str	r3, [r7, #64]	; 0x40
 800503e:	f8d7 310c 	ldr.w	r3, [r7, #268]	; 0x10c
 8005042:	b29a      	uxth	r2, r3
 8005044:	6c3b      	ldr	r3, [r7, #64]	; 0x40
 8005046:	801a      	strh	r2, [r3, #0]
 8005048:	463b      	mov	r3, r7
 800504a:	681b      	ldr	r3, [r3, #0]
 800504c:	895b      	ldrh	r3, [r3, #10]
 800504e:	f8a7 310a 	strh.w	r3, [r7, #266]	; 0x10a
 8005052:	463b      	mov	r3, r7
 8005054:	681b      	ldr	r3, [r3, #0]
 8005056:	6959      	ldr	r1, [r3, #20]
 8005058:	f8d7 310c 	ldr.w	r3, [r7, #268]	; 0x10c
 800505c:	b29b      	uxth	r3, r3
 800505e:	f8b7 210a 	ldrh.w	r2, [r7, #266]	; 0x10a
 8005062:	1d38      	adds	r0, r7, #4
 8005064:	6800      	ldr	r0, [r0, #0]
 8005066:	f000 ff13 	bl	8005e90 <USB_WritePMA>
 800506a:	e1e2      	b.n	8005432 <USB_EPStartXfer+0xa5e>
 800506c:	463b      	mov	r3, r7
 800506e:	681b      	ldr	r3, [r3, #0]
 8005070:	6a1b      	ldr	r3, [r3, #32]
 8005072:	f8c7 310c 	str.w	r3, [r7, #268]	; 0x10c
 8005076:	1d3b      	adds	r3, r7, #4
 8005078:	681a      	ldr	r2, [r3, #0]
 800507a:	463b      	mov	r3, r7
 800507c:	681b      	ldr	r3, [r3, #0]
 800507e:	781b      	ldrb	r3, [r3, #0]
 8005080:	009b      	lsls	r3, r3, #2
 8005082:	4413      	add	r3, r2
 8005084:	881b      	ldrh	r3, [r3, #0]
 8005086:	b29b      	uxth	r3, r3
 8005088:	f423 43e2 	bic.w	r3, r3, #28928	; 0x7100
 800508c:	f023 0370 	bic.w	r3, r3, #112	; 0x70
 8005090:	f8a7 3066 	strh.w	r3, [r7, #102]	; 0x66
 8005094:	1d3b      	adds	r3, r7, #4
 8005096:	681a      	ldr	r2, [r3, #0]
 8005098:	463b      	mov	r3, r7
 800509a:	681b      	ldr	r3, [r3, #0]
 800509c:	781b      	ldrb	r3, [r3, #0]
 800509e:	009b      	lsls	r3, r3, #2
 80050a0:	441a      	add	r2, r3
 80050a2:	f8b7 3066 	ldrh.w	r3, [r7, #102]	; 0x66
 80050a6:	f043 437f 	orr.w	r3, r3, #4278190080	; 0xff000000
 80050aa:	f443 037f 	orr.w	r3, r3, #16711680	; 0xff0000
 80050ae:	f443 4300 	orr.w	r3, r3, #32768	; 0x8000
 80050b2:	f043 0380 	orr.w	r3, r3, #128	; 0x80
 80050b6:	b29b      	uxth	r3, r3
 80050b8:	8013      	strh	r3, [r2, #0]
 80050ba:	1d3b      	adds	r3, r7, #4
 80050bc:	681b      	ldr	r3, [r3, #0]
 80050be:	663b      	str	r3, [r7, #96]	; 0x60
 80050c0:	1d3b      	adds	r3, r7, #4
 80050c2:	681b      	ldr	r3, [r3, #0]
 80050c4:	f8b3 3050 	ldrh.w	r3, [r3, #80]	; 0x50
 80050c8:	b29b      	uxth	r3, r3
 80050ca:	461a      	mov	r2, r3
 80050cc:	6e3b      	ldr	r3, [r7, #96]	; 0x60
 80050ce:	4413      	add	r3, r2
 80050d0:	663b      	str	r3, [r7, #96]	; 0x60
 80050d2:	463b      	mov	r3, r7
 80050d4:	681b      	ldr	r3, [r3, #0]
 80050d6:	781b      	ldrb	r3, [r3, #0]
 80050d8:	011a      	lsls	r2, r3, #4
 80050da:	6e3b      	ldr	r3, [r7, #96]	; 0x60
 80050dc:	4413      	add	r3, r2
 80050de:	f203 4304 	addw	r3, r3, #1028	; 0x404
 80050e2:	65fb      	str	r3, [r7, #92]	; 0x5c
 80050e4:	f8d7 310c 	ldr.w	r3, [r7, #268]	; 0x10c
 80050e8:	b29a      	uxth	r2, r3
 80050ea:	6dfb      	ldr	r3, [r7, #92]	; 0x5c
 80050ec:	801a      	strh	r2, [r3, #0]
 80050ee:	463b      	mov	r3, r7
 80050f0:	681b      	ldr	r3, [r3, #0]
 80050f2:	891b      	ldrh	r3, [r3, #8]
 80050f4:	f8a7 310a 	strh.w	r3, [r7, #266]	; 0x10a
 80050f8:	463b      	mov	r3, r7
 80050fa:	681b      	ldr	r3, [r3, #0]
 80050fc:	6959      	ldr	r1, [r3, #20]
 80050fe:	f8d7 310c 	ldr.w	r3, [r7, #268]	; 0x10c
 8005102:	b29b      	uxth	r3, r3
 8005104:	f8b7 210a 	ldrh.w	r2, [r7, #266]	; 0x10a
 8005108:	1d38      	adds	r0, r7, #4
 800510a:	6800      	ldr	r0, [r0, #0]
 800510c:	f000 fec0 	bl	8005e90 <USB_WritePMA>
 8005110:	e18f      	b.n	8005432 <USB_EPStartXfer+0xa5e>
 8005112:	1d3b      	adds	r3, r7, #4
 8005114:	681a      	ldr	r2, [r3, #0]
 8005116:	463b      	mov	r3, r7
 8005118:	681b      	ldr	r3, [r3, #0]
 800511a:	781b      	ldrb	r3, [r3, #0]
 800511c:	009b      	lsls	r3, r3, #2
 800511e:	4413      	add	r3, r2
 8005120:	881b      	ldrh	r3, [r3, #0]
 8005122:	b29b      	uxth	r3, r3
 8005124:	f003 0340 	and.w	r3, r3, #64	; 0x40
 8005128:	2b00      	cmp	r3, #0
 800512a:	f000 808f 	beq.w	800524c <USB_EPStartXfer+0x878>
 800512e:	1d3b      	adds	r3, r7, #4
 8005130:	681b      	ldr	r3, [r3, #0]
 8005132:	67bb      	str	r3, [r7, #120]	; 0x78
 8005134:	463b      	mov	r3, r7
 8005136:	681b      	ldr	r3, [r3, #0]
 8005138:	785b      	ldrb	r3, [r3, #1]
 800513a:	2b00      	cmp	r3, #0
 800513c:	d164      	bne.n	8005208 <USB_EPStartXfer+0x834>
 800513e:	1d3b      	adds	r3, r7, #4
 8005140:	681b      	ldr	r3, [r3, #0]
 8005142:	673b      	str	r3, [r7, #112]	; 0x70
 8005144:	1d3b      	adds	r3, r7, #4
 8005146:	681b      	ldr	r3, [r3, #0]
 8005148:	f8b3 3050 	ldrh.w	r3, [r3, #80]	; 0x50
 800514c:	b29b      	uxth	r3, r3
 800514e:	461a      	mov	r2, r3
 8005150:	6f3b      	ldr	r3, [r7, #112]	; 0x70
 8005152:	4413      	add	r3, r2
 8005154:	673b      	str	r3, [r7, #112]	; 0x70
 8005156:	463b      	mov	r3, r7
 8005158:	681b      	ldr	r3, [r3, #0]
 800515a:	781b      	ldrb	r3, [r3, #0]
 800515c:	011a      	lsls	r2, r3, #4
 800515e:	6f3b      	ldr	r3, [r7, #112]	; 0x70
 8005160:	4413      	add	r3, r2
 8005162:	f203 430c 	addw	r3, r3, #1036	; 0x40c
 8005166:	66fb      	str	r3, [r7, #108]	; 0x6c
 8005168:	f8d7 310c 	ldr.w	r3, [r7, #268]	; 0x10c
 800516c:	2b00      	cmp	r3, #0
 800516e:	d112      	bne.n	8005196 <USB_EPStartXfer+0x7c2>
 8005170:	6efb      	ldr	r3, [r7, #108]	; 0x6c
 8005172:	881b      	ldrh	r3, [r3, #0]
 8005174:	b29b      	uxth	r3, r3
 8005176:	f423 43f8 	bic.w	r3, r3, #31744	; 0x7c00
 800517a:	b29a      	uxth	r2, r3
 800517c:	6efb      	ldr	r3, [r7, #108]	; 0x6c
 800517e:	801a      	strh	r2, [r3, #0]
 8005180:	6efb      	ldr	r3, [r7, #108]	; 0x6c
 8005182:	881b      	ldrh	r3, [r3, #0]
 8005184:	b29b      	uxth	r3, r3
 8005186:	ea6f 4343 	mvn.w	r3, r3, lsl #17
 800518a:	ea6f 4353 	mvn.w	r3, r3, lsr #17
 800518e:	b29a      	uxth	r2, r3
 8005190:	6efb      	ldr	r3, [r7, #108]	; 0x6c
 8005192:	801a      	strh	r2, [r3, #0]
 8005194:	e054      	b.n	8005240 <USB_EPStartXfer+0x86c>
 8005196:	f8d7 310c 	ldr.w	r3, [r7, #268]	; 0x10c
 800519a:	2b3e      	cmp	r3, #62	; 0x3e
 800519c:	d817      	bhi.n	80051ce <USB_EPStartXfer+0x7fa>
 800519e:	f8d7 310c 	ldr.w	r3, [r7, #268]	; 0x10c
 80051a2:	085b      	lsrs	r3, r3, #1
 80051a4:	f8c7 30f4 	str.w	r3, [r7, #244]	; 0xf4
 80051a8:	f8d7 310c 	ldr.w	r3, [r7, #268]	; 0x10c
 80051ac:	f003 0301 	and.w	r3, r3, #1
 80051b0:	2b00      	cmp	r3, #0
 80051b2:	d004      	beq.n	80051be <USB_EPStartXfer+0x7ea>
 80051b4:	f8d7 30f4 	ldr.w	r3, [r7, #244]	; 0xf4
 80051b8:	3301      	adds	r3, #1
 80051ba:	f8c7 30f4 	str.w	r3, [r7, #244]	; 0xf4
 80051be:	f8d7 30f4 	ldr.w	r3, [r7, #244]	; 0xf4
 80051c2:	b29b      	uxth	r3, r3
 80051c4:	029b      	lsls	r3, r3, #10
 80051c6:	b29a      	uxth	r2, r3
 80051c8:	6efb      	ldr	r3, [r7, #108]	; 0x6c
 80051ca:	801a      	strh	r2, [r3, #0]
 80051cc:	e038      	b.n	8005240 <USB_EPStartXfer+0x86c>
 80051ce:	f8d7 310c 	ldr.w	r3, [r7, #268]	; 0x10c
 80051d2:	095b      	lsrs	r3, r3, #5
 80051d4:	f8c7 30f4 	str.w	r3, [r7, #244]	; 0xf4
 80051d8:	f8d7 310c 	ldr.w	r3, [r7, #268]	; 0x10c
 80051dc:	f003 031f 	and.w	r3, r3, #31
 80051e0:	2b00      	cmp	r3, #0
 80051e2:	d104      	bne.n	80051ee <USB_EPStartXfer+0x81a>
 80051e4:	f8d7 30f4 	ldr.w	r3, [r7, #244]	; 0xf4
 80051e8:	3b01      	subs	r3, #1
 80051ea:	f8c7 30f4 	str.w	r3, [r7, #244]	; 0xf4
 80051ee:	f8d7 30f4 	ldr.w	r3, [r7, #244]	; 0xf4
 80051f2:	b29b      	uxth	r3, r3
 80051f4:	029b      	lsls	r3, r3, #10
 80051f6:	b29b      	uxth	r3, r3
 80051f8:	ea6f 4343 	mvn.w	r3, r3, lsl #17
 80051fc:	ea6f 4353 	mvn.w	r3, r3, lsr #17
 8005200:	b29a      	uxth	r2, r3
 8005202:	6efb      	ldr	r3, [r7, #108]	; 0x6c
 8005204:	801a      	strh	r2, [r3, #0]
 8005206:	e01b      	b.n	8005240 <USB_EPStartXfer+0x86c>
 8005208:	463b      	mov	r3, r7
 800520a:	681b      	ldr	r3, [r3, #0]
 800520c:	785b      	ldrb	r3, [r3, #1]
 800520e:	2b01      	cmp	r3, #1
 8005210:	d116      	bne.n	8005240 <USB_EPStartXfer+0x86c>
 8005212:	1d3b      	adds	r3, r7, #4
 8005214:	681b      	ldr	r3, [r3, #0]
 8005216:	f8b3 3050 	ldrh.w	r3, [r3, #80]	; 0x50
 800521a:	b29b      	uxth	r3, r3
 800521c:	461a      	mov	r2, r3
 800521e:	6fbb      	ldr	r3, [r7, #120]	; 0x78
 8005220:	4413      	add	r3, r2
 8005222:	67bb      	str	r3, [r7, #120]	; 0x78
 8005224:	463b      	mov	r3, r7
 8005226:	681b      	ldr	r3, [r3, #0]
 8005228:	781b      	ldrb	r3, [r3, #0]
 800522a:	011a      	lsls	r2, r3, #4
 800522c:	6fbb      	ldr	r3, [r7, #120]	; 0x78
 800522e:	4413      	add	r3, r2
 8005230:	f203 430c 	addw	r3, r3, #1036	; 0x40c
 8005234:	677b      	str	r3, [r7, #116]	; 0x74
 8005236:	f8d7 310c 	ldr.w	r3, [r7, #268]	; 0x10c
 800523a:	b29a      	uxth	r2, r3
 800523c:	6f7b      	ldr	r3, [r7, #116]	; 0x74
 800523e:	801a      	strh	r2, [r3, #0]
 8005240:	463b      	mov	r3, r7
 8005242:	681b      	ldr	r3, [r3, #0]
 8005244:	895b      	ldrh	r3, [r3, #10]
 8005246:	f8a7 310a 	strh.w	r3, [r7, #266]	; 0x10a
 800524a:	e097      	b.n	800537c <USB_EPStartXfer+0x9a8>
 800524c:	463b      	mov	r3, r7
 800524e:	681b      	ldr	r3, [r3, #0]
 8005250:	785b      	ldrb	r3, [r3, #1]
 8005252:	2b00      	cmp	r3, #0
 8005254:	d168      	bne.n	8005328 <USB_EPStartXfer+0x954>
 8005256:	1d3b      	adds	r3, r7, #4
 8005258:	681b      	ldr	r3, [r3, #0]
 800525a:	f8c7 3080 	str.w	r3, [r7, #128]	; 0x80
 800525e:	1d3b      	adds	r3, r7, #4
 8005260:	681b      	ldr	r3, [r3, #0]
 8005262:	f8b3 3050 	ldrh.w	r3, [r3, #80]	; 0x50
 8005266:	b29b      	uxth	r3, r3
 8005268:	461a      	mov	r2, r3
 800526a:	f8d7 3080 	ldr.w	r3, [r7, #128]	; 0x80
 800526e:	4413      	add	r3, r2
 8005270:	f8c7 3080 	str.w	r3, [r7, #128]	; 0x80
 8005274:	463b      	mov	r3, r7
 8005276:	681b      	ldr	r3, [r3, #0]
 8005278:	781b      	ldrb	r3, [r3, #0]
 800527a:	011a      	lsls	r2, r3, #4
 800527c:	f8d7 3080 	ldr.w	r3, [r7, #128]	; 0x80
 8005280:	4413      	add	r3, r2
 8005282:	f203 4304 	addw	r3, r3, #1028	; 0x404
 8005286:	67fb      	str	r3, [r7, #124]	; 0x7c
 8005288:	f8d7 310c 	ldr.w	r3, [r7, #268]	; 0x10c
 800528c:	2b00      	cmp	r3, #0
 800528e:	d112      	bne.n	80052b6 <USB_EPStartXfer+0x8e2>
 8005290:	6ffb      	ldr	r3, [r7, #124]	; 0x7c
 8005292:	881b      	ldrh	r3, [r3, #0]
 8005294:	b29b      	uxth	r3, r3
 8005296:	f423 43f8 	bic.w	r3, r3, #31744	; 0x7c00
 800529a:	b29a      	uxth	r2, r3
 800529c:	6ffb      	ldr	r3, [r7, #124]	; 0x7c
 800529e:	801a      	strh	r2, [r3, #0]
 80052a0:	6ffb      	ldr	r3, [r7, #124]	; 0x7c
 80052a2:	881b      	ldrh	r3, [r3, #0]
 80052a4:	b29b      	uxth	r3, r3
 80052a6:	ea6f 4343 	mvn.w	r3, r3, lsl #17
 80052aa:	ea6f 4353 	mvn.w	r3, r3, lsr #17
 80052ae:	b29a      	uxth	r2, r3
 80052b0:	6ffb      	ldr	r3, [r7, #124]	; 0x7c
 80052b2:	801a      	strh	r2, [r3, #0]
 80052b4:	e05d      	b.n	8005372 <USB_EPStartXfer+0x99e>
 80052b6:	f8d7 310c 	ldr.w	r3, [r7, #268]	; 0x10c
 80052ba:	2b3e      	cmp	r3, #62	; 0x3e
 80052bc:	d817      	bhi.n	80052ee <USB_EPStartXfer+0x91a>
 80052be:	f8d7 310c 	ldr.w	r3, [r7, #268]	; 0x10c
 80052c2:	085b      	lsrs	r3, r3, #1
 80052c4:	f8c7 30f0 	str.w	r3, [r7, #240]	; 0xf0
 80052c8:	f8d7 310c 	ldr.w	r3, [r7, #268]	; 0x10c
 80052cc:	f003 0301 	and.w	r3, r3, #1
 80052d0:	2b00      	cmp	r3, #0
 80052d2:	d004      	beq.n	80052de <USB_EPStartXfer+0x90a>
 80052d4:	f8d7 30f0 	ldr.w	r3, [r7, #240]	; 0xf0
 80052d8:	3301      	adds	r3, #1
 80052da:	f8c7 30f0 	str.w	r3, [r7, #240]	; 0xf0
 80052de:	f8d7 30f0 	ldr.w	r3, [r7, #240]	; 0xf0
 80052e2:	b29b      	uxth	r3, r3
 80052e4:	029b      	lsls	r3, r3, #10
 80052e6:	b29a      	uxth	r2, r3
 80052e8:	6ffb      	ldr	r3, [r7, #124]	; 0x7c
 80052ea:	801a      	strh	r2, [r3, #0]
 80052ec:	e041      	b.n	8005372 <USB_EPStartXfer+0x99e>
 80052ee:	f8d7 310c 	ldr.w	r3, [r7, #268]	; 0x10c
 80052f2:	095b      	lsrs	r3, r3, #5
 80052f4:	f8c7 30f0 	str.w	r3, [r7, #240]	; 0xf0
 80052f8:	f8d7 310c 	ldr.w	r3, [r7, #268]	; 0x10c
 80052fc:	f003 031f 	and.w	r3, r3, #31
 8005300:	2b00      	cmp	r3, #0
 8005302:	d104      	bne.n	800530e <USB_EPStartXfer+0x93a>
 8005304:	f8d7 30f0 	ldr.w	r3, [r7, #240]	; 0xf0
 8005308:	3b01      	subs	r3, #1
 800530a:	f8c7 30f0 	str.w	r3, [r7, #240]	; 0xf0
 800530e:	f8d7 30f0 	ldr.w	r3, [r7, #240]	; 0xf0
 8005312:	b29b      	uxth	r3, r3
 8005314:	029b      	lsls	r3, r3, #10
 8005316:	b29b      	uxth	r3, r3
 8005318:	ea6f 4343 	mvn.w	r3, r3, lsl #17
 800531c:	ea6f 4353 	mvn.w	r3, r3, lsr #17
 8005320:	b29a      	uxth	r2, r3
 8005322:	6ffb      	ldr	r3, [r7, #124]	; 0x7c
 8005324:	801a      	strh	r2, [r3, #0]
 8005326:	e024      	b.n	8005372 <USB_EPStartXfer+0x99e>
 8005328:	463b      	mov	r3, r7
 800532a:	681b      	ldr	r3, [r3, #0]
 800532c:	785b      	ldrb	r3, [r3, #1]
 800532e:	2b01      	cmp	r3, #1
 8005330:	d11f      	bne.n	8005372 <USB_EPStartXfer+0x99e>
 8005332:	1d3b      	adds	r3, r7, #4
 8005334:	681b      	ldr	r3, [r3, #0]
 8005336:	f8c7 3088 	str.w	r3, [r7, #136]	; 0x88
 800533a:	1d3b      	adds	r3, r7, #4
 800533c:	681b      	ldr	r3, [r3, #0]
 800533e:	f8b3 3050 	ldrh.w	r3, [r3, #80]	; 0x50
 8005342:	b29b      	uxth	r3, r3
 8005344:	461a      	mov	r2, r3
 8005346:	f8d7 3088 	ldr.w	r3, [r7, #136]	; 0x88
 800534a:	4413      	add	r3, r2
 800534c:	f8c7 3088 	str.w	r3, [r7, #136]	; 0x88
 8005350:	463b      	mov	r3, r7
 8005352:	681b      	ldr	r3, [r3, #0]
 8005354:	781b      	ldrb	r3, [r3, #0]
 8005356:	011a      	lsls	r2, r3, #4
 8005358:	f8d7 3088 	ldr.w	r3, [r7, #136]	; 0x88
 800535c:	4413      	add	r3, r2
 800535e:	f203 4304 	addw	r3, r3, #1028	; 0x404
 8005362:	f8c7 3084 	str.w	r3, [r7, #132]	; 0x84
 8005366:	f8d7 310c 	ldr.w	r3, [r7, #268]	; 0x10c
 800536a:	b29a      	uxth	r2, r3
 800536c:	f8d7 3084 	ldr.w	r3, [r7, #132]	; 0x84
 8005370:	801a      	strh	r2, [r3, #0]
 8005372:	463b      	mov	r3, r7
 8005374:	681b      	ldr	r3, [r3, #0]
 8005376:	891b      	ldrh	r3, [r3, #8]
 8005378:	f8a7 310a 	strh.w	r3, [r7, #266]	; 0x10a
 800537c:	463b      	mov	r3, r7
 800537e:	681b      	ldr	r3, [r3, #0]
 8005380:	6959      	ldr	r1, [r3, #20]
 8005382:	f8d7 310c 	ldr.w	r3, [r7, #268]	; 0x10c
 8005386:	b29b      	uxth	r3, r3
 8005388:	f8b7 210a 	ldrh.w	r2, [r7, #266]	; 0x10a
 800538c:	1d38      	adds	r0, r7, #4
 800538e:	6800      	ldr	r0, [r0, #0]
 8005390:	f000 fd7e 	bl	8005e90 <USB_WritePMA>
 8005394:	463b      	mov	r3, r7
 8005396:	681b      	ldr	r3, [r3, #0]
 8005398:	785b      	ldrb	r3, [r3, #1]
 800539a:	2b00      	cmp	r3, #0
 800539c:	d122      	bne.n	80053e4 <USB_EPStartXfer+0xa10>
 800539e:	1d3b      	adds	r3, r7, #4
 80053a0:	681a      	ldr	r2, [r3, #0]
 80053a2:	463b      	mov	r3, r7
 80053a4:	681b      	ldr	r3, [r3, #0]
 80053a6:	781b      	ldrb	r3, [r3, #0]
 80053a8:	009b      	lsls	r3, r3, #2
 80053aa:	4413      	add	r3, r2
 80053ac:	881b      	ldrh	r3, [r3, #0]
 80053ae:	b29b      	uxth	r3, r3
 80053b0:	f423 43e0 	bic.w	r3, r3, #28672	; 0x7000
 80053b4:	f023 0370 	bic.w	r3, r3, #112	; 0x70
 80053b8:	f8a7 3068 	strh.w	r3, [r7, #104]	; 0x68
 80053bc:	1d3b      	adds	r3, r7, #4
 80053be:	681a      	ldr	r2, [r3, #0]
 80053c0:	463b      	mov	r3, r7
 80053c2:	681b      	ldr	r3, [r3, #0]
 80053c4:	781b      	ldrb	r3, [r3, #0]
 80053c6:	009b      	lsls	r3, r3, #2
 80053c8:	441a      	add	r2, r3
 80053ca:	f8b7 3068 	ldrh.w	r3, [r7, #104]	; 0x68
 80053ce:	f043 437f 	orr.w	r3, r3, #4278190080	; 0xff000000
 80053d2:	f443 037f 	orr.w	r3, r3, #16711680	; 0xff0000
 80053d6:	f443 4300 	orr.w	r3, r3, #32768	; 0x8000
 80053da:	f043 03c0 	orr.w	r3, r3, #192	; 0xc0
 80053de:	b29b      	uxth	r3, r3
 80053e0:	8013      	strh	r3, [r2, #0]
 80053e2:	e026      	b.n	8005432 <USB_EPStartXfer+0xa5e>
 80053e4:	463b      	mov	r3, r7
 80053e6:	681b      	ldr	r3, [r3, #0]
 80053e8:	785b      	ldrb	r3, [r3, #1]
 80053ea:	2b01      	cmp	r3, #1
 80053ec:	d121      	bne.n	8005432 <USB_EPStartXfer+0xa5e>
 80053ee:	1d3b      	adds	r3, r7, #4
 80053f0:	681a      	ldr	r2, [r3, #0]
 80053f2:	463b      	mov	r3, r7
 80053f4:	681b      	ldr	r3, [r3, #0]
 80053f6:	781b      	ldrb	r3, [r3, #0]
 80053f8:	009b      	lsls	r3, r3, #2
 80053fa:	4413      	add	r3, r2
 80053fc:	881b      	ldrh	r3, [r3, #0]
 80053fe:	b29b      	uxth	r3, r3
 8005400:	f423 43e0 	bic.w	r3, r3, #28672	; 0x7000
 8005404:	f023 0370 	bic.w	r3, r3, #112	; 0x70
 8005408:	f8a7 306a 	strh.w	r3, [r7, #106]	; 0x6a
 800540c:	1d3b      	adds	r3, r7, #4
 800540e:	681a      	ldr	r2, [r3, #0]
 8005410:	463b      	mov	r3, r7
 8005412:	681b      	ldr	r3, [r3, #0]
 8005414:	781b      	ldrb	r3, [r3, #0]
 8005416:	009b      	lsls	r3, r3, #2
 8005418:	441a      	add	r2, r3
 800541a:	f8b7 306a 	ldrh.w	r3, [r7, #106]	; 0x6a
 800541e:	f043 437f 	orr.w	r3, r3, #4278190080	; 0xff000000
 8005422:	f443 037f 	orr.w	r3, r3, #16711680	; 0xff0000
 8005426:	f443 4340 	orr.w	r3, r3, #49152	; 0xc000
 800542a:	f043 0380 	orr.w	r3, r3, #128	; 0x80
 800542e:	b29b      	uxth	r3, r3
 8005430:	8013      	strh	r3, [r2, #0]
 8005432:	1d3b      	adds	r3, r7, #4
 8005434:	681a      	ldr	r2, [r3, #0]
 8005436:	463b      	mov	r3, r7
 8005438:	681b      	ldr	r3, [r3, #0]
 800543a:	781b      	ldrb	r3, [r3, #0]
 800543c:	009b      	lsls	r3, r3, #2
 800543e:	4413      	add	r3, r2
 8005440:	881b      	ldrh	r3, [r3, #0]
 8005442:	b29b      	uxth	r3, r3
 8005444:	f107 020e 	add.w	r2, r7, #14
 8005448:	f423 43e0 	bic.w	r3, r3, #28672	; 0x7000
 800544c:	f023 0340 	bic.w	r3, r3, #64	; 0x40
 8005450:	8013      	strh	r3, [r2, #0]
 8005452:	f107 030e 	add.w	r3, r7, #14
 8005456:	f107 020e 	add.w	r2, r7, #14
 800545a:	8812      	ldrh	r2, [r2, #0]
 800545c:	f082 0210 	eor.w	r2, r2, #16
 8005460:	801a      	strh	r2, [r3, #0]
 8005462:	f107 030e 	add.w	r3, r7, #14
 8005466:	f107 020e 	add.w	r2, r7, #14
 800546a:	8812      	ldrh	r2, [r2, #0]
 800546c:	f082 0220 	eor.w	r2, r2, #32
 8005470:	801a      	strh	r2, [r3, #0]
 8005472:	1d3b      	adds	r3, r7, #4
 8005474:	681a      	ldr	r2, [r3, #0]
 8005476:	463b      	mov	r3, r7
 8005478:	681b      	ldr	r3, [r3, #0]
 800547a:	781b      	ldrb	r3, [r3, #0]
 800547c:	009b      	lsls	r3, r3, #2
 800547e:	441a      	add	r2, r3
 8005480:	f107 030e 	add.w	r3, r7, #14
 8005484:	881b      	ldrh	r3, [r3, #0]
 8005486:	f043 437f 	orr.w	r3, r3, #4278190080	; 0xff000000
 800548a:	f443 037f 	orr.w	r3, r3, #16711680	; 0xff0000
 800548e:	f443 4300 	orr.w	r3, r3, #32768	; 0x8000
 8005492:	f043 0380 	orr.w	r3, r3, #128	; 0x80
 8005496:	b29b      	uxth	r3, r3
 8005498:	8013      	strh	r3, [r2, #0]
 800549a:	e3b5      	b.n	8005c08 <USB_EPStartXfer+0x1234>
 800549c:	463b      	mov	r3, r7
 800549e:	681b      	ldr	r3, [r3, #0]
 80054a0:	7b1b      	ldrb	r3, [r3, #12]
 80054a2:	2b00      	cmp	r3, #0
 80054a4:	f040 8090 	bne.w	80055c8 <USB_EPStartXfer+0xbf4>
 80054a8:	463b      	mov	r3, r7
 80054aa:	681b      	ldr	r3, [r3, #0]
 80054ac:	699a      	ldr	r2, [r3, #24]
 80054ae:	463b      	mov	r3, r7
 80054b0:	681b      	ldr	r3, [r3, #0]
 80054b2:	691b      	ldr	r3, [r3, #16]
 80054b4:	429a      	cmp	r2, r3
 80054b6:	d90e      	bls.n	80054d6 <USB_EPStartXfer+0xb02>
 80054b8:	463b      	mov	r3, r7
 80054ba:	681b      	ldr	r3, [r3, #0]
 80054bc:	691b      	ldr	r3, [r3, #16]
 80054be:	f8c7 310c 	str.w	r3, [r7, #268]	; 0x10c
 80054c2:	463b      	mov	r3, r7
 80054c4:	681b      	ldr	r3, [r3, #0]
 80054c6:	699a      	ldr	r2, [r3, #24]
 80054c8:	f8d7 310c 	ldr.w	r3, [r7, #268]	; 0x10c
 80054cc:	1ad2      	subs	r2, r2, r3
 80054ce:	463b      	mov	r3, r7
 80054d0:	681b      	ldr	r3, [r3, #0]
 80054d2:	619a      	str	r2, [r3, #24]
 80054d4:	e008      	b.n	80054e8 <USB_EPStartXfer+0xb14>
 80054d6:	463b      	mov	r3, r7
 80054d8:	681b      	ldr	r3, [r3, #0]
 80054da:	699b      	ldr	r3, [r3, #24]
 80054dc:	f8c7 310c 	str.w	r3, [r7, #268]	; 0x10c
 80054e0:	463b      	mov	r3, r7
 80054e2:	681b      	ldr	r3, [r3, #0]
 80054e4:	2200      	movs	r2, #0
 80054e6:	619a      	str	r2, [r3, #24]
 80054e8:	1d3b      	adds	r3, r7, #4
 80054ea:	681b      	ldr	r3, [r3, #0]
 80054ec:	f8c7 3094 	str.w	r3, [r7, #148]	; 0x94
 80054f0:	1d3b      	adds	r3, r7, #4
 80054f2:	681b      	ldr	r3, [r3, #0]
 80054f4:	f8b3 3050 	ldrh.w	r3, [r3, #80]	; 0x50
 80054f8:	b29b      	uxth	r3, r3
 80054fa:	461a      	mov	r2, r3
 80054fc:	f8d7 3094 	ldr.w	r3, [r7, #148]	; 0x94
 8005500:	4413      	add	r3, r2
 8005502:	f8c7 3094 	str.w	r3, [r7, #148]	; 0x94
 8005506:	463b      	mov	r3, r7
 8005508:	681b      	ldr	r3, [r3, #0]
 800550a:	781b      	ldrb	r3, [r3, #0]
 800550c:	011a      	lsls	r2, r3, #4
 800550e:	f8d7 3094 	ldr.w	r3, [r7, #148]	; 0x94
 8005512:	4413      	add	r3, r2
 8005514:	f203 430c 	addw	r3, r3, #1036	; 0x40c
 8005518:	f8c7 3090 	str.w	r3, [r7, #144]	; 0x90
 800551c:	f8d7 310c 	ldr.w	r3, [r7, #268]	; 0x10c
 8005520:	2b00      	cmp	r3, #0
 8005522:	d116      	bne.n	8005552 <USB_EPStartXfer+0xb7e>
 8005524:	f8d7 3090 	ldr.w	r3, [r7, #144]	; 0x90
 8005528:	881b      	ldrh	r3, [r3, #0]
 800552a:	b29b      	uxth	r3, r3
 800552c:	f423 43f8 	bic.w	r3, r3, #31744	; 0x7c00
 8005530:	b29a      	uxth	r2, r3
 8005532:	f8d7 3090 	ldr.w	r3, [r7, #144]	; 0x90
 8005536:	801a      	strh	r2, [r3, #0]
 8005538:	f8d7 3090 	ldr.w	r3, [r7, #144]	; 0x90
 800553c:	881b      	ldrh	r3, [r3, #0]
 800553e:	b29b      	uxth	r3, r3
 8005540:	ea6f 4343 	mvn.w	r3, r3, lsl #17
 8005544:	ea6f 4353 	mvn.w	r3, r3, lsr #17
 8005548:	b29a      	uxth	r2, r3
 800554a:	f8d7 3090 	ldr.w	r3, [r7, #144]	; 0x90
 800554e:	801a      	strh	r2, [r3, #0]
 8005550:	e32c      	b.n	8005bac <USB_EPStartXfer+0x11d8>
 8005552:	f8d7 310c 	ldr.w	r3, [r7, #268]	; 0x10c
 8005556:	2b3e      	cmp	r3, #62	; 0x3e
 8005558:	d818      	bhi.n	800558c <USB_EPStartXfer+0xbb8>
 800555a:	f8d7 310c 	ldr.w	r3, [r7, #268]	; 0x10c
 800555e:	085b      	lsrs	r3, r3, #1
 8005560:	f8c7 30ec 	str.w	r3, [r7, #236]	; 0xec
 8005564:	f8d7 310c 	ldr.w	r3, [r7, #268]	; 0x10c
 8005568:	f003 0301 	and.w	r3, r3, #1
 800556c:	2b00      	cmp	r3, #0
 800556e:	d004      	beq.n	800557a <USB_EPStartXfer+0xba6>
 8005570:	f8d7 30ec 	ldr.w	r3, [r7, #236]	; 0xec
 8005574:	3301      	adds	r3, #1
 8005576:	f8c7 30ec 	str.w	r3, [r7, #236]	; 0xec
 800557a:	f8d7 30ec 	ldr.w	r3, [r7, #236]	; 0xec
 800557e:	b29b      	uxth	r3, r3
 8005580:	029b      	lsls	r3, r3, #10
 8005582:	b29a      	uxth	r2, r3
 8005584:	f8d7 3090 	ldr.w	r3, [r7, #144]	; 0x90
 8005588:	801a      	strh	r2, [r3, #0]
 800558a:	e30f      	b.n	8005bac <USB_EPStartXfer+0x11d8>
 800558c:	f8d7 310c 	ldr.w	r3, [r7, #268]	; 0x10c
 8005590:	095b      	lsrs	r3, r3, #5
 8005592:	f8c7 30ec 	str.w	r3, [r7, #236]	; 0xec
 8005596:	f8d7 310c 	ldr.w	r3, [r7, #268]	; 0x10c
 800559a:	f003 031f 	and.w	r3, r3, #31
 800559e:	2b00      	cmp	r3, #0
 80055a0:	d104      	bne.n	80055ac <USB_EPStartXfer+0xbd8>
 80055a2:	f8d7 30ec 	ldr.w	r3, [r7, #236]	; 0xec
 80055a6:	3b01      	subs	r3, #1
 80055a8:	f8c7 30ec 	str.w	r3, [r7, #236]	; 0xec
 80055ac:	f8d7 30ec 	ldr.w	r3, [r7, #236]	; 0xec
 80055b0:	b29b      	uxth	r3, r3
 80055b2:	029b      	lsls	r3, r3, #10
 80055b4:	b29b      	uxth	r3, r3
 80055b6:	ea6f 4343 	mvn.w	r3, r3, lsl #17
 80055ba:	ea6f 4353 	mvn.w	r3, r3, lsr #17
 80055be:	b29a      	uxth	r2, r3
 80055c0:	f8d7 3090 	ldr.w	r3, [r7, #144]	; 0x90
 80055c4:	801a      	strh	r2, [r3, #0]
 80055c6:	e2f1      	b.n	8005bac <USB_EPStartXfer+0x11d8>
 80055c8:	463b      	mov	r3, r7
 80055ca:	681b      	ldr	r3, [r3, #0]
 80055cc:	78db      	ldrb	r3, [r3, #3]
 80055ce:	2b02      	cmp	r3, #2
 80055d0:	f040 818f 	bne.w	80058f2 <USB_EPStartXfer+0xf1e>
 80055d4:	463b      	mov	r3, r7
 80055d6:	681b      	ldr	r3, [r3, #0]
 80055d8:	785b      	ldrb	r3, [r3, #1]
 80055da:	2b00      	cmp	r3, #0
 80055dc:	d175      	bne.n	80056ca <USB_EPStartXfer+0xcf6>
 80055de:	1d3b      	adds	r3, r7, #4
 80055e0:	681b      	ldr	r3, [r3, #0]
 80055e2:	f8c7 30b0 	str.w	r3, [r7, #176]	; 0xb0
 80055e6:	1d3b      	adds	r3, r7, #4
 80055e8:	681b      	ldr	r3, [r3, #0]
 80055ea:	f8b3 3050 	ldrh.w	r3, [r3, #80]	; 0x50
 80055ee:	b29b      	uxth	r3, r3
 80055f0:	461a      	mov	r2, r3
 80055f2:	f8d7 30b0 	ldr.w	r3, [r7, #176]	; 0xb0
 80055f6:	4413      	add	r3, r2
 80055f8:	f8c7 30b0 	str.w	r3, [r7, #176]	; 0xb0
 80055fc:	463b      	mov	r3, r7
 80055fe:	681b      	ldr	r3, [r3, #0]
 8005600:	781b      	ldrb	r3, [r3, #0]
 8005602:	011a      	lsls	r2, r3, #4
 8005604:	f8d7 30b0 	ldr.w	r3, [r7, #176]	; 0xb0
 8005608:	4413      	add	r3, r2
 800560a:	f203 4304 	addw	r3, r3, #1028	; 0x404
 800560e:	f8c7 30ac 	str.w	r3, [r7, #172]	; 0xac
 8005612:	463b      	mov	r3, r7
 8005614:	681b      	ldr	r3, [r3, #0]
 8005616:	691b      	ldr	r3, [r3, #16]
 8005618:	2b00      	cmp	r3, #0
 800561a:	d116      	bne.n	800564a <USB_EPStartXfer+0xc76>
 800561c:	f8d7 30ac 	ldr.w	r3, [r7, #172]	; 0xac
 8005620:	881b      	ldrh	r3, [r3, #0]
 8005622:	b29b      	uxth	r3, r3
 8005624:	f423 43f8 	bic.w	r3, r3, #31744	; 0x7c00
 8005628:	b29a      	uxth	r2, r3
 800562a:	f8d7 30ac 	ldr.w	r3, [r7, #172]	; 0xac
 800562e:	801a      	strh	r2, [r3, #0]
 8005630:	f8d7 30ac 	ldr.w	r3, [r7, #172]	; 0xac
 8005634:	881b      	ldrh	r3, [r3, #0]
 8005636:	b29b      	uxth	r3, r3
 8005638:	ea6f 4343 	mvn.w	r3, r3, lsl #17
 800563c:	ea6f 4353 	mvn.w	r3, r3, lsr #17
 8005640:	b29a      	uxth	r2, r3
 8005642:	f8d7 30ac 	ldr.w	r3, [r7, #172]	; 0xac
 8005646:	801a      	strh	r2, [r3, #0]
 8005648:	e065      	b.n	8005716 <USB_EPStartXfer+0xd42>
 800564a:	463b      	mov	r3, r7
 800564c:	681b      	ldr	r3, [r3, #0]
 800564e:	691b      	ldr	r3, [r3, #16]
 8005650:	2b3e      	cmp	r3, #62	; 0x3e
 8005652:	d81a      	bhi.n	800568a <USB_EPStartXfer+0xcb6>
 8005654:	463b      	mov	r3, r7
 8005656:	681b      	ldr	r3, [r3, #0]
 8005658:	691b      	ldr	r3, [r3, #16]
 800565a:	085b      	lsrs	r3, r3, #1
 800565c:	f8c7 30e8 	str.w	r3, [r7, #232]	; 0xe8
 8005660:	463b      	mov	r3, r7
 8005662:	681b      	ldr	r3, [r3, #0]
 8005664:	691b      	ldr	r3, [r3, #16]
 8005666:	f003 0301 	and.w	r3, r3, #1
 800566a:	2b00      	cmp	r3, #0
 800566c:	d004      	beq.n	8005678 <USB_EPStartXfer+0xca4>
 800566e:	f8d7 30e8 	ldr.w	r3, [r7, #232]	; 0xe8
 8005672:	3301      	adds	r3, #1
 8005674:	f8c7 30e8 	str.w	r3, [r7, #232]	; 0xe8
 8005678:	f8d7 30e8 	ldr.w	r3, [r7, #232]	; 0xe8
 800567c:	b29b      	uxth	r3, r3
 800567e:	029b      	lsls	r3, r3, #10
 8005680:	b29a      	uxth	r2, r3
 8005682:	f8d7 30ac 	ldr.w	r3, [r7, #172]	; 0xac
 8005686:	801a      	strh	r2, [r3, #0]
 8005688:	e045      	b.n	8005716 <USB_EPStartXfer+0xd42>
 800568a:	463b      	mov	r3, r7
 800568c:	681b      	ldr	r3, [r3, #0]
 800568e:	691b      	ldr	r3, [r3, #16]
 8005690:	095b      	lsrs	r3, r3, #5
 8005692:	f8c7 30e8 	str.w	r3, [r7, #232]	; 0xe8
 8005696:	463b      	mov	r3, r7
 8005698:	681b      	ldr	r3, [r3, #0]
 800569a:	691b      	ldr	r3, [r3, #16]
 800569c:	f003 031f 	and.w	r3, r3, #31
 80056a0:	2b00      	cmp	r3, #0
 80056a2:	d104      	bne.n	80056ae <USB_EPStartXfer+0xcda>
 80056a4:	f8d7 30e8 	ldr.w	r3, [r7, #232]	; 0xe8
 80056a8:	3b01      	subs	r3, #1
 80056aa:	f8c7 30e8 	str.w	r3, [r7, #232]	; 0xe8
 80056ae:	f8d7 30e8 	ldr.w	r3, [r7, #232]	; 0xe8
 80056b2:	b29b      	uxth	r3, r3
 80056b4:	029b      	lsls	r3, r3, #10
 80056b6:	b29b      	uxth	r3, r3
 80056b8:	ea6f 4343 	mvn.w	r3, r3, lsl #17
 80056bc:	ea6f 4353 	mvn.w	r3, r3, lsr #17
 80056c0:	b29a      	uxth	r2, r3
 80056c2:	f8d7 30ac 	ldr.w	r3, [r7, #172]	; 0xac
 80056c6:	801a      	strh	r2, [r3, #0]
 80056c8:	e025      	b.n	8005716 <USB_EPStartXfer+0xd42>
 80056ca:	463b      	mov	r3, r7
 80056cc:	681b      	ldr	r3, [r3, #0]
 80056ce:	785b      	ldrb	r3, [r3, #1]
 80056d0:	2b01      	cmp	r3, #1
 80056d2:	d120      	bne.n	8005716 <USB_EPStartXfer+0xd42>
 80056d4:	1d3b      	adds	r3, r7, #4
 80056d6:	681b      	ldr	r3, [r3, #0]
 80056d8:	f8c7 30b8 	str.w	r3, [r7, #184]	; 0xb8
 80056dc:	1d3b      	adds	r3, r7, #4
 80056de:	681b      	ldr	r3, [r3, #0]
 80056e0:	f8b3 3050 	ldrh.w	r3, [r3, #80]	; 0x50
 80056e4:	b29b      	uxth	r3, r3
 80056e6:	461a      	mov	r2, r3
 80056e8:	f8d7 30b8 	ldr.w	r3, [r7, #184]	; 0xb8
 80056ec:	4413      	add	r3, r2
 80056ee:	f8c7 30b8 	str.w	r3, [r7, #184]	; 0xb8
 80056f2:	463b      	mov	r3, r7
 80056f4:	681b      	ldr	r3, [r3, #0]
 80056f6:	781b      	ldrb	r3, [r3, #0]
 80056f8:	011a      	lsls	r2, r3, #4
 80056fa:	f8d7 30b8 	ldr.w	r3, [r7, #184]	; 0xb8
 80056fe:	4413      	add	r3, r2
 8005700:	f203 4304 	addw	r3, r3, #1028	; 0x404
 8005704:	f8c7 30b4 	str.w	r3, [r7, #180]	; 0xb4
 8005708:	463b      	mov	r3, r7
 800570a:	681b      	ldr	r3, [r3, #0]
 800570c:	691b      	ldr	r3, [r3, #16]
 800570e:	b29a      	uxth	r2, r3
 8005710:	f8d7 30b4 	ldr.w	r3, [r7, #180]	; 0xb4
 8005714:	801a      	strh	r2, [r3, #0]
 8005716:	1d3b      	adds	r3, r7, #4
 8005718:	681b      	ldr	r3, [r3, #0]
 800571a:	f8c7 30a8 	str.w	r3, [r7, #168]	; 0xa8
 800571e:	463b      	mov	r3, r7
 8005720:	681b      	ldr	r3, [r3, #0]
 8005722:	785b      	ldrb	r3, [r3, #1]
 8005724:	2b00      	cmp	r3, #0
 8005726:	d175      	bne.n	8005814 <USB_EPStartXfer+0xe40>
 8005728:	1d3b      	adds	r3, r7, #4
 800572a:	681b      	ldr	r3, [r3, #0]
 800572c:	f8c7 30a0 	str.w	r3, [r7, #160]	; 0xa0
 8005730:	1d3b      	adds	r3, r7, #4
 8005732:	681b      	ldr	r3, [r3, #0]
 8005734:	f8b3 3050 	ldrh.w	r3, [r3, #80]	; 0x50
 8005738:	b29b      	uxth	r3, r3
 800573a:	461a      	mov	r2, r3
 800573c:	f8d7 30a0 	ldr.w	r3, [r7, #160]	; 0xa0
 8005740:	4413      	add	r3, r2
 8005742:	f8c7 30a0 	str.w	r3, [r7, #160]	; 0xa0
 8005746:	463b      	mov	r3, r7
 8005748:	681b      	ldr	r3, [r3, #0]
 800574a:	781b      	ldrb	r3, [r3, #0]
 800574c:	011a      	lsls	r2, r3, #4
 800574e:	f8d7 30a0 	ldr.w	r3, [r7, #160]	; 0xa0
 8005752:	4413      	add	r3, r2
 8005754:	f203 430c 	addw	r3, r3, #1036	; 0x40c
 8005758:	f8c7 309c 	str.w	r3, [r7, #156]	; 0x9c
 800575c:	463b      	mov	r3, r7
 800575e:	681b      	ldr	r3, [r3, #0]
 8005760:	691b      	ldr	r3, [r3, #16]
 8005762:	2b00      	cmp	r3, #0
 8005764:	d116      	bne.n	8005794 <USB_EPStartXfer+0xdc0>
 8005766:	f8d7 309c 	ldr.w	r3, [r7, #156]	; 0x9c
 800576a:	881b      	ldrh	r3, [r3, #0]
 800576c:	b29b      	uxth	r3, r3
 800576e:	f423 43f8 	bic.w	r3, r3, #31744	; 0x7c00
 8005772:	b29a      	uxth	r2, r3
 8005774:	f8d7 309c 	ldr.w	r3, [r7, #156]	; 0x9c
 8005778:	801a      	strh	r2, [r3, #0]
 800577a:	f8d7 309c 	ldr.w	r3, [r7, #156]	; 0x9c
 800577e:	881b      	ldrh	r3, [r3, #0]
 8005780:	b29b      	uxth	r3, r3
 8005782:	ea6f 4343 	mvn.w	r3, r3, lsl #17
 8005786:	ea6f 4353 	mvn.w	r3, r3, lsr #17
 800578a:	b29a      	uxth	r2, r3
 800578c:	f8d7 309c 	ldr.w	r3, [r7, #156]	; 0x9c
 8005790:	801a      	strh	r2, [r3, #0]
 8005792:	e061      	b.n	8005858 <USB_EPStartXfer+0xe84>
 8005794:	463b      	mov	r3, r7
 8005796:	681b      	ldr	r3, [r3, #0]
 8005798:	691b      	ldr	r3, [r3, #16]
 800579a:	2b3e      	cmp	r3, #62	; 0x3e
 800579c:	d81a      	bhi.n	80057d4 <USB_EPStartXfer+0xe00>
 800579e:	463b      	mov	r3, r7
 80057a0:	681b      	ldr	r3, [r3, #0]
 80057a2:	691b      	ldr	r3, [r3, #16]
 80057a4:	085b      	lsrs	r3, r3, #1
 80057a6:	f8c7 30e4 	str.w	r3, [r7, #228]	; 0xe4
 80057aa:	463b      	mov	r3, r7
 80057ac:	681b      	ldr	r3, [r3, #0]
 80057ae:	691b      	ldr	r3, [r3, #16]
 80057b0:	f003 0301 	and.w	r3, r3, #1
 80057b4:	2b00      	cmp	r3, #0
 80057b6:	d004      	beq.n	80057c2 <USB_EPStartXfer+0xdee>
 80057b8:	f8d7 30e4 	ldr.w	r3, [r7, #228]	; 0xe4
 80057bc:	3301      	adds	r3, #1
 80057be:	f8c7 30e4 	str.w	r3, [r7, #228]	; 0xe4
 80057c2:	f8d7 30e4 	ldr.w	r3, [r7, #228]	; 0xe4
 80057c6:	b29b      	uxth	r3, r3
 80057c8:	029b      	lsls	r3, r3, #10
 80057ca:	b29a      	uxth	r2, r3
 80057cc:	f8d7 309c 	ldr.w	r3, [r7, #156]	; 0x9c
 80057d0:	801a      	strh	r2, [r3, #0]
 80057d2:	e041      	b.n	8005858 <USB_EPStartXfer+0xe84>
 80057d4:	463b      	mov	r3, r7
 80057d6:	681b      	ldr	r3, [r3, #0]
 80057d8:	691b      	ldr	r3, [r3, #16]
 80057da:	095b      	lsrs	r3, r3, #5
 80057dc:	f8c7 30e4 	str.w	r3, [r7, #228]	; 0xe4
 80057e0:	463b      	mov	r3, r7
 80057e2:	681b      	ldr	r3, [r3, #0]
 80057e4:	691b      	ldr	r3, [r3, #16]
 80057e6:	f003 031f 	and.w	r3, r3, #31
 80057ea:	2b00      	cmp	r3, #0
 80057ec:	d104      	bne.n	80057f8 <USB_EPStartXfer+0xe24>
 80057ee:	f8d7 30e4 	ldr.w	r3, [r7, #228]	; 0xe4
 80057f2:	3b01      	subs	r3, #1
 80057f4:	f8c7 30e4 	str.w	r3, [r7, #228]	; 0xe4
 80057f8:	f8d7 30e4 	ldr.w	r3, [r7, #228]	; 0xe4
 80057fc:	b29b      	uxth	r3, r3
 80057fe:	029b      	lsls	r3, r3, #10
 8005800:	b29b      	uxth	r3, r3
 8005802:	ea6f 4343 	mvn.w	r3, r3, lsl #17
 8005806:	ea6f 4353 	mvn.w	r3, r3, lsr #17
 800580a:	b29a      	uxth	r2, r3
 800580c:	f8d7 309c 	ldr.w	r3, [r7, #156]	; 0x9c
 8005810:	801a      	strh	r2, [r3, #0]
 8005812:	e021      	b.n	8005858 <USB_EPStartXfer+0xe84>
 8005814:	463b      	mov	r3, r7
 8005816:	681b      	ldr	r3, [r3, #0]
 8005818:	785b      	ldrb	r3, [r3, #1]
 800581a:	2b01      	cmp	r3, #1
 800581c:	d11c      	bne.n	8005858 <USB_EPStartXfer+0xe84>
 800581e:	1d3b      	adds	r3, r7, #4
 8005820:	681b      	ldr	r3, [r3, #0]
 8005822:	f8b3 3050 	ldrh.w	r3, [r3, #80]	; 0x50
 8005826:	b29b      	uxth	r3, r3
 8005828:	461a      	mov	r2, r3
 800582a:	f8d7 30a8 	ldr.w	r3, [r7, #168]	; 0xa8
 800582e:	4413      	add	r3, r2
 8005830:	f8c7 30a8 	str.w	r3, [r7, #168]	; 0xa8
 8005834:	463b      	mov	r3, r7
 8005836:	681b      	ldr	r3, [r3, #0]
 8005838:	781b      	ldrb	r3, [r3, #0]
 800583a:	011a      	lsls	r2, r3, #4
 800583c:	f8d7 30a8 	ldr.w	r3, [r7, #168]	; 0xa8
 8005840:	4413      	add	r3, r2
 8005842:	f203 430c 	addw	r3, r3, #1036	; 0x40c
 8005846:	f8c7 30a4 	str.w	r3, [r7, #164]	; 0xa4
 800584a:	463b      	mov	r3, r7
 800584c:	681b      	ldr	r3, [r3, #0]
 800584e:	691b      	ldr	r3, [r3, #16]
 8005850:	b29a      	uxth	r2, r3
 8005852:	f8d7 30a4 	ldr.w	r3, [r7, #164]	; 0xa4
 8005856:	801a      	strh	r2, [r3, #0]
 8005858:	463b      	mov	r3, r7
 800585a:	681b      	ldr	r3, [r3, #0]
 800585c:	69db      	ldr	r3, [r3, #28]
 800585e:	2b00      	cmp	r3, #0
 8005860:	f000 81a4 	beq.w	8005bac <USB_EPStartXfer+0x11d8>
 8005864:	1d3b      	adds	r3, r7, #4
 8005866:	681a      	ldr	r2, [r3, #0]
 8005868:	463b      	mov	r3, r7
 800586a:	681b      	ldr	r3, [r3, #0]
 800586c:	781b      	ldrb	r3, [r3, #0]
 800586e:	009b      	lsls	r3, r3, #2
 8005870:	4413      	add	r3, r2
 8005872:	881b      	ldrh	r3, [r3, #0]
 8005874:	f8a7 309a 	strh.w	r3, [r7, #154]	; 0x9a
 8005878:	f8b7 309a 	ldrh.w	r3, [r7, #154]	; 0x9a
 800587c:	f403 4380 	and.w	r3, r3, #16384	; 0x4000
 8005880:	2b00      	cmp	r3, #0
 8005882:	d005      	beq.n	8005890 <USB_EPStartXfer+0xebc>
 8005884:	f8b7 309a 	ldrh.w	r3, [r7, #154]	; 0x9a
 8005888:	f003 0340 	and.w	r3, r3, #64	; 0x40
 800588c:	2b00      	cmp	r3, #0
 800588e:	d10d      	bne.n	80058ac <USB_EPStartXfer+0xed8>
 8005890:	f8b7 309a 	ldrh.w	r3, [r7, #154]	; 0x9a
 8005894:	f403 4380 	and.w	r3, r3, #16384	; 0x4000
 8005898:	2b00      	cmp	r3, #0
 800589a:	f040 8187 	bne.w	8005bac <USB_EPStartXfer+0x11d8>
 800589e:	f8b7 309a 	ldrh.w	r3, [r7, #154]	; 0x9a
 80058a2:	f003 0340 	and.w	r3, r3, #64	; 0x40
 80058a6:	2b00      	cmp	r3, #0
 80058a8:	f040 8180 	bne.w	8005bac <USB_EPStartXfer+0x11d8>
 80058ac:	1d3b      	adds	r3, r7, #4
 80058ae:	681a      	ldr	r2, [r3, #0]
 80058b0:	463b      	mov	r3, r7
 80058b2:	681b      	ldr	r3, [r3, #0]
 80058b4:	781b      	ldrb	r3, [r3, #0]
 80058b6:	009b      	lsls	r3, r3, #2
 80058b8:	4413      	add	r3, r2
 80058ba:	881b      	ldrh	r3, [r3, #0]
 80058bc:	b29b      	uxth	r3, r3
 80058be:	f423 43e0 	bic.w	r3, r3, #28672	; 0x7000
 80058c2:	f023 0370 	bic.w	r3, r3, #112	; 0x70
 80058c6:	f8a7 3098 	strh.w	r3, [r7, #152]	; 0x98
 80058ca:	1d3b      	adds	r3, r7, #4
 80058cc:	681a      	ldr	r2, [r3, #0]
 80058ce:	463b      	mov	r3, r7
 80058d0:	681b      	ldr	r3, [r3, #0]
 80058d2:	781b      	ldrb	r3, [r3, #0]
 80058d4:	009b      	lsls	r3, r3, #2
 80058d6:	441a      	add	r2, r3
 80058d8:	f8b7 3098 	ldrh.w	r3, [r7, #152]	; 0x98
 80058dc:	f043 437f 	orr.w	r3, r3, #4278190080	; 0xff000000
 80058e0:	f443 037f 	orr.w	r3, r3, #16711680	; 0xff0000
 80058e4:	f443 4300 	orr.w	r3, r3, #32768	; 0x8000
 80058e8:	f043 03c0 	orr.w	r3, r3, #192	; 0xc0
 80058ec:	b29b      	uxth	r3, r3
 80058ee:	8013      	strh	r3, [r2, #0]
 80058f0:	e15c      	b.n	8005bac <USB_EPStartXfer+0x11d8>
 80058f2:	463b      	mov	r3, r7
 80058f4:	681b      	ldr	r3, [r3, #0]
 80058f6:	78db      	ldrb	r3, [r3, #3]
 80058f8:	2b01      	cmp	r3, #1
 80058fa:	f040 8155 	bne.w	8005ba8 <USB_EPStartXfer+0x11d4>
 80058fe:	463b      	mov	r3, r7
 8005900:	681b      	ldr	r3, [r3, #0]
 8005902:	699a      	ldr	r2, [r3, #24]
 8005904:	463b      	mov	r3, r7
 8005906:	681b      	ldr	r3, [r3, #0]
 8005908:	691b      	ldr	r3, [r3, #16]
 800590a:	429a      	cmp	r2, r3
 800590c:	d90e      	bls.n	800592c <USB_EPStartXfer+0xf58>
 800590e:	463b      	mov	r3, r7
 8005910:	681b      	ldr	r3, [r3, #0]
 8005912:	691b      	ldr	r3, [r3, #16]
 8005914:	f8c7 310c 	str.w	r3, [r7, #268]	; 0x10c
 8005918:	463b      	mov	r3, r7
 800591a:	681b      	ldr	r3, [r3, #0]
 800591c:	699a      	ldr	r2, [r3, #24]
 800591e:	f8d7 310c 	ldr.w	r3, [r7, #268]	; 0x10c
 8005922:	1ad2      	subs	r2, r2, r3
 8005924:	463b      	mov	r3, r7
 8005926:	681b      	ldr	r3, [r3, #0]
 8005928:	619a      	str	r2, [r3, #24]
 800592a:	e008      	b.n	800593e <USB_EPStartXfer+0xf6a>
 800592c:	463b      	mov	r3, r7
 800592e:	681b      	ldr	r3, [r3, #0]
 8005930:	699b      	ldr	r3, [r3, #24]
 8005932:	f8c7 310c 	str.w	r3, [r7, #268]	; 0x10c
 8005936:	463b      	mov	r3, r7
 8005938:	681b      	ldr	r3, [r3, #0]
 800593a:	2200      	movs	r2, #0
 800593c:	619a      	str	r2, [r3, #24]
 800593e:	463b      	mov	r3, r7
 8005940:	681b      	ldr	r3, [r3, #0]
 8005942:	785b      	ldrb	r3, [r3, #1]
 8005944:	2b00      	cmp	r3, #0
 8005946:	d16f      	bne.n	8005a28 <USB_EPStartXfer+0x1054>
 8005948:	1d3b      	adds	r3, r7, #4
 800594a:	681b      	ldr	r3, [r3, #0]
 800594c:	f8c7 30d0 	str.w	r3, [r7, #208]	; 0xd0
 8005950:	1d3b      	adds	r3, r7, #4
 8005952:	681b      	ldr	r3, [r3, #0]
 8005954:	f8b3 3050 	ldrh.w	r3, [r3, #80]	; 0x50
 8005958:	b29b      	uxth	r3, r3
 800595a:	461a      	mov	r2, r3
 800595c:	f8d7 30d0 	ldr.w	r3, [r7, #208]	; 0xd0
 8005960:	4413      	add	r3, r2
 8005962:	f8c7 30d0 	str.w	r3, [r7, #208]	; 0xd0
 8005966:	463b      	mov	r3, r7
 8005968:	681b      	ldr	r3, [r3, #0]
 800596a:	781b      	ldrb	r3, [r3, #0]
 800596c:	011a      	lsls	r2, r3, #4
 800596e:	f8d7 30d0 	ldr.w	r3, [r7, #208]	; 0xd0
 8005972:	4413      	add	r3, r2
 8005974:	f203 4304 	addw	r3, r3, #1028	; 0x404
 8005978:	f8c7 30cc 	str.w	r3, [r7, #204]	; 0xcc
 800597c:	f8d7 310c 	ldr.w	r3, [r7, #268]	; 0x10c
 8005980:	2b00      	cmp	r3, #0
 8005982:	d116      	bne.n	80059b2 <USB_EPStartXfer+0xfde>
 8005984:	f8d7 30cc 	ldr.w	r3, [r7, #204]	; 0xcc
 8005988:	881b      	ldrh	r3, [r3, #0]
 800598a:	b29b      	uxth	r3, r3
 800598c:	f423 43f8 	bic.w	r3, r3, #31744	; 0x7c00
 8005990:	b29a      	uxth	r2, r3
 8005992:	f8d7 30cc 	ldr.w	r3, [r7, #204]	; 0xcc
 8005996:	801a      	strh	r2, [r3, #0]
 8005998:	f8d7 30cc 	ldr.w	r3, [r7, #204]	; 0xcc
 800599c:	881b      	ldrh	r3, [r3, #0]
 800599e:	b29b      	uxth	r3, r3
 80059a0:	ea6f 4343 	mvn.w	r3, r3, lsl #17
 80059a4:	ea6f 4353 	mvn.w	r3, r3, lsr #17
 80059a8:	b29a      	uxth	r2, r3
 80059aa:	f8d7 30cc 	ldr.w	r3, [r7, #204]	; 0xcc
 80059ae:	801a      	strh	r2, [r3, #0]
 80059b0:	e05f      	b.n	8005a72 <USB_EPStartXfer+0x109e>
 80059b2:	f8d7 310c 	ldr.w	r3, [r7, #268]	; 0x10c
 80059b6:	2b3e      	cmp	r3, #62	; 0x3e
 80059b8:	d818      	bhi.n	80059ec <USB_EPStartXfer+0x1018>
 80059ba:	f8d7 310c 	ldr.w	r3, [r7, #268]	; 0x10c
 80059be:	085b      	lsrs	r3, r3, #1
 80059c0:	f8c7 30e0 	str.w	r3, [r7, #224]	; 0xe0
 80059c4:	f8d7 310c 	ldr.w	r3, [r7, #268]	; 0x10c
 80059c8:	f003 0301 	and.w	r3, r3, #1
 80059cc:	2b00      	cmp	r3, #0
 80059ce:	d004      	beq.n	80059da <USB_EPStartXfer+0x1006>
 80059d0:	f8d7 30e0 	ldr.w	r3, [r7, #224]	; 0xe0
 80059d4:	3301      	adds	r3, #1
 80059d6:	f8c7 30e0 	str.w	r3, [r7, #224]	; 0xe0
 80059da:	f8d7 30e0 	ldr.w	r3, [r7, #224]	; 0xe0
 80059de:	b29b      	uxth	r3, r3
 80059e0:	029b      	lsls	r3, r3, #10
 80059e2:	b29a      	uxth	r2, r3
 80059e4:	f8d7 30cc 	ldr.w	r3, [r7, #204]	; 0xcc
 80059e8:	801a      	strh	r2, [r3, #0]
 80059ea:	e042      	b.n	8005a72 <USB_EPStartXfer+0x109e>
 80059ec:	f8d7 310c 	ldr.w	r3, [r7, #268]	; 0x10c
 80059f0:	095b      	lsrs	r3, r3, #5
 80059f2:	f8c7 30e0 	str.w	r3, [r7, #224]	; 0xe0
 80059f6:	f8d7 310c 	ldr.w	r3, [r7, #268]	; 0x10c
 80059fa:	f003 031f 	and.w	r3, r3, #31
 80059fe:	2b00      	cmp	r3, #0
 8005a00:	d104      	bne.n	8005a0c <USB_EPStartXfer+0x1038>
 8005a02:	f8d7 30e0 	ldr.w	r3, [r7, #224]	; 0xe0
 8005a06:	3b01      	subs	r3, #1
 8005a08:	f8c7 30e0 	str.w	r3, [r7, #224]	; 0xe0
 8005a0c:	f8d7 30e0 	ldr.w	r3, [r7, #224]	; 0xe0
 8005a10:	b29b      	uxth	r3, r3
 8005a12:	029b      	lsls	r3, r3, #10
 8005a14:	b29b      	uxth	r3, r3
 8005a16:	ea6f 4343 	mvn.w	r3, r3, lsl #17
 8005a1a:	ea6f 4353 	mvn.w	r3, r3, lsr #17
 8005a1e:	b29a      	uxth	r2, r3
 8005a20:	f8d7 30cc 	ldr.w	r3, [r7, #204]	; 0xcc
 8005a24:	801a      	strh	r2, [r3, #0]
 8005a26:	e024      	b.n	8005a72 <USB_EPStartXfer+0x109e>
 8005a28:	463b      	mov	r3, r7
 8005a2a:	681b      	ldr	r3, [r3, #0]
 8005a2c:	785b      	ldrb	r3, [r3, #1]
 8005a2e:	2b01      	cmp	r3, #1
 8005a30:	d11f      	bne.n	8005a72 <USB_EPStartXfer+0x109e>
 8005a32:	1d3b      	adds	r3, r7, #4
 8005a34:	681b      	ldr	r3, [r3, #0]
 8005a36:	f8c7 30d8 	str.w	r3, [r7, #216]	; 0xd8
 8005a3a:	1d3b      	adds	r3, r7, #4
 8005a3c:	681b      	ldr	r3, [r3, #0]
 8005a3e:	f8b3 3050 	ldrh.w	r3, [r3, #80]	; 0x50
 8005a42:	b29b      	uxth	r3, r3
 8005a44:	461a      	mov	r2, r3
 8005a46:	f8d7 30d8 	ldr.w	r3, [r7, #216]	; 0xd8
 8005a4a:	4413      	add	r3, r2
 8005a4c:	f8c7 30d8 	str.w	r3, [r7, #216]	; 0xd8
 8005a50:	463b      	mov	r3, r7
 8005a52:	681b      	ldr	r3, [r3, #0]
 8005a54:	781b      	ldrb	r3, [r3, #0]
 8005a56:	011a      	lsls	r2, r3, #4
 8005a58:	f8d7 30d8 	ldr.w	r3, [r7, #216]	; 0xd8
 8005a5c:	4413      	add	r3, r2
 8005a5e:	f203 4304 	addw	r3, r3, #1028	; 0x404
 8005a62:	f8c7 30d4 	str.w	r3, [r7, #212]	; 0xd4
 8005a66:	f8d7 310c 	ldr.w	r3, [r7, #268]	; 0x10c
 8005a6a:	b29a      	uxth	r2, r3
 8005a6c:	f8d7 30d4 	ldr.w	r3, [r7, #212]	; 0xd4
 8005a70:	801a      	strh	r2, [r3, #0]
 8005a72:	1d3b      	adds	r3, r7, #4
 8005a74:	681b      	ldr	r3, [r3, #0]
 8005a76:	f8c7 30c8 	str.w	r3, [r7, #200]	; 0xc8
 8005a7a:	463b      	mov	r3, r7
 8005a7c:	681b      	ldr	r3, [r3, #0]
 8005a7e:	785b      	ldrb	r3, [r3, #1]
 8005a80:	2b00      	cmp	r3, #0
 8005a82:	d16f      	bne.n	8005b64 <USB_EPStartXfer+0x1190>
 8005a84:	1d3b      	adds	r3, r7, #4
 8005a86:	681b      	ldr	r3, [r3, #0]
 8005a88:	f8c7 30c0 	str.w	r3, [r7, #192]	; 0xc0
 8005a8c:	1d3b      	adds	r3, r7, #4
 8005a8e:	681b      	ldr	r3, [r3, #0]
 8005a90:	f8b3 3050 	ldrh.w	r3, [r3, #80]	; 0x50
 8005a94:	b29b      	uxth	r3, r3
 8005a96:	461a      	mov	r2, r3
 8005a98:	f8d7 30c0 	ldr.w	r3, [r7, #192]	; 0xc0
 8005a9c:	4413      	add	r3, r2
 8005a9e:	f8c7 30c0 	str.w	r3, [r7, #192]	; 0xc0
 8005aa2:	463b      	mov	r3, r7
 8005aa4:	681b      	ldr	r3, [r3, #0]
 8005aa6:	781b      	ldrb	r3, [r3, #0]
 8005aa8:	011a      	lsls	r2, r3, #4
 8005aaa:	f8d7 30c0 	ldr.w	r3, [r7, #192]	; 0xc0
 8005aae:	4413      	add	r3, r2
 8005ab0:	f203 430c 	addw	r3, r3, #1036	; 0x40c
 8005ab4:	f8c7 30bc 	str.w	r3, [r7, #188]	; 0xbc
 8005ab8:	f8d7 310c 	ldr.w	r3, [r7, #268]	; 0x10c
 8005abc:	2b00      	cmp	r3, #0
 8005abe:	d116      	bne.n	8005aee <USB_EPStartXfer+0x111a>
 8005ac0:	f8d7 30bc 	ldr.w	r3, [r7, #188]	; 0xbc
 8005ac4:	881b      	ldrh	r3, [r3, #0]
 8005ac6:	b29b      	uxth	r3, r3
 8005ac8:	f423 43f8 	bic.w	r3, r3, #31744	; 0x7c00
 8005acc:	b29a      	uxth	r2, r3
 8005ace:	f8d7 30bc 	ldr.w	r3, [r7, #188]	; 0xbc
 8005ad2:	801a      	strh	r2, [r3, #0]
 8005ad4:	f8d7 30bc 	ldr.w	r3, [r7, #188]	; 0xbc
 8005ad8:	881b      	ldrh	r3, [r3, #0]
 8005ada:	b29b      	uxth	r3, r3
 8005adc:	ea6f 4343 	mvn.w	r3, r3, lsl #17
 8005ae0:	ea6f 4353 	mvn.w	r3, r3, lsr #17
 8005ae4:	b29a      	uxth	r2, r3
 8005ae6:	f8d7 30bc 	ldr.w	r3, [r7, #188]	; 0xbc
 8005aea:	801a      	strh	r2, [r3, #0]
 8005aec:	e05e      	b.n	8005bac <USB_EPStartXfer+0x11d8>
 8005aee:	f8d7 310c 	ldr.w	r3, [r7, #268]	; 0x10c
 8005af2:	2b3e      	cmp	r3, #62	; 0x3e
 8005af4:	d818      	bhi.n	8005b28 <USB_EPStartXfer+0x1154>
 8005af6:	f8d7 310c 	ldr.w	r3, [r7, #268]	; 0x10c
 8005afa:	085b      	lsrs	r3, r3, #1
 8005afc:	f8c7 30dc 	str.w	r3, [r7, #220]	; 0xdc
 8005b00:	f8d7 310c 	ldr.w	r3, [r7, #268]	; 0x10c
 8005b04:	f003 0301 	and.w	r3, r3, #1
 8005b08:	2b00      	cmp	r3, #0
 8005b0a:	d004      	beq.n	8005b16 <USB_EPStartXfer+0x1142>
 8005b0c:	f8d7 30dc 	ldr.w	r3, [r7, #220]	; 0xdc
 8005b10:	3301      	adds	r3, #1
 8005b12:	f8c7 30dc 	str.w	r3, [r7, #220]	; 0xdc
 8005b16:	f8d7 30dc 	ldr.w	r3, [r7, #220]	; 0xdc
 8005b1a:	b29b      	uxth	r3, r3
 8005b1c:	029b      	lsls	r3, r3, #10
 8005b1e:	b29a      	uxth	r2, r3
 8005b20:	f8d7 30bc 	ldr.w	r3, [r7, #188]	; 0xbc
 8005b24:	801a      	strh	r2, [r3, #0]
 8005b26:	e041      	b.n	8005bac <USB_EPStartXfer+0x11d8>
 8005b28:	f8d7 310c 	ldr.w	r3, [r7, #268]	; 0x10c
 8005b2c:	095b      	lsrs	r3, r3, #5
 8005b2e:	f8c7 30dc 	str.w	r3, [r7, #220]	; 0xdc
 8005b32:	f8d7 310c 	ldr.w	r3, [r7, #268]	; 0x10c
 8005b36:	f003 031f 	and.w	r3, r3, #31
 8005b3a:	2b00      	cmp	r3, #0
 8005b3c:	d104      	bne.n	8005b48 <USB_EPStartXfer+0x1174>
 8005b3e:	f8d7 30dc 	ldr.w	r3, [r7, #220]	; 0xdc
 8005b42:	3b01      	subs	r3, #1
 8005b44:	f8c7 30dc 	str.w	r3, [r7, #220]	; 0xdc
 8005b48:	f8d7 30dc 	ldr.w	r3, [r7, #220]	; 0xdc
 8005b4c:	b29b      	uxth	r3, r3
 8005b4e:	029b      	lsls	r3, r3, #10
 8005b50:	b29b      	uxth	r3, r3
 8005b52:	ea6f 4343 	mvn.w	r3, r3, lsl #17
 8005b56:	ea6f 4353 	mvn.w	r3, r3, lsr #17
 8005b5a:	b29a      	uxth	r2, r3
 8005b5c:	f8d7 30bc 	ldr.w	r3, [r7, #188]	; 0xbc
 8005b60:	801a      	strh	r2, [r3, #0]
 8005b62:	e023      	b.n	8005bac <USB_EPStartXfer+0x11d8>
 8005b64:	463b      	mov	r3, r7
 8005b66:	681b      	ldr	r3, [r3, #0]
 8005b68:	785b      	ldrb	r3, [r3, #1]
 8005b6a:	2b01      	cmp	r3, #1
 8005b6c:	d11e      	bne.n	8005bac <USB_EPStartXfer+0x11d8>
 8005b6e:	1d3b      	adds	r3, r7, #4
 8005b70:	681b      	ldr	r3, [r3, #0]
 8005b72:	f8b3 3050 	ldrh.w	r3, [r3, #80]	; 0x50
 8005b76:	b29b      	uxth	r3, r3
 8005b78:	461a      	mov	r2, r3
 8005b7a:	f8d7 30c8 	ldr.w	r3, [r7, #200]	; 0xc8
 8005b7e:	4413      	add	r3, r2
 8005b80:	f8c7 30c8 	str.w	r3, [r7, #200]	; 0xc8
 8005b84:	463b      	mov	r3, r7
 8005b86:	681b      	ldr	r3, [r3, #0]
 8005b88:	781b      	ldrb	r3, [r3, #0]
 8005b8a:	011a      	lsls	r2, r3, #4
 8005b8c:	f8d7 30c8 	ldr.w	r3, [r7, #200]	; 0xc8
 8005b90:	4413      	add	r3, r2
 8005b92:	f203 430c 	addw	r3, r3, #1036	; 0x40c
 8005b96:	f8c7 30c4 	str.w	r3, [r7, #196]	; 0xc4
 8005b9a:	f8d7 310c 	ldr.w	r3, [r7, #268]	; 0x10c
 8005b9e:	b29a      	uxth	r2, r3
 8005ba0:	f8d7 30c4 	ldr.w	r3, [r7, #196]	; 0xc4
 8005ba4:	801a      	strh	r2, [r3, #0]
 8005ba6:	e001      	b.n	8005bac <USB_EPStartXfer+0x11d8>
 8005ba8:	2301      	movs	r3, #1
 8005baa:	e02e      	b.n	8005c0a <USB_EPStartXfer+0x1236>
 8005bac:	1d3b      	adds	r3, r7, #4
 8005bae:	681a      	ldr	r2, [r3, #0]
 8005bb0:	463b      	mov	r3, r7
 8005bb2:	681b      	ldr	r3, [r3, #0]
 8005bb4:	781b      	ldrb	r3, [r3, #0]
 8005bb6:	009b      	lsls	r3, r3, #2
 8005bb8:	4413      	add	r3, r2
 8005bba:	881b      	ldrh	r3, [r3, #0]
 8005bbc:	b29b      	uxth	r3, r3
 8005bbe:	f423 4380 	bic.w	r3, r3, #16384	; 0x4000
 8005bc2:	f023 0370 	bic.w	r3, r3, #112	; 0x70
 8005bc6:	f8a7 308e 	strh.w	r3, [r7, #142]	; 0x8e
 8005bca:	f8b7 308e 	ldrh.w	r3, [r7, #142]	; 0x8e
 8005bce:	f483 5380 	eor.w	r3, r3, #4096	; 0x1000
 8005bd2:	f8a7 308e 	strh.w	r3, [r7, #142]	; 0x8e
 8005bd6:	f8b7 308e 	ldrh.w	r3, [r7, #142]	; 0x8e
 8005bda:	f483 5300 	eor.w	r3, r3, #8192	; 0x2000
 8005bde:	f8a7 308e 	strh.w	r3, [r7, #142]	; 0x8e
 8005be2:	1d3b      	adds	r3, r7, #4
 8005be4:	681a      	ldr	r2, [r3, #0]
 8005be6:	463b      	mov	r3, r7
 8005be8:	681b      	ldr	r3, [r3, #0]
 8005bea:	781b      	ldrb	r3, [r3, #0]
 8005bec:	009b      	lsls	r3, r3, #2
 8005bee:	441a      	add	r2, r3
 8005bf0:	f8b7 308e 	ldrh.w	r3, [r7, #142]	; 0x8e
 8005bf4:	f043 437f 	orr.w	r3, r3, #4278190080	; 0xff000000
 8005bf8:	f443 037f 	orr.w	r3, r3, #16711680	; 0xff0000
 8005bfc:	f443 4300 	orr.w	r3, r3, #32768	; 0x8000
 8005c00:	f043 0380 	orr.w	r3, r3, #128	; 0x80
 8005c04:	b29b      	uxth	r3, r3
 8005c06:	8013      	strh	r3, [r2, #0]
 8005c08:	2300      	movs	r3, #0
 8005c0a:	4618      	mov	r0, r3
 8005c0c:	f507 7788 	add.w	r7, r7, #272	; 0x110
 8005c10:	46bd      	mov	sp, r7
 8005c12:	bd80      	pop	{r7, pc}

08005c14 <USB_EPSetStall>:
 8005c14:	b480      	push	{r7}
 8005c16:	b085      	sub	sp, #20
 8005c18:	af00      	add	r7, sp, #0
 8005c1a:	6078      	str	r0, [r7, #4]
 8005c1c:	6039      	str	r1, [r7, #0]
 8005c1e:	683b      	ldr	r3, [r7, #0]
 8005c20:	785b      	ldrb	r3, [r3, #1]
 8005c22:	2b00      	cmp	r3, #0
 8005c24:	d020      	beq.n	8005c68 <USB_EPSetStall+0x54>
 8005c26:	687a      	ldr	r2, [r7, #4]
 8005c28:	683b      	ldr	r3, [r7, #0]
 8005c2a:	781b      	ldrb	r3, [r3, #0]
 8005c2c:	009b      	lsls	r3, r3, #2
 8005c2e:	4413      	add	r3, r2
 8005c30:	881b      	ldrh	r3, [r3, #0]
 8005c32:	b29b      	uxth	r3, r3
 8005c34:	f423 43e0 	bic.w	r3, r3, #28672	; 0x7000
 8005c38:	f023 0340 	bic.w	r3, r3, #64	; 0x40
 8005c3c:	81bb      	strh	r3, [r7, #12]
 8005c3e:	89bb      	ldrh	r3, [r7, #12]
 8005c40:	f083 0310 	eor.w	r3, r3, #16
 8005c44:	81bb      	strh	r3, [r7, #12]
 8005c46:	687a      	ldr	r2, [r7, #4]
 8005c48:	683b      	ldr	r3, [r7, #0]
 8005c4a:	781b      	ldrb	r3, [r3, #0]
 8005c4c:	009b      	lsls	r3, r3, #2
 8005c4e:	441a      	add	r2, r3
 8005c50:	89bb      	ldrh	r3, [r7, #12]
 8005c52:	f043 437f 	orr.w	r3, r3, #4278190080	; 0xff000000
 8005c56:	f443 037f 	orr.w	r3, r3, #16711680	; 0xff0000
 8005c5a:	f443 4300 	orr.w	r3, r3, #32768	; 0x8000
 8005c5e:	f043 0380 	orr.w	r3, r3, #128	; 0x80
 8005c62:	b29b      	uxth	r3, r3
 8005c64:	8013      	strh	r3, [r2, #0]
 8005c66:	e01f      	b.n	8005ca8 <USB_EPSetStall+0x94>
 8005c68:	687a      	ldr	r2, [r7, #4]
 8005c6a:	683b      	ldr	r3, [r7, #0]
 8005c6c:	781b      	ldrb	r3, [r3, #0]
 8005c6e:	009b      	lsls	r3, r3, #2
 8005c70:	4413      	add	r3, r2
 8005c72:	881b      	ldrh	r3, [r3, #0]
 8005c74:	b29b      	uxth	r3, r3
 8005c76:	f423 4380 	bic.w	r3, r3, #16384	; 0x4000
 8005c7a:	f023 0370 	bic.w	r3, r3, #112	; 0x70
 8005c7e:	81fb      	strh	r3, [r7, #14]
 8005c80:	89fb      	ldrh	r3, [r7, #14]
 8005c82:	f483 5380 	eor.w	r3, r3, #4096	; 0x1000
 8005c86:	81fb      	strh	r3, [r7, #14]
 8005c88:	687a      	ldr	r2, [r7, #4]
 8005c8a:	683b      	ldr	r3, [r7, #0]
 8005c8c:	781b      	ldrb	r3, [r3, #0]
 8005c8e:	009b      	lsls	r3, r3, #2
 8005c90:	441a      	add	r2, r3
 8005c92:	89fb      	ldrh	r3, [r7, #14]
 8005c94:	f043 437f 	orr.w	r3, r3, #4278190080	; 0xff000000
 8005c98:	f443 037f 	orr.w	r3, r3, #16711680	; 0xff0000
 8005c9c:	f443 4300 	orr.w	r3, r3, #32768	; 0x8000
 8005ca0:	f043 0380 	orr.w	r3, r3, #128	; 0x80
 8005ca4:	b29b      	uxth	r3, r3
 8005ca6:	8013      	strh	r3, [r2, #0]
 8005ca8:	2300      	movs	r3, #0
 8005caa:	4618      	mov	r0, r3
 8005cac:	3714      	adds	r7, #20
 8005cae:	46bd      	mov	sp, r7
 8005cb0:	bc80      	pop	{r7}
 8005cb2:	4770      	bx	lr

08005cb4 <USB_EPClearStall>:
 8005cb4:	b480      	push	{r7}
 8005cb6:	b087      	sub	sp, #28
 8005cb8:	af00      	add	r7, sp, #0
 8005cba:	6078      	str	r0, [r7, #4]
 8005cbc:	6039      	str	r1, [r7, #0]
 8005cbe:	683b      	ldr	r3, [r7, #0]
 8005cc0:	7b1b      	ldrb	r3, [r3, #12]
 8005cc2:	2b00      	cmp	r3, #0
 8005cc4:	f040 809d 	bne.w	8005e02 <USB_EPClearStall+0x14e>
 8005cc8:	683b      	ldr	r3, [r7, #0]
 8005cca:	785b      	ldrb	r3, [r3, #1]
 8005ccc:	2b00      	cmp	r3, #0
 8005cce:	d04c      	beq.n	8005d6a <USB_EPClearStall+0xb6>
 8005cd0:	687a      	ldr	r2, [r7, #4]
 8005cd2:	683b      	ldr	r3, [r7, #0]
 8005cd4:	781b      	ldrb	r3, [r3, #0]
 8005cd6:	009b      	lsls	r3, r3, #2
 8005cd8:	4413      	add	r3, r2
 8005cda:	881b      	ldrh	r3, [r3, #0]
 8005cdc:	823b      	strh	r3, [r7, #16]
 8005cde:	8a3b      	ldrh	r3, [r7, #16]
 8005ce0:	f003 0340 	and.w	r3, r3, #64	; 0x40
 8005ce4:	2b00      	cmp	r3, #0
 8005ce6:	d01b      	beq.n	8005d20 <USB_EPClearStall+0x6c>
 8005ce8:	687a      	ldr	r2, [r7, #4]
 8005cea:	683b      	ldr	r3, [r7, #0]
 8005cec:	781b      	ldrb	r3, [r3, #0]
 8005cee:	009b      	lsls	r3, r3, #2
 8005cf0:	4413      	add	r3, r2
 8005cf2:	881b      	ldrh	r3, [r3, #0]
 8005cf4:	b29b      	uxth	r3, r3
 8005cf6:	f423 43e0 	bic.w	r3, r3, #28672	; 0x7000
 8005cfa:	f023 0370 	bic.w	r3, r3, #112	; 0x70
 8005cfe:	81fb      	strh	r3, [r7, #14]
 8005d00:	687a      	ldr	r2, [r7, #4]
 8005d02:	683b      	ldr	r3, [r7, #0]
 8005d04:	781b      	ldrb	r3, [r3, #0]
 8005d06:	009b      	lsls	r3, r3, #2
 8005d08:	441a      	add	r2, r3
 8005d0a:	89fb      	ldrh	r3, [r7, #14]
 8005d0c:	f043 437f 	orr.w	r3, r3, #4278190080	; 0xff000000
 8005d10:	f443 037f 	orr.w	r3, r3, #16711680	; 0xff0000
 8005d14:	f443 4300 	orr.w	r3, r3, #32768	; 0x8000
 8005d18:	f043 03c0 	orr.w	r3, r3, #192	; 0xc0
 8005d1c:	b29b      	uxth	r3, r3
 8005d1e:	8013      	strh	r3, [r2, #0]
 8005d20:	683b      	ldr	r3, [r7, #0]
 8005d22:	78db      	ldrb	r3, [r3, #3]
 8005d24:	2b01      	cmp	r3, #1
 8005d26:	d06c      	beq.n	8005e02 <USB_EPClearStall+0x14e>
 8005d28:	687a      	ldr	r2, [r7, #4]
 8005d2a:	683b      	ldr	r3, [r7, #0]
 8005d2c:	781b      	ldrb	r3, [r3, #0]
 8005d2e:	009b      	lsls	r3, r3, #2
 8005d30:	4413      	add	r3, r2
 8005d32:	881b      	ldrh	r3, [r3, #0]
 8005d34:	b29b      	uxth	r3, r3
 8005d36:	f423 43e0 	bic.w	r3, r3, #28672	; 0x7000
 8005d3a:	f023 0340 	bic.w	r3, r3, #64	; 0x40
 8005d3e:	81bb      	strh	r3, [r7, #12]
 8005d40:	89bb      	ldrh	r3, [r7, #12]
 8005d42:	f083 0320 	eor.w	r3, r3, #32
 8005d46:	81bb      	strh	r3, [r7, #12]
 8005d48:	687a      	ldr	r2, [r7, #4]
 8005d4a:	683b      	ldr	r3, [r7, #0]
 8005d4c:	781b      	ldrb	r3, [r3, #0]
 8005d4e:	009b      	lsls	r3, r3, #2
 8005d50:	441a      	add	r2, r3
 8005d52:	89bb      	ldrh	r3, [r7, #12]
 8005d54:	f043 437f 	orr.w	r3, r3, #4278190080	; 0xff000000
 8005d58:	f443 037f 	orr.w	r3, r3, #16711680	; 0xff0000
 8005d5c:	f443 4300 	orr.w	r3, r3, #32768	; 0x8000
 8005d60:	f043 0380 	orr.w	r3, r3, #128	; 0x80
 8005d64:	b29b      	uxth	r3, r3
 8005d66:	8013      	strh	r3, [r2, #0]
 8005d68:	e04b      	b.n	8005e02 <USB_EPClearStall+0x14e>
 8005d6a:	687a      	ldr	r2, [r7, #4]
 8005d6c:	683b      	ldr	r3, [r7, #0]
 8005d6e:	781b      	ldrb	r3, [r3, #0]
 8005d70:	009b      	lsls	r3, r3, #2
 8005d72:	4413      	add	r3, r2
 8005d74:	881b      	ldrh	r3, [r3, #0]
 8005d76:	82fb      	strh	r3, [r7, #22]
 8005d78:	8afb      	ldrh	r3, [r7, #22]
 8005d7a:	f403 4380 	and.w	r3, r3, #16384	; 0x4000
 8005d7e:	2b00      	cmp	r3, #0
 8005d80:	d01b      	beq.n	8005dba <USB_EPClearStall+0x106>
 8005d82:	687a      	ldr	r2, [r7, #4]
 8005d84:	683b      	ldr	r3, [r7, #0]
 8005d86:	781b      	ldrb	r3, [r3, #0]
 8005d88:	009b      	lsls	r3, r3, #2
 8005d8a:	4413      	add	r3, r2
 8005d8c:	881b      	ldrh	r3, [r3, #0]
 8005d8e:	b29b      	uxth	r3, r3
 8005d90:	f423 43e0 	bic.w	r3, r3, #28672	; 0x7000
 8005d94:	f023 0370 	bic.w	r3, r3, #112	; 0x70
 8005d98:	82bb      	strh	r3, [r7, #20]
 8005d9a:	687a      	ldr	r2, [r7, #4]
 8005d9c:	683b      	ldr	r3, [r7, #0]
 8005d9e:	781b      	ldrb	r3, [r3, #0]
 8005da0:	009b      	lsls	r3, r3, #2
 8005da2:	441a      	add	r2, r3
 8005da4:	8abb      	ldrh	r3, [r7, #20]
 8005da6:	f043 437f 	orr.w	r3, r3, #4278190080	; 0xff000000
 8005daa:	f443 037f 	orr.w	r3, r3, #16711680	; 0xff0000
 8005dae:	f443 4340 	orr.w	r3, r3, #49152	; 0xc000
 8005db2:	f043 0380 	orr.w	r3, r3, #128	; 0x80
 8005db6:	b29b      	uxth	r3, r3
 8005db8:	8013      	strh	r3, [r2, #0]
 8005dba:	687a      	ldr	r2, [r7, #4]
 8005dbc:	683b      	ldr	r3, [r7, #0]
 8005dbe:	781b      	ldrb	r3, [r3, #0]
 8005dc0:	009b      	lsls	r3, r3, #2
 8005dc2:	4413      	add	r3, r2
 8005dc4:	881b      	ldrh	r3, [r3, #0]
 8005dc6:	b29b      	uxth	r3, r3
 8005dc8:	f423 4380 	bic.w	r3, r3, #16384	; 0x4000
 8005dcc:	f023 0370 	bic.w	r3, r3, #112	; 0x70
 8005dd0:	827b      	strh	r3, [r7, #18]
 8005dd2:	8a7b      	ldrh	r3, [r7, #18]
 8005dd4:	f483 5380 	eor.w	r3, r3, #4096	; 0x1000
 8005dd8:	827b      	strh	r3, [r7, #18]
 8005dda:	8a7b      	ldrh	r3, [r7, #18]
 8005ddc:	f483 5300 	eor.w	r3, r3, #8192	; 0x2000
 8005de0:	827b      	strh	r3, [r7, #18]
 8005de2:	687a      	ldr	r2, [r7, #4]
 8005de4:	683b      	ldr	r3, [r7, #0]
 8005de6:	781b      	ldrb	r3, [r3, #0]
 8005de8:	009b      	lsls	r3, r3, #2
 8005dea:	441a      	add	r2, r3
 8005dec:	8a7b      	ldrh	r3, [r7, #18]
 8005dee:	f043 437f 	orr.w	r3, r3, #4278190080	; 0xff000000
 8005df2:	f443 037f 	orr.w	r3, r3, #16711680	; 0xff0000
 8005df6:	f443 4300 	orr.w	r3, r3, #32768	; 0x8000
 8005dfa:	f043 0380 	orr.w	r3, r3, #128	; 0x80
 8005dfe:	b29b      	uxth	r3, r3
 8005e00:	8013      	strh	r3, [r2, #0]
 8005e02:	2300      	movs	r3, #0
 8005e04:	4618      	mov	r0, r3
 8005e06:	371c      	adds	r7, #28
 8005e08:	46bd      	mov	sp, r7
 8005e0a:	bc80      	pop	{r7}
 8005e0c:	4770      	bx	lr

08005e0e <USB_SetDevAddress>:
 8005e0e:	b480      	push	{r7}
 8005e10:	b083      	sub	sp, #12
 8005e12:	af00      	add	r7, sp, #0
 8005e14:	6078      	str	r0, [r7, #4]
 8005e16:	460b      	mov	r3, r1
 8005e18:	70fb      	strb	r3, [r7, #3]
 8005e1a:	78fb      	ldrb	r3, [r7, #3]
 8005e1c:	2b00      	cmp	r3, #0
 8005e1e:	d103      	bne.n	8005e28 <USB_SetDevAddress+0x1a>
 8005e20:	687b      	ldr	r3, [r7, #4]
 8005e22:	2280      	movs	r2, #128	; 0x80
 8005e24:	f8a3 204c 	strh.w	r2, [r3, #76]	; 0x4c
 8005e28:	2300      	movs	r3, #0
 8005e2a:	4618      	mov	r0, r3
 8005e2c:	370c      	adds	r7, #12
 8005e2e:	46bd      	mov	sp, r7
 8005e30:	bc80      	pop	{r7}
 8005e32:	4770      	bx	lr

08005e34 <USB_DevConnect>:
 8005e34:	b480      	push	{r7}
 8005e36:	b083      	sub	sp, #12
 8005e38:	af00      	add	r7, sp, #0
 8005e3a:	6078      	str	r0, [r7, #4]
 8005e3c:	2300      	movs	r3, #0
 8005e3e:	4618      	mov	r0, r3
 8005e40:	370c      	adds	r7, #12
 8005e42:	46bd      	mov	sp, r7
 8005e44:	bc80      	pop	{r7}
 8005e46:	4770      	bx	lr

08005e48 <USB_DevDisconnect>:
 8005e48:	b480      	push	{r7}
 8005e4a:	b083      	sub	sp, #12
 8005e4c:	af00      	add	r7, sp, #0
 8005e4e:	6078      	str	r0, [r7, #4]
 8005e50:	2300      	movs	r3, #0
 8005e52:	4618      	mov	r0, r3
 8005e54:	370c      	adds	r7, #12
 8005e56:	46bd      	mov	sp, r7
 8005e58:	bc80      	pop	{r7}
 8005e5a:	4770      	bx	lr

08005e5c <USB_ReadInterrupts>:
 8005e5c:	b480      	push	{r7}
 8005e5e:	b085      	sub	sp, #20
 8005e60:	af00      	add	r7, sp, #0
 8005e62:	6078      	str	r0, [r7, #4]
 8005e64:	687b      	ldr	r3, [r7, #4]
 8005e66:	f8b3 3044 	ldrh.w	r3, [r3, #68]	; 0x44
 8005e6a:	b29b      	uxth	r3, r3
 8005e6c:	60fb      	str	r3, [r7, #12]
 8005e6e:	68fb      	ldr	r3, [r7, #12]
 8005e70:	4618      	mov	r0, r3
 8005e72:	3714      	adds	r7, #20
 8005e74:	46bd      	mov	sp, r7
 8005e76:	bc80      	pop	{r7}
 8005e78:	4770      	bx	lr

08005e7a <USB_EP0_OutStart>:
 8005e7a:	b480      	push	{r7}
 8005e7c:	b083      	sub	sp, #12
 8005e7e:	af00      	add	r7, sp, #0
 8005e80:	6078      	str	r0, [r7, #4]
 8005e82:	6039      	str	r1, [r7, #0]
 8005e84:	2300      	movs	r3, #0
 8005e86:	4618      	mov	r0, r3
 8005e88:	370c      	adds	r7, #12
 8005e8a:	46bd      	mov	sp, r7
 8005e8c:	bc80      	pop	{r7}
 8005e8e:	4770      	bx	lr

08005e90 <USB_WritePMA>:
 8005e90:	b480      	push	{r7}
 8005e92:	b08d      	sub	sp, #52	; 0x34
 8005e94:	af00      	add	r7, sp, #0
 8005e96:	60f8      	str	r0, [r7, #12]
 8005e98:	60b9      	str	r1, [r7, #8]
 8005e9a:	4611      	mov	r1, r2
 8005e9c:	461a      	mov	r2, r3
 8005e9e:	460b      	mov	r3, r1
 8005ea0:	80fb      	strh	r3, [r7, #6]
 8005ea2:	4613      	mov	r3, r2
 8005ea4:	80bb      	strh	r3, [r7, #4]
 8005ea6:	88bb      	ldrh	r3, [r7, #4]
 8005ea8:	3301      	adds	r3, #1
 8005eaa:	085b      	lsrs	r3, r3, #1
 8005eac:	623b      	str	r3, [r7, #32]
 8005eae:	68fb      	ldr	r3, [r7, #12]
 8005eb0:	61fb      	str	r3, [r7, #28]
 8005eb2:	68bb      	ldr	r3, [r7, #8]
 8005eb4:	627b      	str	r3, [r7, #36]	; 0x24
 8005eb6:	88fb      	ldrh	r3, [r7, #6]
 8005eb8:	005a      	lsls	r2, r3, #1
 8005eba:	69fb      	ldr	r3, [r7, #28]
 8005ebc:	4413      	add	r3, r2
 8005ebe:	f503 6380 	add.w	r3, r3, #1024	; 0x400
 8005ec2:	62bb      	str	r3, [r7, #40]	; 0x28
 8005ec4:	6a3b      	ldr	r3, [r7, #32]
 8005ec6:	62fb      	str	r3, [r7, #44]	; 0x2c
 8005ec8:	e01e      	b.n	8005f08 <USB_WritePMA+0x78>
 8005eca:	6a7b      	ldr	r3, [r7, #36]	; 0x24
 8005ecc:	781b      	ldrb	r3, [r3, #0]
 8005ece:	61bb      	str	r3, [r7, #24]
 8005ed0:	6a7b      	ldr	r3, [r7, #36]	; 0x24
 8005ed2:	3301      	adds	r3, #1
 8005ed4:	627b      	str	r3, [r7, #36]	; 0x24
 8005ed6:	6a7b      	ldr	r3, [r7, #36]	; 0x24
 8005ed8:	781b      	ldrb	r3, [r3, #0]
 8005eda:	b29b      	uxth	r3, r3
 8005edc:	021b      	lsls	r3, r3, #8
 8005ede:	b29b      	uxth	r3, r3
 8005ee0:	461a      	mov	r2, r3
 8005ee2:	69bb      	ldr	r3, [r7, #24]
 8005ee4:	4313      	orrs	r3, r2
 8005ee6:	617b      	str	r3, [r7, #20]
 8005ee8:	697b      	ldr	r3, [r7, #20]
 8005eea:	b29a      	uxth	r2, r3
 8005eec:	6abb      	ldr	r3, [r7, #40]	; 0x28
 8005eee:	801a      	strh	r2, [r3, #0]
 8005ef0:	6abb      	ldr	r3, [r7, #40]	; 0x28
 8005ef2:	3302      	adds	r3, #2
 8005ef4:	62bb      	str	r3, [r7, #40]	; 0x28
 8005ef6:	6abb      	ldr	r3, [r7, #40]	; 0x28
 8005ef8:	3302      	adds	r3, #2
 8005efa:	62bb      	str	r3, [r7, #40]	; 0x28
 8005efc:	6a7b      	ldr	r3, [r7, #36]	; 0x24
 8005efe:	3301      	adds	r3, #1
 8005f00:	627b      	str	r3, [r7, #36]	; 0x24
 8005f02:	6afb      	ldr	r3, [r7, #44]	; 0x2c
 8005f04:	3b01      	subs	r3, #1
 8005f06:	62fb      	str	r3, [r7, #44]	; 0x2c
 8005f08:	6afb      	ldr	r3, [r7, #44]	; 0x2c
 8005f0a:	2b00      	cmp	r3, #0
 8005f0c:	d1dd      	bne.n	8005eca <USB_WritePMA+0x3a>
 8005f0e:	bf00      	nop
 8005f10:	3734      	adds	r7, #52	; 0x34
 8005f12:	46bd      	mov	sp, r7
 8005f14:	bc80      	pop	{r7}
 8005f16:	4770      	bx	lr

08005f18 <USB_ReadPMA>:
 8005f18:	b480      	push	{r7}
 8005f1a:	b08b      	sub	sp, #44	; 0x2c
 8005f1c:	af00      	add	r7, sp, #0
 8005f1e:	60f8      	str	r0, [r7, #12]
 8005f20:	60b9      	str	r1, [r7, #8]
 8005f22:	4611      	mov	r1, r2
 8005f24:	461a      	mov	r2, r3
 8005f26:	460b      	mov	r3, r1
 8005f28:	80fb      	strh	r3, [r7, #6]
 8005f2a:	4613      	mov	r3, r2
 8005f2c:	80bb      	strh	r3, [r7, #4]
 8005f2e:	88bb      	ldrh	r3, [r7, #4]
 8005f30:	085b      	lsrs	r3, r3, #1
 8005f32:	b29b      	uxth	r3, r3
 8005f34:	61bb      	str	r3, [r7, #24]
 8005f36:	68fb      	ldr	r3, [r7, #12]
 8005f38:	617b      	str	r3, [r7, #20]
 8005f3a:	68bb      	ldr	r3, [r7, #8]
 8005f3c:	61fb      	str	r3, [r7, #28]
 8005f3e:	88fb      	ldrh	r3, [r7, #6]
 8005f40:	005a      	lsls	r2, r3, #1
 8005f42:	697b      	ldr	r3, [r7, #20]
 8005f44:	4413      	add	r3, r2
 8005f46:	f503 6380 	add.w	r3, r3, #1024	; 0x400
 8005f4a:	623b      	str	r3, [r7, #32]
 8005f4c:	69bb      	ldr	r3, [r7, #24]
 8005f4e:	627b      	str	r3, [r7, #36]	; 0x24
 8005f50:	e01b      	b.n	8005f8a <USB_ReadPMA+0x72>
 8005f52:	6a3b      	ldr	r3, [r7, #32]
 8005f54:	881b      	ldrh	r3, [r3, #0]
 8005f56:	b29b      	uxth	r3, r3
 8005f58:	613b      	str	r3, [r7, #16]
 8005f5a:	6a3b      	ldr	r3, [r7, #32]
 8005f5c:	3302      	adds	r3, #2
 8005f5e:	623b      	str	r3, [r7, #32]
 8005f60:	693b      	ldr	r3, [r7, #16]
 8005f62:	b2da      	uxtb	r2, r3
 8005f64:	69fb      	ldr	r3, [r7, #28]
 8005f66:	701a      	strb	r2, [r3, #0]
 8005f68:	69fb      	ldr	r3, [r7, #28]
 8005f6a:	3301      	adds	r3, #1
 8005f6c:	61fb      	str	r3, [r7, #28]
 8005f6e:	693b      	ldr	r3, [r7, #16]
 8005f70:	0a1b      	lsrs	r3, r3, #8
 8005f72:	b2da      	uxtb	r2, r3
 8005f74:	69fb      	ldr	r3, [r7, #28]
 8005f76:	701a      	strb	r2, [r3, #0]
 8005f78:	69fb      	ldr	r3, [r7, #28]
 8005f7a:	3301      	adds	r3, #1
 8005f7c:	61fb      	str	r3, [r7, #28]
 8005f7e:	6a3b      	ldr	r3, [r7, #32]
 8005f80:	3302      	adds	r3, #2
 8005f82:	623b      	str	r3, [r7, #32]
 8005f84:	6a7b      	ldr	r3, [r7, #36]	; 0x24
 8005f86:	3b01      	subs	r3, #1
 8005f88:	627b      	str	r3, [r7, #36]	; 0x24
 8005f8a:	6a7b      	ldr	r3, [r7, #36]	; 0x24
 8005f8c:	2b00      	cmp	r3, #0
 8005f8e:	d1e0      	bne.n	8005f52 <USB_ReadPMA+0x3a>
 8005f90:	88bb      	ldrh	r3, [r7, #4]
 8005f92:	f003 0301 	and.w	r3, r3, #1
 8005f96:	b29b      	uxth	r3, r3
 8005f98:	2b00      	cmp	r3, #0
 8005f9a:	d007      	beq.n	8005fac <USB_ReadPMA+0x94>
 8005f9c:	6a3b      	ldr	r3, [r7, #32]
 8005f9e:	881b      	ldrh	r3, [r3, #0]
 8005fa0:	b29b      	uxth	r3, r3
 8005fa2:	613b      	str	r3, [r7, #16]
 8005fa4:	693b      	ldr	r3, [r7, #16]
 8005fa6:	b2da      	uxtb	r2, r3
 8005fa8:	69fb      	ldr	r3, [r7, #28]
 8005faa:	701a      	strb	r2, [r3, #0]
 8005fac:	bf00      	nop
 8005fae:	372c      	adds	r7, #44	; 0x2c
 8005fb0:	46bd      	mov	sp, r7
 8005fb2:	bc80      	pop	{r7}
 8005fb4:	4770      	bx	lr

08005fb6 <USBD_CDC_Init>:
 8005fb6:	b580      	push	{r7, lr}
 8005fb8:	b084      	sub	sp, #16
 8005fba:	af00      	add	r7, sp, #0
 8005fbc:	6078      	str	r0, [r7, #4]
 8005fbe:	460b      	mov	r3, r1
 8005fc0:	70fb      	strb	r3, [r7, #3]
 8005fc2:	2300      	movs	r3, #0
 8005fc4:	73fb      	strb	r3, [r7, #15]
 8005fc6:	687b      	ldr	r3, [r7, #4]
 8005fc8:	7c1b      	ldrb	r3, [r3, #16]
 8005fca:	2b00      	cmp	r3, #0
 8005fcc:	d115      	bne.n	8005ffa <USBD_CDC_Init+0x44>
 8005fce:	f44f 7300 	mov.w	r3, #512	; 0x200
 8005fd2:	2202      	movs	r2, #2
 8005fd4:	2181      	movs	r1, #129	; 0x81
 8005fd6:	6878      	ldr	r0, [r7, #4]
 8005fd8:	f001 fe1f 	bl	8007c1a <USBD_LL_OpenEP>
 8005fdc:	687b      	ldr	r3, [r7, #4]
 8005fde:	2201      	movs	r2, #1
 8005fe0:	62da      	str	r2, [r3, #44]	; 0x2c
 8005fe2:	f44f 7300 	mov.w	r3, #512	; 0x200
 8005fe6:	2202      	movs	r2, #2
 8005fe8:	2101      	movs	r1, #1
 8005fea:	6878      	ldr	r0, [r7, #4]
 8005fec:	f001 fe15 	bl	8007c1a <USBD_LL_OpenEP>
 8005ff0:	687b      	ldr	r3, [r7, #4]
 8005ff2:	2201      	movs	r2, #1
 8005ff4:	f8c3 216c 	str.w	r2, [r3, #364]	; 0x16c
 8005ff8:	e012      	b.n	8006020 <USBD_CDC_Init+0x6a>
 8005ffa:	2340      	movs	r3, #64	; 0x40
 8005ffc:	2202      	movs	r2, #2
 8005ffe:	2181      	movs	r1, #129	; 0x81
 8006000:	6878      	ldr	r0, [r7, #4]
 8006002:	f001 fe0a 	bl	8007c1a <USBD_LL_OpenEP>
 8006006:	687b      	ldr	r3, [r7, #4]
 8006008:	2201      	movs	r2, #1
 800600a:	62da      	str	r2, [r3, #44]	; 0x2c
 800600c:	2340      	movs	r3, #64	; 0x40
 800600e:	2202      	movs	r2, #2
 8006010:	2101      	movs	r1, #1
 8006012:	6878      	ldr	r0, [r7, #4]
 8006014:	f001 fe01 	bl	8007c1a <USBD_LL_OpenEP>
 8006018:	687b      	ldr	r3, [r7, #4]
 800601a:	2201      	movs	r2, #1
 800601c:	f8c3 216c 	str.w	r2, [r3, #364]	; 0x16c
 8006020:	2308      	movs	r3, #8
 8006022:	2203      	movs	r2, #3
 8006024:	2182      	movs	r1, #130	; 0x82
 8006026:	6878      	ldr	r0, [r7, #4]
 8006028:	f001 fdf7 	bl	8007c1a <USBD_LL_OpenEP>
 800602c:	687b      	ldr	r3, [r7, #4]
 800602e:	2201      	movs	r2, #1
 8006030:	641a      	str	r2, [r3, #64]	; 0x40
 8006032:	f44f 7007 	mov.w	r0, #540	; 0x21c
 8006036:	f001 ff17 	bl	8007e68 <USBD_static_malloc>
 800603a:	4602      	mov	r2, r0
 800603c:	687b      	ldr	r3, [r7, #4]
 800603e:	f8c3 22b8 	str.w	r2, [r3, #696]	; 0x2b8
 8006042:	687b      	ldr	r3, [r7, #4]
 8006044:	f8d3 32b8 	ldr.w	r3, [r3, #696]	; 0x2b8
 8006048:	2b00      	cmp	r3, #0
 800604a:	d102      	bne.n	8006052 <USBD_CDC_Init+0x9c>
 800604c:	2301      	movs	r3, #1
 800604e:	73fb      	strb	r3, [r7, #15]
 8006050:	e026      	b.n	80060a0 <USBD_CDC_Init+0xea>
 8006052:	687b      	ldr	r3, [r7, #4]
 8006054:	f8d3 32b8 	ldr.w	r3, [r3, #696]	; 0x2b8
 8006058:	60bb      	str	r3, [r7, #8]
 800605a:	687b      	ldr	r3, [r7, #4]
 800605c:	f8d3 32bc 	ldr.w	r3, [r3, #700]	; 0x2bc
 8006060:	681b      	ldr	r3, [r3, #0]
 8006062:	4798      	blx	r3
 8006064:	68bb      	ldr	r3, [r7, #8]
 8006066:	2200      	movs	r2, #0
 8006068:	f8c3 2214 	str.w	r2, [r3, #532]	; 0x214
 800606c:	68bb      	ldr	r3, [r7, #8]
 800606e:	2200      	movs	r2, #0
 8006070:	f8c3 2218 	str.w	r2, [r3, #536]	; 0x218
 8006074:	687b      	ldr	r3, [r7, #4]
 8006076:	7c1b      	ldrb	r3, [r3, #16]
 8006078:	2b00      	cmp	r3, #0
 800607a:	d109      	bne.n	8006090 <USBD_CDC_Init+0xda>
 800607c:	68bb      	ldr	r3, [r7, #8]
 800607e:	f8d3 2204 	ldr.w	r2, [r3, #516]	; 0x204
 8006082:	f44f 7300 	mov.w	r3, #512	; 0x200
 8006086:	2101      	movs	r1, #1
 8006088:	6878      	ldr	r0, [r7, #4]
 800608a:	f001 feb7 	bl	8007dfc <USBD_LL_PrepareReceive>
 800608e:	e007      	b.n	80060a0 <USBD_CDC_Init+0xea>
 8006090:	68bb      	ldr	r3, [r7, #8]
 8006092:	f8d3 2204 	ldr.w	r2, [r3, #516]	; 0x204
 8006096:	2340      	movs	r3, #64	; 0x40
 8006098:	2101      	movs	r1, #1
 800609a:	6878      	ldr	r0, [r7, #4]
 800609c:	f001 feae 	bl	8007dfc <USBD_LL_PrepareReceive>
 80060a0:	7bfb      	ldrb	r3, [r7, #15]
 80060a2:	4618      	mov	r0, r3
 80060a4:	3710      	adds	r7, #16
 80060a6:	46bd      	mov	sp, r7
 80060a8:	bd80      	pop	{r7, pc}

080060aa <USBD_CDC_DeInit>:
 80060aa:	b580      	push	{r7, lr}
 80060ac:	b084      	sub	sp, #16
 80060ae:	af00      	add	r7, sp, #0
 80060b0:	6078      	str	r0, [r7, #4]
 80060b2:	460b      	mov	r3, r1
 80060b4:	70fb      	strb	r3, [r7, #3]
 80060b6:	2300      	movs	r3, #0
 80060b8:	73fb      	strb	r3, [r7, #15]
 80060ba:	2181      	movs	r1, #129	; 0x81
 80060bc:	6878      	ldr	r0, [r7, #4]
 80060be:	f001 fdd2 	bl	8007c66 <USBD_LL_CloseEP>
 80060c2:	687b      	ldr	r3, [r7, #4]
 80060c4:	2200      	movs	r2, #0
 80060c6:	62da      	str	r2, [r3, #44]	; 0x2c
 80060c8:	2101      	movs	r1, #1
 80060ca:	6878      	ldr	r0, [r7, #4]
 80060cc:	f001 fdcb 	bl	8007c66 <USBD_LL_CloseEP>
 80060d0:	687b      	ldr	r3, [r7, #4]
 80060d2:	2200      	movs	r2, #0
 80060d4:	f8c3 216c 	str.w	r2, [r3, #364]	; 0x16c
 80060d8:	2182      	movs	r1, #130	; 0x82
 80060da:	6878      	ldr	r0, [r7, #4]
 80060dc:	f001 fdc3 	bl	8007c66 <USBD_LL_CloseEP>
 80060e0:	687b      	ldr	r3, [r7, #4]
 80060e2:	2200      	movs	r2, #0
 80060e4:	641a      	str	r2, [r3, #64]	; 0x40
 80060e6:	687b      	ldr	r3, [r7, #4]
 80060e8:	f8d3 32b8 	ldr.w	r3, [r3, #696]	; 0x2b8
 80060ec:	2b00      	cmp	r3, #0
 80060ee:	d00e      	beq.n	800610e <USBD_CDC_DeInit+0x64>
 80060f0:	687b      	ldr	r3, [r7, #4]
 80060f2:	f8d3 32bc 	ldr.w	r3, [r3, #700]	; 0x2bc
 80060f6:	685b      	ldr	r3, [r3, #4]
 80060f8:	4798      	blx	r3
 80060fa:	687b      	ldr	r3, [r7, #4]
 80060fc:	f8d3 32b8 	ldr.w	r3, [r3, #696]	; 0x2b8
 8006100:	4618      	mov	r0, r3
 8006102:	f001 febd 	bl	8007e80 <USBD_static_free>
 8006106:	687b      	ldr	r3, [r7, #4]
 8006108:	2200      	movs	r2, #0
 800610a:	f8c3 22b8 	str.w	r2, [r3, #696]	; 0x2b8
 800610e:	7bfb      	ldrb	r3, [r7, #15]
 8006110:	4618      	mov	r0, r3
 8006112:	3710      	adds	r7, #16
 8006114:	46bd      	mov	sp, r7
 8006116:	bd80      	pop	{r7, pc}

08006118 <USBD_CDC_Setup>:
 8006118:	b580      	push	{r7, lr}
 800611a:	b086      	sub	sp, #24
 800611c:	af00      	add	r7, sp, #0
 800611e:	6078      	str	r0, [r7, #4]
 8006120:	6039      	str	r1, [r7, #0]
 8006122:	687b      	ldr	r3, [r7, #4]
 8006124:	f8d3 32b8 	ldr.w	r3, [r3, #696]	; 0x2b8
 8006128:	613b      	str	r3, [r7, #16]
 800612a:	2300      	movs	r3, #0
 800612c:	73fb      	strb	r3, [r7, #15]
 800612e:	2300      	movs	r3, #0
 8006130:	81bb      	strh	r3, [r7, #12]
 8006132:	2300      	movs	r3, #0
 8006134:	75fb      	strb	r3, [r7, #23]
 8006136:	683b      	ldr	r3, [r7, #0]
 8006138:	781b      	ldrb	r3, [r3, #0]
 800613a:	f003 0360 	and.w	r3, r3, #96	; 0x60
 800613e:	2b00      	cmp	r3, #0
 8006140:	d039      	beq.n	80061b6 <USBD_CDC_Setup+0x9e>
 8006142:	2b20      	cmp	r3, #32
 8006144:	d17c      	bne.n	8006240 <USBD_CDC_Setup+0x128>
 8006146:	683b      	ldr	r3, [r7, #0]
 8006148:	88db      	ldrh	r3, [r3, #6]
 800614a:	2b00      	cmp	r3, #0
 800614c:	d029      	beq.n	80061a2 <USBD_CDC_Setup+0x8a>
 800614e:	683b      	ldr	r3, [r7, #0]
 8006150:	781b      	ldrb	r3, [r3, #0]
 8006152:	b25b      	sxtb	r3, r3
 8006154:	2b00      	cmp	r3, #0
 8006156:	da11      	bge.n	800617c <USBD_CDC_Setup+0x64>
 8006158:	687b      	ldr	r3, [r7, #4]
 800615a:	f8d3 32bc 	ldr.w	r3, [r3, #700]	; 0x2bc
 800615e:	689b      	ldr	r3, [r3, #8]
 8006160:	683a      	ldr	r2, [r7, #0]
 8006162:	7850      	ldrb	r0, [r2, #1]
 8006164:	6939      	ldr	r1, [r7, #16]
 8006166:	683a      	ldr	r2, [r7, #0]
 8006168:	88d2      	ldrh	r2, [r2, #6]
 800616a:	4798      	blx	r3
 800616c:	6939      	ldr	r1, [r7, #16]
 800616e:	683b      	ldr	r3, [r7, #0]
 8006170:	88db      	ldrh	r3, [r3, #6]
 8006172:	461a      	mov	r2, r3
 8006174:	6878      	ldr	r0, [r7, #4]
 8006176:	f001 f9c9 	bl	800750c <USBD_CtlSendData>
 800617a:	e068      	b.n	800624e <USBD_CDC_Setup+0x136>
 800617c:	683b      	ldr	r3, [r7, #0]
 800617e:	785a      	ldrb	r2, [r3, #1]
 8006180:	693b      	ldr	r3, [r7, #16]
 8006182:	f883 2200 	strb.w	r2, [r3, #512]	; 0x200
 8006186:	683b      	ldr	r3, [r7, #0]
 8006188:	88db      	ldrh	r3, [r3, #6]
 800618a:	b2da      	uxtb	r2, r3
 800618c:	693b      	ldr	r3, [r7, #16]
 800618e:	f883 2201 	strb.w	r2, [r3, #513]	; 0x201
 8006192:	6939      	ldr	r1, [r7, #16]
 8006194:	683b      	ldr	r3, [r7, #0]
 8006196:	88db      	ldrh	r3, [r3, #6]
 8006198:	461a      	mov	r2, r3
 800619a:	6878      	ldr	r0, [r7, #4]
 800619c:	f001 f9e4 	bl	8007568 <USBD_CtlPrepareRx>
 80061a0:	e055      	b.n	800624e <USBD_CDC_Setup+0x136>
 80061a2:	687b      	ldr	r3, [r7, #4]
 80061a4:	f8d3 32bc 	ldr.w	r3, [r3, #700]	; 0x2bc
 80061a8:	689b      	ldr	r3, [r3, #8]
 80061aa:	683a      	ldr	r2, [r7, #0]
 80061ac:	7850      	ldrb	r0, [r2, #1]
 80061ae:	2200      	movs	r2, #0
 80061b0:	6839      	ldr	r1, [r7, #0]
 80061b2:	4798      	blx	r3
 80061b4:	e04b      	b.n	800624e <USBD_CDC_Setup+0x136>
 80061b6:	683b      	ldr	r3, [r7, #0]
 80061b8:	785b      	ldrb	r3, [r3, #1]
 80061ba:	2b0a      	cmp	r3, #10
 80061bc:	d017      	beq.n	80061ee <USBD_CDC_Setup+0xd6>
 80061be:	2b0b      	cmp	r3, #11
 80061c0:	d029      	beq.n	8006216 <USBD_CDC_Setup+0xfe>
 80061c2:	2b00      	cmp	r3, #0
 80061c4:	d133      	bne.n	800622e <USBD_CDC_Setup+0x116>
 80061c6:	687b      	ldr	r3, [r7, #4]
 80061c8:	f893 329c 	ldrb.w	r3, [r3, #668]	; 0x29c
 80061cc:	2b03      	cmp	r3, #3
 80061ce:	d107      	bne.n	80061e0 <USBD_CDC_Setup+0xc8>
 80061d0:	f107 030c 	add.w	r3, r7, #12
 80061d4:	2202      	movs	r2, #2
 80061d6:	4619      	mov	r1, r3
 80061d8:	6878      	ldr	r0, [r7, #4]
 80061da:	f001 f997 	bl	800750c <USBD_CtlSendData>
 80061de:	e02e      	b.n	800623e <USBD_CDC_Setup+0x126>
 80061e0:	6839      	ldr	r1, [r7, #0]
 80061e2:	6878      	ldr	r0, [r7, #4]
 80061e4:	f001 f928 	bl	8007438 <USBD_CtlError>
 80061e8:	2302      	movs	r3, #2
 80061ea:	75fb      	strb	r3, [r7, #23]
 80061ec:	e027      	b.n	800623e <USBD_CDC_Setup+0x126>
 80061ee:	687b      	ldr	r3, [r7, #4]
 80061f0:	f893 329c 	ldrb.w	r3, [r3, #668]	; 0x29c
 80061f4:	2b03      	cmp	r3, #3
 80061f6:	d107      	bne.n	8006208 <USBD_CDC_Setup+0xf0>
 80061f8:	f107 030f 	add.w	r3, r7, #15
 80061fc:	2201      	movs	r2, #1
 80061fe:	4619      	mov	r1, r3
 8006200:	6878      	ldr	r0, [r7, #4]
 8006202:	f001 f983 	bl	800750c <USBD_CtlSendData>
 8006206:	e01a      	b.n	800623e <USBD_CDC_Setup+0x126>
 8006208:	6839      	ldr	r1, [r7, #0]
 800620a:	6878      	ldr	r0, [r7, #4]
 800620c:	f001 f914 	bl	8007438 <USBD_CtlError>
 8006210:	2302      	movs	r3, #2
 8006212:	75fb      	strb	r3, [r7, #23]
 8006214:	e013      	b.n	800623e <USBD_CDC_Setup+0x126>
 8006216:	687b      	ldr	r3, [r7, #4]
 8006218:	f893 329c 	ldrb.w	r3, [r3, #668]	; 0x29c
 800621c:	2b03      	cmp	r3, #3
 800621e:	d00d      	beq.n	800623c <USBD_CDC_Setup+0x124>
 8006220:	6839      	ldr	r1, [r7, #0]
 8006222:	6878      	ldr	r0, [r7, #4]
 8006224:	f001 f908 	bl	8007438 <USBD_CtlError>
 8006228:	2302      	movs	r3, #2
 800622a:	75fb      	strb	r3, [r7, #23]
 800622c:	e006      	b.n	800623c <USBD_CDC_Setup+0x124>
 800622e:	6839      	ldr	r1, [r7, #0]
 8006230:	6878      	ldr	r0, [r7, #4]
 8006232:	f001 f901 	bl	8007438 <USBD_CtlError>
 8006236:	2302      	movs	r3, #2
 8006238:	75fb      	strb	r3, [r7, #23]
 800623a:	e000      	b.n	800623e <USBD_CDC_Setup+0x126>
 800623c:	bf00      	nop
 800623e:	e006      	b.n	800624e <USBD_CDC_Setup+0x136>
 8006240:	6839      	ldr	r1, [r7, #0]
 8006242:	6878      	ldr	r0, [r7, #4]
 8006244:	f001 f8f8 	bl	8007438 <USBD_CtlError>
 8006248:	2302      	movs	r3, #2
 800624a:	75fb      	strb	r3, [r7, #23]
 800624c:	bf00      	nop
 800624e:	7dfb      	ldrb	r3, [r7, #23]
 8006250:	4618      	mov	r0, r3
 8006252:	3718      	adds	r7, #24
 8006254:	46bd      	mov	sp, r7
 8006256:	bd80      	pop	{r7, pc}

08006258 <USBD_CDC_DataIn>:
 8006258:	b580      	push	{r7, lr}
 800625a:	b084      	sub	sp, #16
 800625c:	af00      	add	r7, sp, #0
 800625e:	6078      	str	r0, [r7, #4]
 8006260:	460b      	mov	r3, r1
 8006262:	70fb      	strb	r3, [r7, #3]
 8006264:	687b      	ldr	r3, [r7, #4]
 8006266:	f8d3 32b8 	ldr.w	r3, [r3, #696]	; 0x2b8
 800626a:	60fb      	str	r3, [r7, #12]
 800626c:	687b      	ldr	r3, [r7, #4]
 800626e:	f8d3 32c0 	ldr.w	r3, [r3, #704]	; 0x2c0
 8006272:	60bb      	str	r3, [r7, #8]
 8006274:	687b      	ldr	r3, [r7, #4]
 8006276:	f8d3 32b8 	ldr.w	r3, [r3, #696]	; 0x2b8
 800627a:	2b00      	cmp	r3, #0
 800627c:	d03a      	beq.n	80062f4 <USBD_CDC_DataIn+0x9c>
 800627e:	78fa      	ldrb	r2, [r7, #3]
 8006280:	6879      	ldr	r1, [r7, #4]
 8006282:	4613      	mov	r3, r2
 8006284:	009b      	lsls	r3, r3, #2
 8006286:	4413      	add	r3, r2
 8006288:	009b      	lsls	r3, r3, #2
 800628a:	440b      	add	r3, r1
 800628c:	331c      	adds	r3, #28
 800628e:	681b      	ldr	r3, [r3, #0]
 8006290:	2b00      	cmp	r3, #0
 8006292:	d029      	beq.n	80062e8 <USBD_CDC_DataIn+0x90>
 8006294:	78fa      	ldrb	r2, [r7, #3]
 8006296:	6879      	ldr	r1, [r7, #4]
 8006298:	4613      	mov	r3, r2
 800629a:	009b      	lsls	r3, r3, #2
 800629c:	4413      	add	r3, r2
 800629e:	009b      	lsls	r3, r3, #2
 80062a0:	440b      	add	r3, r1
 80062a2:	331c      	adds	r3, #28
 80062a4:	681a      	ldr	r2, [r3, #0]
 80062a6:	78f9      	ldrb	r1, [r7, #3]
 80062a8:	68b8      	ldr	r0, [r7, #8]
 80062aa:	460b      	mov	r3, r1
 80062ac:	009b      	lsls	r3, r3, #2
 80062ae:	440b      	add	r3, r1
 80062b0:	00db      	lsls	r3, r3, #3
 80062b2:	4403      	add	r3, r0
 80062b4:	3338      	adds	r3, #56	; 0x38
 80062b6:	681b      	ldr	r3, [r3, #0]
 80062b8:	fbb2 f1f3 	udiv	r1, r2, r3
 80062bc:	fb03 f301 	mul.w	r3, r3, r1
 80062c0:	1ad3      	subs	r3, r2, r3
 80062c2:	2b00      	cmp	r3, #0
 80062c4:	d110      	bne.n	80062e8 <USBD_CDC_DataIn+0x90>
 80062c6:	78fa      	ldrb	r2, [r7, #3]
 80062c8:	6879      	ldr	r1, [r7, #4]
 80062ca:	4613      	mov	r3, r2
 80062cc:	009b      	lsls	r3, r3, #2
 80062ce:	4413      	add	r3, r2
 80062d0:	009b      	lsls	r3, r3, #2
 80062d2:	440b      	add	r3, r1
 80062d4:	331c      	adds	r3, #28
 80062d6:	2200      	movs	r2, #0
 80062d8:	601a      	str	r2, [r3, #0]
 80062da:	78f9      	ldrb	r1, [r7, #3]
 80062dc:	2300      	movs	r3, #0
 80062de:	2200      	movs	r2, #0
 80062e0:	6878      	ldr	r0, [r7, #4]
 80062e2:	f001 fd68 	bl	8007db6 <USBD_LL_Transmit>
 80062e6:	e003      	b.n	80062f0 <USBD_CDC_DataIn+0x98>
 80062e8:	68fb      	ldr	r3, [r7, #12]
 80062ea:	2200      	movs	r2, #0
 80062ec:	f8c3 2214 	str.w	r2, [r3, #532]	; 0x214
 80062f0:	2300      	movs	r3, #0
 80062f2:	e000      	b.n	80062f6 <USBD_CDC_DataIn+0x9e>
 80062f4:	2302      	movs	r3, #2
 80062f6:	4618      	mov	r0, r3
 80062f8:	3710      	adds	r7, #16
 80062fa:	46bd      	mov	sp, r7
 80062fc:	bd80      	pop	{r7, pc}

080062fe <USBD_CDC_DataOut>:
 80062fe:	b580      	push	{r7, lr}
 8006300:	b084      	sub	sp, #16
 8006302:	af00      	add	r7, sp, #0
 8006304:	6078      	str	r0, [r7, #4]
 8006306:	460b      	mov	r3, r1
 8006308:	70fb      	strb	r3, [r7, #3]
 800630a:	687b      	ldr	r3, [r7, #4]
 800630c:	f8d3 32b8 	ldr.w	r3, [r3, #696]	; 0x2b8
 8006310:	60fb      	str	r3, [r7, #12]
 8006312:	78fb      	ldrb	r3, [r7, #3]
 8006314:	4619      	mov	r1, r3
 8006316:	6878      	ldr	r0, [r7, #4]
 8006318:	f001 fd93 	bl	8007e42 <USBD_LL_GetRxDataSize>
 800631c:	4602      	mov	r2, r0
 800631e:	68fb      	ldr	r3, [r7, #12]
 8006320:	f8c3 220c 	str.w	r2, [r3, #524]	; 0x20c
 8006324:	687b      	ldr	r3, [r7, #4]
 8006326:	f8d3 32b8 	ldr.w	r3, [r3, #696]	; 0x2b8
 800632a:	2b00      	cmp	r3, #0
 800632c:	d00d      	beq.n	800634a <USBD_CDC_DataOut+0x4c>
 800632e:	687b      	ldr	r3, [r7, #4]
 8006330:	f8d3 32bc 	ldr.w	r3, [r3, #700]	; 0x2bc
 8006334:	68db      	ldr	r3, [r3, #12]
 8006336:	68fa      	ldr	r2, [r7, #12]
 8006338:	f8d2 0204 	ldr.w	r0, [r2, #516]	; 0x204
 800633c:	68fa      	ldr	r2, [r7, #12]
 800633e:	f502 7203 	add.w	r2, r2, #524	; 0x20c
 8006342:	4611      	mov	r1, r2
 8006344:	4798      	blx	r3
 8006346:	2300      	movs	r3, #0
 8006348:	e000      	b.n	800634c <USBD_CDC_DataOut+0x4e>
 800634a:	2302      	movs	r3, #2
 800634c:	4618      	mov	r0, r3
 800634e:	3710      	adds	r7, #16
 8006350:	46bd      	mov	sp, r7
 8006352:	bd80      	pop	{r7, pc}

08006354 <USBD_CDC_EP0_RxReady>:
 8006354:	b580      	push	{r7, lr}
 8006356:	b084      	sub	sp, #16
 8006358:	af00      	add	r7, sp, #0
 800635a:	6078      	str	r0, [r7, #4]
 800635c:	687b      	ldr	r3, [r7, #4]
 800635e:	f8d3 32b8 	ldr.w	r3, [r3, #696]	; 0x2b8
 8006362:	60fb      	str	r3, [r7, #12]
 8006364:	687b      	ldr	r3, [r7, #4]
 8006366:	f8d3 32bc 	ldr.w	r3, [r3, #700]	; 0x2bc
 800636a:	2b00      	cmp	r3, #0
 800636c:	d015      	beq.n	800639a <USBD_CDC_EP0_RxReady+0x46>
 800636e:	68fb      	ldr	r3, [r7, #12]
 8006370:	f893 3200 	ldrb.w	r3, [r3, #512]	; 0x200
 8006374:	2bff      	cmp	r3, #255	; 0xff
 8006376:	d010      	beq.n	800639a <USBD_CDC_EP0_RxReady+0x46>
 8006378:	687b      	ldr	r3, [r7, #4]
 800637a:	f8d3 32bc 	ldr.w	r3, [r3, #700]	; 0x2bc
 800637e:	689b      	ldr	r3, [r3, #8]
 8006380:	68fa      	ldr	r2, [r7, #12]
 8006382:	f892 0200 	ldrb.w	r0, [r2, #512]	; 0x200
 8006386:	68f9      	ldr	r1, [r7, #12]
 8006388:	68fa      	ldr	r2, [r7, #12]
 800638a:	f892 2201 	ldrb.w	r2, [r2, #513]	; 0x201
 800638e:	b292      	uxth	r2, r2
 8006390:	4798      	blx	r3
 8006392:	68fb      	ldr	r3, [r7, #12]
 8006394:	22ff      	movs	r2, #255	; 0xff
 8006396:	f883 2200 	strb.w	r2, [r3, #512]	; 0x200
 800639a:	2300      	movs	r3, #0
 800639c:	4618      	mov	r0, r3
 800639e:	3710      	adds	r7, #16
 80063a0:	46bd      	mov	sp, r7
 80063a2:	bd80      	pop	{r7, pc}

080063a4 <USBD_CDC_GetFSCfgDesc>:
 80063a4:	b480      	push	{r7}
 80063a6:	b083      	sub	sp, #12
 80063a8:	af00      	add	r7, sp, #0
 80063aa:	6078      	str	r0, [r7, #4]
 80063ac:	687b      	ldr	r3, [r7, #4]
 80063ae:	2243      	movs	r2, #67	; 0x43
 80063b0:	801a      	strh	r2, [r3, #0]
 80063b2:	4b03      	ldr	r3, [pc, #12]	; (80063c0 <USBD_CDC_GetFSCfgDesc+0x1c>)
 80063b4:	4618      	mov	r0, r3
 80063b6:	370c      	adds	r7, #12
 80063b8:	46bd      	mov	sp, r7
 80063ba:	bc80      	pop	{r7}
 80063bc:	4770      	bx	lr
 80063be:	bf00      	nop
 80063c0:	200000a8 	.word	0x200000a8

080063c4 <USBD_CDC_GetHSCfgDesc>:
 80063c4:	b480      	push	{r7}
 80063c6:	b083      	sub	sp, #12
 80063c8:	af00      	add	r7, sp, #0
 80063ca:	6078      	str	r0, [r7, #4]
 80063cc:	687b      	ldr	r3, [r7, #4]
 80063ce:	2243      	movs	r2, #67	; 0x43
 80063d0:	801a      	strh	r2, [r3, #0]
 80063d2:	4b03      	ldr	r3, [pc, #12]	; (80063e0 <USBD_CDC_GetHSCfgDesc+0x1c>)
 80063d4:	4618      	mov	r0, r3
 80063d6:	370c      	adds	r7, #12
 80063d8:	46bd      	mov	sp, r7
 80063da:	bc80      	pop	{r7}
 80063dc:	4770      	bx	lr
 80063de:	bf00      	nop
 80063e0:	20000064 	.word	0x20000064

080063e4 <USBD_CDC_GetOtherSpeedCfgDesc>:
 80063e4:	b480      	push	{r7}
 80063e6:	b083      	sub	sp, #12
 80063e8:	af00      	add	r7, sp, #0
 80063ea:	6078      	str	r0, [r7, #4]
 80063ec:	687b      	ldr	r3, [r7, #4]
 80063ee:	2243      	movs	r2, #67	; 0x43
 80063f0:	801a      	strh	r2, [r3, #0]
 80063f2:	4b03      	ldr	r3, [pc, #12]	; (8006400 <USBD_CDC_GetOtherSpeedCfgDesc+0x1c>)
 80063f4:	4618      	mov	r0, r3
 80063f6:	370c      	adds	r7, #12
 80063f8:	46bd      	mov	sp, r7
 80063fa:	bc80      	pop	{r7}
 80063fc:	4770      	bx	lr
 80063fe:	bf00      	nop
 8006400:	200000ec 	.word	0x200000ec

08006404 <USBD_CDC_GetDeviceQualifierDescriptor>:
 8006404:	b480      	push	{r7}
 8006406:	b083      	sub	sp, #12
 8006408:	af00      	add	r7, sp, #0
 800640a:	6078      	str	r0, [r7, #4]
 800640c:	687b      	ldr	r3, [r7, #4]
 800640e:	220a      	movs	r2, #10
 8006410:	801a      	strh	r2, [r3, #0]
 8006412:	4b03      	ldr	r3, [pc, #12]	; (8006420 <USBD_CDC_GetDeviceQualifierDescriptor+0x1c>)
 8006414:	4618      	mov	r0, r3
 8006416:	370c      	adds	r7, #12
 8006418:	46bd      	mov	sp, r7
 800641a:	bc80      	pop	{r7}
 800641c:	4770      	bx	lr
 800641e:	bf00      	nop
 8006420:	20000020 	.word	0x20000020

08006424 <USBD_CDC_RegisterInterface>:
 8006424:	b480      	push	{r7}
 8006426:	b085      	sub	sp, #20
 8006428:	af00      	add	r7, sp, #0
 800642a:	6078      	str	r0, [r7, #4]
 800642c:	6039      	str	r1, [r7, #0]
 800642e:	2302      	movs	r3, #2
 8006430:	73fb      	strb	r3, [r7, #15]
 8006432:	683b      	ldr	r3, [r7, #0]
 8006434:	2b00      	cmp	r3, #0
 8006436:	d005      	beq.n	8006444 <USBD_CDC_RegisterInterface+0x20>
 8006438:	687b      	ldr	r3, [r7, #4]
 800643a:	683a      	ldr	r2, [r7, #0]
 800643c:	f8c3 22bc 	str.w	r2, [r3, #700]	; 0x2bc
 8006440:	2300      	movs	r3, #0
 8006442:	73fb      	strb	r3, [r7, #15]
 8006444:	7bfb      	ldrb	r3, [r7, #15]
 8006446:	4618      	mov	r0, r3
 8006448:	3714      	adds	r7, #20
 800644a:	46bd      	mov	sp, r7
 800644c:	bc80      	pop	{r7}
 800644e:	4770      	bx	lr

08006450 <USBD_CDC_SetTxBuffer>:
 8006450:	b480      	push	{r7}
 8006452:	b087      	sub	sp, #28
 8006454:	af00      	add	r7, sp, #0
 8006456:	60f8      	str	r0, [r7, #12]
 8006458:	60b9      	str	r1, [r7, #8]
 800645a:	4613      	mov	r3, r2
 800645c:	80fb      	strh	r3, [r7, #6]
 800645e:	68fb      	ldr	r3, [r7, #12]
 8006460:	f8d3 32b8 	ldr.w	r3, [r3, #696]	; 0x2b8
 8006464:	617b      	str	r3, [r7, #20]
 8006466:	697b      	ldr	r3, [r7, #20]
 8006468:	68ba      	ldr	r2, [r7, #8]
 800646a:	f8c3 2208 	str.w	r2, [r3, #520]	; 0x208
 800646e:	88fa      	ldrh	r2, [r7, #6]
 8006470:	697b      	ldr	r3, [r7, #20]
 8006472:	f8c3 2210 	str.w	r2, [r3, #528]	; 0x210
 8006476:	2300      	movs	r3, #0
 8006478:	4618      	mov	r0, r3
 800647a:	371c      	adds	r7, #28
 800647c:	46bd      	mov	sp, r7
 800647e:	bc80      	pop	{r7}
 8006480:	4770      	bx	lr

08006482 <USBD_CDC_SetRxBuffer>:
 8006482:	b480      	push	{r7}
 8006484:	b085      	sub	sp, #20
 8006486:	af00      	add	r7, sp, #0
 8006488:	6078      	str	r0, [r7, #4]
 800648a:	6039      	str	r1, [r7, #0]
 800648c:	687b      	ldr	r3, [r7, #4]
 800648e:	f8d3 32b8 	ldr.w	r3, [r3, #696]	; 0x2b8
 8006492:	60fb      	str	r3, [r7, #12]
 8006494:	68fb      	ldr	r3, [r7, #12]
 8006496:	683a      	ldr	r2, [r7, #0]
 8006498:	f8c3 2204 	str.w	r2, [r3, #516]	; 0x204
 800649c:	2300      	movs	r3, #0
 800649e:	4618      	mov	r0, r3
 80064a0:	3714      	adds	r7, #20
 80064a2:	46bd      	mov	sp, r7
 80064a4:	bc80      	pop	{r7}
 80064a6:	4770      	bx	lr

080064a8 <USBD_CDC_ReceivePacket>:
 80064a8:	b580      	push	{r7, lr}
 80064aa:	b084      	sub	sp, #16
 80064ac:	af00      	add	r7, sp, #0
 80064ae:	6078      	str	r0, [r7, #4]
 80064b0:	687b      	ldr	r3, [r7, #4]
 80064b2:	f8d3 32b8 	ldr.w	r3, [r3, #696]	; 0x2b8
 80064b6:	60fb      	str	r3, [r7, #12]
 80064b8:	687b      	ldr	r3, [r7, #4]
 80064ba:	f8d3 32b8 	ldr.w	r3, [r3, #696]	; 0x2b8
 80064be:	2b00      	cmp	r3, #0
 80064c0:	d017      	beq.n	80064f2 <USBD_CDC_ReceivePacket+0x4a>
 80064c2:	687b      	ldr	r3, [r7, #4]
 80064c4:	7c1b      	ldrb	r3, [r3, #16]
 80064c6:	2b00      	cmp	r3, #0
 80064c8:	d109      	bne.n	80064de <USBD_CDC_ReceivePacket+0x36>
 80064ca:	68fb      	ldr	r3, [r7, #12]
 80064cc:	f8d3 2204 	ldr.w	r2, [r3, #516]	; 0x204
 80064d0:	f44f 7300 	mov.w	r3, #512	; 0x200
 80064d4:	2101      	movs	r1, #1
 80064d6:	6878      	ldr	r0, [r7, #4]
 80064d8:	f001 fc90 	bl	8007dfc <USBD_LL_PrepareReceive>
 80064dc:	e007      	b.n	80064ee <USBD_CDC_ReceivePacket+0x46>
 80064de:	68fb      	ldr	r3, [r7, #12]
 80064e0:	f8d3 2204 	ldr.w	r2, [r3, #516]	; 0x204
 80064e4:	2340      	movs	r3, #64	; 0x40
 80064e6:	2101      	movs	r1, #1
 80064e8:	6878      	ldr	r0, [r7, #4]
 80064ea:	f001 fc87 	bl	8007dfc <USBD_LL_PrepareReceive>
 80064ee:	2300      	movs	r3, #0
 80064f0:	e000      	b.n	80064f4 <USBD_CDC_ReceivePacket+0x4c>
 80064f2:	2302      	movs	r3, #2
 80064f4:	4618      	mov	r0, r3
 80064f6:	3710      	adds	r7, #16
 80064f8:	46bd      	mov	sp, r7
 80064fa:	bd80      	pop	{r7, pc}

080064fc <USBD_Init>:
 80064fc:	b580      	push	{r7, lr}
 80064fe:	b084      	sub	sp, #16
 8006500:	af00      	add	r7, sp, #0
 8006502:	60f8      	str	r0, [r7, #12]
 8006504:	60b9      	str	r1, [r7, #8]
 8006506:	4613      	mov	r3, r2
 8006508:	71fb      	strb	r3, [r7, #7]
 800650a:	68fb      	ldr	r3, [r7, #12]
 800650c:	2b00      	cmp	r3, #0
 800650e:	d101      	bne.n	8006514 <USBD_Init+0x18>
 8006510:	2302      	movs	r3, #2
 8006512:	e01a      	b.n	800654a <USBD_Init+0x4e>
 8006514:	68fb      	ldr	r3, [r7, #12]
 8006516:	f8d3 32b4 	ldr.w	r3, [r3, #692]	; 0x2b4
 800651a:	2b00      	cmp	r3, #0
 800651c:	d003      	beq.n	8006526 <USBD_Init+0x2a>
 800651e:	68fb      	ldr	r3, [r7, #12]
 8006520:	2200      	movs	r2, #0
 8006522:	f8c3 22b4 	str.w	r2, [r3, #692]	; 0x2b4
 8006526:	68bb      	ldr	r3, [r7, #8]
 8006528:	2b00      	cmp	r3, #0
 800652a:	d003      	beq.n	8006534 <USBD_Init+0x38>
 800652c:	68fb      	ldr	r3, [r7, #12]
 800652e:	68ba      	ldr	r2, [r7, #8]
 8006530:	f8c3 22b0 	str.w	r2, [r3, #688]	; 0x2b0
 8006534:	68fb      	ldr	r3, [r7, #12]
 8006536:	2201      	movs	r2, #1
 8006538:	f883 229c 	strb.w	r2, [r3, #668]	; 0x29c
 800653c:	68fb      	ldr	r3, [r7, #12]
 800653e:	79fa      	ldrb	r2, [r7, #7]
 8006540:	701a      	strb	r2, [r3, #0]
 8006542:	68f8      	ldr	r0, [r7, #12]
 8006544:	f001 faf4 	bl	8007b30 <USBD_LL_Init>
 8006548:	2300      	movs	r3, #0
 800654a:	4618      	mov	r0, r3
 800654c:	3710      	adds	r7, #16
 800654e:	46bd      	mov	sp, r7
 8006550:	bd80      	pop	{r7, pc}

08006552 <USBD_RegisterClass>:
 8006552:	b480      	push	{r7}
 8006554:	b085      	sub	sp, #20
 8006556:	af00      	add	r7, sp, #0
 8006558:	6078      	str	r0, [r7, #4]
 800655a:	6039      	str	r1, [r7, #0]
 800655c:	2300      	movs	r3, #0
 800655e:	73fb      	strb	r3, [r7, #15]
 8006560:	683b      	ldr	r3, [r7, #0]
 8006562:	2b00      	cmp	r3, #0
 8006564:	d006      	beq.n	8006574 <USBD_RegisterClass+0x22>
 8006566:	687b      	ldr	r3, [r7, #4]
 8006568:	683a      	ldr	r2, [r7, #0]
 800656a:	f8c3 22b4 	str.w	r2, [r3, #692]	; 0x2b4
 800656e:	2300      	movs	r3, #0
 8006570:	73fb      	strb	r3, [r7, #15]
 8006572:	e001      	b.n	8006578 <USBD_RegisterClass+0x26>
 8006574:	2302      	movs	r3, #2
 8006576:	73fb      	strb	r3, [r7, #15]
 8006578:	7bfb      	ldrb	r3, [r7, #15]
 800657a:	4618      	mov	r0, r3
 800657c:	3714      	adds	r7, #20
 800657e:	46bd      	mov	sp, r7
 8006580:	bc80      	pop	{r7}
 8006582:	4770      	bx	lr

08006584 <USBD_Start>:
 8006584:	b580      	push	{r7, lr}
 8006586:	b082      	sub	sp, #8
 8006588:	af00      	add	r7, sp, #0
 800658a:	6078      	str	r0, [r7, #4]
 800658c:	6878      	ldr	r0, [r7, #4]
 800658e:	f001 fb29 	bl	8007be4 <USBD_LL_Start>
 8006592:	2300      	movs	r3, #0
 8006594:	4618      	mov	r0, r3
 8006596:	3708      	adds	r7, #8
 8006598:	46bd      	mov	sp, r7
 800659a:	bd80      	pop	{r7, pc}

0800659c <USBD_RunTestMode>:
 800659c:	b480      	push	{r7}
 800659e:	b083      	sub	sp, #12
 80065a0:	af00      	add	r7, sp, #0
 80065a2:	6078      	str	r0, [r7, #4]
 80065a4:	2300      	movs	r3, #0
 80065a6:	4618      	mov	r0, r3
 80065a8:	370c      	adds	r7, #12
 80065aa:	46bd      	mov	sp, r7
 80065ac:	bc80      	pop	{r7}
 80065ae:	4770      	bx	lr

080065b0 <USBD_SetClassConfig>:
 80065b0:	b580      	push	{r7, lr}
 80065b2:	b084      	sub	sp, #16
 80065b4:	af00      	add	r7, sp, #0
 80065b6:	6078      	str	r0, [r7, #4]
 80065b8:	460b      	mov	r3, r1
 80065ba:	70fb      	strb	r3, [r7, #3]
 80065bc:	2302      	movs	r3, #2
 80065be:	73fb      	strb	r3, [r7, #15]
 80065c0:	687b      	ldr	r3, [r7, #4]
 80065c2:	f8d3 32b4 	ldr.w	r3, [r3, #692]	; 0x2b4
 80065c6:	2b00      	cmp	r3, #0
 80065c8:	d00c      	beq.n	80065e4 <USBD_SetClassConfig+0x34>
 80065ca:	687b      	ldr	r3, [r7, #4]
 80065cc:	f8d3 32b4 	ldr.w	r3, [r3, #692]	; 0x2b4
 80065d0:	681b      	ldr	r3, [r3, #0]
 80065d2:	78fa      	ldrb	r2, [r7, #3]
 80065d4:	4611      	mov	r1, r2
 80065d6:	6878      	ldr	r0, [r7, #4]
 80065d8:	4798      	blx	r3
 80065da:	4603      	mov	r3, r0
 80065dc:	2b00      	cmp	r3, #0
 80065de:	d101      	bne.n	80065e4 <USBD_SetClassConfig+0x34>
 80065e0:	2300      	movs	r3, #0
 80065e2:	73fb      	strb	r3, [r7, #15]
 80065e4:	7bfb      	ldrb	r3, [r7, #15]
 80065e6:	4618      	mov	r0, r3
 80065e8:	3710      	adds	r7, #16
 80065ea:	46bd      	mov	sp, r7
 80065ec:	bd80      	pop	{r7, pc}

080065ee <USBD_ClrClassConfig>:
 80065ee:	b580      	push	{r7, lr}
 80065f0:	b082      	sub	sp, #8
 80065f2:	af00      	add	r7, sp, #0
 80065f4:	6078      	str	r0, [r7, #4]
 80065f6:	460b      	mov	r3, r1
 80065f8:	70fb      	strb	r3, [r7, #3]
 80065fa:	687b      	ldr	r3, [r7, #4]
 80065fc:	f8d3 32b4 	ldr.w	r3, [r3, #692]	; 0x2b4
 8006600:	685b      	ldr	r3, [r3, #4]
 8006602:	78fa      	ldrb	r2, [r7, #3]
 8006604:	4611      	mov	r1, r2
 8006606:	6878      	ldr	r0, [r7, #4]
 8006608:	4798      	blx	r3
 800660a:	2300      	movs	r3, #0
 800660c:	4618      	mov	r0, r3
 800660e:	3708      	adds	r7, #8
 8006610:	46bd      	mov	sp, r7
 8006612:	bd80      	pop	{r7, pc}

08006614 <USBD_LL_SetupStage>:
 8006614:	b580      	push	{r7, lr}
 8006616:	b082      	sub	sp, #8
 8006618:	af00      	add	r7, sp, #0
 800661a:	6078      	str	r0, [r7, #4]
 800661c:	6039      	str	r1, [r7, #0]
 800661e:	687b      	ldr	r3, [r7, #4]
 8006620:	f503 732a 	add.w	r3, r3, #680	; 0x2a8
 8006624:	6839      	ldr	r1, [r7, #0]
 8006626:	4618      	mov	r0, r3
 8006628:	f000 feca 	bl	80073c0 <USBD_ParseSetupRequest>
 800662c:	687b      	ldr	r3, [r7, #4]
 800662e:	2201      	movs	r2, #1
 8006630:	f8c3 2294 	str.w	r2, [r3, #660]	; 0x294
 8006634:	687b      	ldr	r3, [r7, #4]
 8006636:	f8b3 32ae 	ldrh.w	r3, [r3, #686]	; 0x2ae
 800663a:	461a      	mov	r2, r3
 800663c:	687b      	ldr	r3, [r7, #4]
 800663e:	f8c3 2298 	str.w	r2, [r3, #664]	; 0x298
 8006642:	687b      	ldr	r3, [r7, #4]
 8006644:	f893 32a8 	ldrb.w	r3, [r3, #680]	; 0x2a8
 8006648:	f003 031f 	and.w	r3, r3, #31
 800664c:	2b01      	cmp	r3, #1
 800664e:	d00c      	beq.n	800666a <USBD_LL_SetupStage+0x56>
 8006650:	2b01      	cmp	r3, #1
 8006652:	d302      	bcc.n	800665a <USBD_LL_SetupStage+0x46>
 8006654:	2b02      	cmp	r3, #2
 8006656:	d010      	beq.n	800667a <USBD_LL_SetupStage+0x66>
 8006658:	e017      	b.n	800668a <USBD_LL_SetupStage+0x76>
 800665a:	687b      	ldr	r3, [r7, #4]
 800665c:	f503 732a 	add.w	r3, r3, #680	; 0x2a8
 8006660:	4619      	mov	r1, r3
 8006662:	6878      	ldr	r0, [r7, #4]
 8006664:	f000 f9ca 	bl	80069fc <USBD_StdDevReq>
 8006668:	e01a      	b.n	80066a0 <USBD_LL_SetupStage+0x8c>
 800666a:	687b      	ldr	r3, [r7, #4]
 800666c:	f503 732a 	add.w	r3, r3, #680	; 0x2a8
 8006670:	4619      	mov	r1, r3
 8006672:	6878      	ldr	r0, [r7, #4]
 8006674:	f000 fa2c 	bl	8006ad0 <USBD_StdItfReq>
 8006678:	e012      	b.n	80066a0 <USBD_LL_SetupStage+0x8c>
 800667a:	687b      	ldr	r3, [r7, #4]
 800667c:	f503 732a 	add.w	r3, r3, #680	; 0x2a8
 8006680:	4619      	mov	r1, r3
 8006682:	6878      	ldr	r0, [r7, #4]
 8006684:	f000 fa6a 	bl	8006b5c <USBD_StdEPReq>
 8006688:	e00a      	b.n	80066a0 <USBD_LL_SetupStage+0x8c>
 800668a:	687b      	ldr	r3, [r7, #4]
 800668c:	f893 32a8 	ldrb.w	r3, [r3, #680]	; 0x2a8
 8006690:	f023 037f 	bic.w	r3, r3, #127	; 0x7f
 8006694:	b2db      	uxtb	r3, r3
 8006696:	4619      	mov	r1, r3
 8006698:	6878      	ldr	r0, [r7, #4]
 800669a:	f001 fb03 	bl	8007ca4 <USBD_LL_StallEP>
 800669e:	bf00      	nop
 80066a0:	2300      	movs	r3, #0
 80066a2:	4618      	mov	r0, r3
 80066a4:	3708      	adds	r7, #8
 80066a6:	46bd      	mov	sp, r7
 80066a8:	bd80      	pop	{r7, pc}

080066aa <USBD_LL_DataOutStage>:
 80066aa:	b580      	push	{r7, lr}
 80066ac:	b086      	sub	sp, #24
 80066ae:	af00      	add	r7, sp, #0
 80066b0:	60f8      	str	r0, [r7, #12]
 80066b2:	460b      	mov	r3, r1
 80066b4:	607a      	str	r2, [r7, #4]
 80066b6:	72fb      	strb	r3, [r7, #11]
 80066b8:	7afb      	ldrb	r3, [r7, #11]
 80066ba:	2b00      	cmp	r3, #0
 80066bc:	d14b      	bne.n	8006756 <USBD_LL_DataOutStage+0xac>
 80066be:	68fb      	ldr	r3, [r7, #12]
 80066c0:	f503 73aa 	add.w	r3, r3, #340	; 0x154
 80066c4:	617b      	str	r3, [r7, #20]
 80066c6:	68fb      	ldr	r3, [r7, #12]
 80066c8:	f8d3 3294 	ldr.w	r3, [r3, #660]	; 0x294
 80066cc:	2b03      	cmp	r3, #3
 80066ce:	d134      	bne.n	800673a <USBD_LL_DataOutStage+0x90>
 80066d0:	697b      	ldr	r3, [r7, #20]
 80066d2:	68da      	ldr	r2, [r3, #12]
 80066d4:	697b      	ldr	r3, [r7, #20]
 80066d6:	691b      	ldr	r3, [r3, #16]
 80066d8:	429a      	cmp	r2, r3
 80066da:	d919      	bls.n	8006710 <USBD_LL_DataOutStage+0x66>
 80066dc:	697b      	ldr	r3, [r7, #20]
 80066de:	68da      	ldr	r2, [r3, #12]
 80066e0:	697b      	ldr	r3, [r7, #20]
 80066e2:	691b      	ldr	r3, [r3, #16]
 80066e4:	1ad2      	subs	r2, r2, r3
 80066e6:	697b      	ldr	r3, [r7, #20]
 80066e8:	60da      	str	r2, [r3, #12]
 80066ea:	697b      	ldr	r3, [r7, #20]
 80066ec:	68da      	ldr	r2, [r3, #12]
 80066ee:	697b      	ldr	r3, [r7, #20]
 80066f0:	691b      	ldr	r3, [r3, #16]
 80066f2:	429a      	cmp	r2, r3
 80066f4:	d203      	bcs.n	80066fe <USBD_LL_DataOutStage+0x54>
 80066f6:	697b      	ldr	r3, [r7, #20]
 80066f8:	68db      	ldr	r3, [r3, #12]
 80066fa:	b29b      	uxth	r3, r3
 80066fc:	e002      	b.n	8006704 <USBD_LL_DataOutStage+0x5a>
 80066fe:	697b      	ldr	r3, [r7, #20]
 8006700:	691b      	ldr	r3, [r3, #16]
 8006702:	b29b      	uxth	r3, r3
 8006704:	461a      	mov	r2, r3
 8006706:	6879      	ldr	r1, [r7, #4]
 8006708:	68f8      	ldr	r0, [r7, #12]
 800670a:	f000 ff4b 	bl	80075a4 <USBD_CtlContinueRx>
 800670e:	e038      	b.n	8006782 <USBD_LL_DataOutStage+0xd8>
 8006710:	68fb      	ldr	r3, [r7, #12]
 8006712:	f8d3 32b4 	ldr.w	r3, [r3, #692]	; 0x2b4
 8006716:	691b      	ldr	r3, [r3, #16]
 8006718:	2b00      	cmp	r3, #0
 800671a:	d00a      	beq.n	8006732 <USBD_LL_DataOutStage+0x88>
 800671c:	68fb      	ldr	r3, [r7, #12]
 800671e:	f893 329c 	ldrb.w	r3, [r3, #668]	; 0x29c
 8006722:	2b03      	cmp	r3, #3
 8006724:	d105      	bne.n	8006732 <USBD_LL_DataOutStage+0x88>
 8006726:	68fb      	ldr	r3, [r7, #12]
 8006728:	f8d3 32b4 	ldr.w	r3, [r3, #692]	; 0x2b4
 800672c:	691b      	ldr	r3, [r3, #16]
 800672e:	68f8      	ldr	r0, [r7, #12]
 8006730:	4798      	blx	r3
 8006732:	68f8      	ldr	r0, [r7, #12]
 8006734:	f000 ff48 	bl	80075c8 <USBD_CtlSendStatus>
 8006738:	e023      	b.n	8006782 <USBD_LL_DataOutStage+0xd8>
 800673a:	68fb      	ldr	r3, [r7, #12]
 800673c:	f8d3 3294 	ldr.w	r3, [r3, #660]	; 0x294
 8006740:	2b05      	cmp	r3, #5
 8006742:	d11e      	bne.n	8006782 <USBD_LL_DataOutStage+0xd8>
 8006744:	68fb      	ldr	r3, [r7, #12]
 8006746:	2200      	movs	r2, #0
 8006748:	f8c3 2294 	str.w	r2, [r3, #660]	; 0x294
 800674c:	2100      	movs	r1, #0
 800674e:	68f8      	ldr	r0, [r7, #12]
 8006750:	f001 faa8 	bl	8007ca4 <USBD_LL_StallEP>
 8006754:	e015      	b.n	8006782 <USBD_LL_DataOutStage+0xd8>
 8006756:	68fb      	ldr	r3, [r7, #12]
 8006758:	f8d3 32b4 	ldr.w	r3, [r3, #692]	; 0x2b4
 800675c:	699b      	ldr	r3, [r3, #24]
 800675e:	2b00      	cmp	r3, #0
 8006760:	d00d      	beq.n	800677e <USBD_LL_DataOutStage+0xd4>
 8006762:	68fb      	ldr	r3, [r7, #12]
 8006764:	f893 329c 	ldrb.w	r3, [r3, #668]	; 0x29c
 8006768:	2b03      	cmp	r3, #3
 800676a:	d108      	bne.n	800677e <USBD_LL_DataOutStage+0xd4>
 800676c:	68fb      	ldr	r3, [r7, #12]
 800676e:	f8d3 32b4 	ldr.w	r3, [r3, #692]	; 0x2b4
 8006772:	699b      	ldr	r3, [r3, #24]
 8006774:	7afa      	ldrb	r2, [r7, #11]
 8006776:	4611      	mov	r1, r2
 8006778:	68f8      	ldr	r0, [r7, #12]
 800677a:	4798      	blx	r3
 800677c:	e001      	b.n	8006782 <USBD_LL_DataOutStage+0xd8>
 800677e:	2302      	movs	r3, #2
 8006780:	e000      	b.n	8006784 <USBD_LL_DataOutStage+0xda>
 8006782:	2300      	movs	r3, #0
 8006784:	4618      	mov	r0, r3
 8006786:	3718      	adds	r7, #24
 8006788:	46bd      	mov	sp, r7
 800678a:	bd80      	pop	{r7, pc}

0800678c <USBD_LL_DataInStage>:
 800678c:	b580      	push	{r7, lr}
 800678e:	b086      	sub	sp, #24
 8006790:	af00      	add	r7, sp, #0
 8006792:	60f8      	str	r0, [r7, #12]
 8006794:	460b      	mov	r3, r1
 8006796:	607a      	str	r2, [r7, #4]
 8006798:	72fb      	strb	r3, [r7, #11]
 800679a:	7afb      	ldrb	r3, [r7, #11]
 800679c:	2b00      	cmp	r3, #0
 800679e:	d17f      	bne.n	80068a0 <USBD_LL_DataInStage+0x114>
 80067a0:	68fb      	ldr	r3, [r7, #12]
 80067a2:	3314      	adds	r3, #20
 80067a4:	617b      	str	r3, [r7, #20]
 80067a6:	68fb      	ldr	r3, [r7, #12]
 80067a8:	f8d3 3294 	ldr.w	r3, [r3, #660]	; 0x294
 80067ac:	2b02      	cmp	r3, #2
 80067ae:	d15c      	bne.n	800686a <USBD_LL_DataInStage+0xde>
 80067b0:	697b      	ldr	r3, [r7, #20]
 80067b2:	68da      	ldr	r2, [r3, #12]
 80067b4:	697b      	ldr	r3, [r7, #20]
 80067b6:	691b      	ldr	r3, [r3, #16]
 80067b8:	429a      	cmp	r2, r3
 80067ba:	d915      	bls.n	80067e8 <USBD_LL_DataInStage+0x5c>
 80067bc:	697b      	ldr	r3, [r7, #20]
 80067be:	68da      	ldr	r2, [r3, #12]
 80067c0:	697b      	ldr	r3, [r7, #20]
 80067c2:	691b      	ldr	r3, [r3, #16]
 80067c4:	1ad2      	subs	r2, r2, r3
 80067c6:	697b      	ldr	r3, [r7, #20]
 80067c8:	60da      	str	r2, [r3, #12]
 80067ca:	697b      	ldr	r3, [r7, #20]
 80067cc:	68db      	ldr	r3, [r3, #12]
 80067ce:	b29b      	uxth	r3, r3
 80067d0:	461a      	mov	r2, r3
 80067d2:	6879      	ldr	r1, [r7, #4]
 80067d4:	68f8      	ldr	r0, [r7, #12]
 80067d6:	f000 feb5 	bl	8007544 <USBD_CtlContinueSendData>
 80067da:	2300      	movs	r3, #0
 80067dc:	2200      	movs	r2, #0
 80067de:	2100      	movs	r1, #0
 80067e0:	68f8      	ldr	r0, [r7, #12]
 80067e2:	f001 fb0b 	bl	8007dfc <USBD_LL_PrepareReceive>
 80067e6:	e04e      	b.n	8006886 <USBD_LL_DataInStage+0xfa>
 80067e8:	697b      	ldr	r3, [r7, #20]
 80067ea:	689b      	ldr	r3, [r3, #8]
 80067ec:	697a      	ldr	r2, [r7, #20]
 80067ee:	6912      	ldr	r2, [r2, #16]
 80067f0:	fbb3 f1f2 	udiv	r1, r3, r2
 80067f4:	fb02 f201 	mul.w	r2, r2, r1
 80067f8:	1a9b      	subs	r3, r3, r2
 80067fa:	2b00      	cmp	r3, #0
 80067fc:	d11c      	bne.n	8006838 <USBD_LL_DataInStage+0xac>
 80067fe:	697b      	ldr	r3, [r7, #20]
 8006800:	689a      	ldr	r2, [r3, #8]
 8006802:	697b      	ldr	r3, [r7, #20]
 8006804:	691b      	ldr	r3, [r3, #16]
 8006806:	429a      	cmp	r2, r3
 8006808:	d316      	bcc.n	8006838 <USBD_LL_DataInStage+0xac>
 800680a:	697b      	ldr	r3, [r7, #20]
 800680c:	689a      	ldr	r2, [r3, #8]
 800680e:	68fb      	ldr	r3, [r7, #12]
 8006810:	f8d3 3298 	ldr.w	r3, [r3, #664]	; 0x298
 8006814:	429a      	cmp	r2, r3
 8006816:	d20f      	bcs.n	8006838 <USBD_LL_DataInStage+0xac>
 8006818:	2200      	movs	r2, #0
 800681a:	2100      	movs	r1, #0
 800681c:	68f8      	ldr	r0, [r7, #12]
 800681e:	f000 fe91 	bl	8007544 <USBD_CtlContinueSendData>
 8006822:	68fb      	ldr	r3, [r7, #12]
 8006824:	2200      	movs	r2, #0
 8006826:	f8c3 2298 	str.w	r2, [r3, #664]	; 0x298
 800682a:	2300      	movs	r3, #0
 800682c:	2200      	movs	r2, #0
 800682e:	2100      	movs	r1, #0
 8006830:	68f8      	ldr	r0, [r7, #12]
 8006832:	f001 fae3 	bl	8007dfc <USBD_LL_PrepareReceive>
 8006836:	e026      	b.n	8006886 <USBD_LL_DataInStage+0xfa>
 8006838:	68fb      	ldr	r3, [r7, #12]
 800683a:	f8d3 32b4 	ldr.w	r3, [r3, #692]	; 0x2b4
 800683e:	68db      	ldr	r3, [r3, #12]
 8006840:	2b00      	cmp	r3, #0
 8006842:	d00a      	beq.n	800685a <USBD_LL_DataInStage+0xce>
 8006844:	68fb      	ldr	r3, [r7, #12]
 8006846:	f893 329c 	ldrb.w	r3, [r3, #668]	; 0x29c
 800684a:	2b03      	cmp	r3, #3
 800684c:	d105      	bne.n	800685a <USBD_LL_DataInStage+0xce>
 800684e:	68fb      	ldr	r3, [r7, #12]
 8006850:	f8d3 32b4 	ldr.w	r3, [r3, #692]	; 0x2b4
 8006854:	68db      	ldr	r3, [r3, #12]
 8006856:	68f8      	ldr	r0, [r7, #12]
 8006858:	4798      	blx	r3
 800685a:	2180      	movs	r1, #128	; 0x80
 800685c:	68f8      	ldr	r0, [r7, #12]
 800685e:	f001 fa21 	bl	8007ca4 <USBD_LL_StallEP>
 8006862:	68f8      	ldr	r0, [r7, #12]
 8006864:	f000 fec3 	bl	80075ee <USBD_CtlReceiveStatus>
 8006868:	e00d      	b.n	8006886 <USBD_LL_DataInStage+0xfa>
 800686a:	68fb      	ldr	r3, [r7, #12]
 800686c:	f8d3 3294 	ldr.w	r3, [r3, #660]	; 0x294
 8006870:	2b04      	cmp	r3, #4
 8006872:	d004      	beq.n	800687e <USBD_LL_DataInStage+0xf2>
 8006874:	68fb      	ldr	r3, [r7, #12]
 8006876:	f8d3 3294 	ldr.w	r3, [r3, #660]	; 0x294
 800687a:	2b00      	cmp	r3, #0
 800687c:	d103      	bne.n	8006886 <USBD_LL_DataInStage+0xfa>
 800687e:	2180      	movs	r1, #128	; 0x80
 8006880:	68f8      	ldr	r0, [r7, #12]
 8006882:	f001 fa0f 	bl	8007ca4 <USBD_LL_StallEP>
 8006886:	68fb      	ldr	r3, [r7, #12]
 8006888:	f893 32a0 	ldrb.w	r3, [r3, #672]	; 0x2a0
 800688c:	2b01      	cmp	r3, #1
 800688e:	d11d      	bne.n	80068cc <USBD_LL_DataInStage+0x140>
 8006890:	68f8      	ldr	r0, [r7, #12]
 8006892:	f7ff fe83 	bl	800659c <USBD_RunTestMode>
 8006896:	68fb      	ldr	r3, [r7, #12]
 8006898:	2200      	movs	r2, #0
 800689a:	f883 22a0 	strb.w	r2, [r3, #672]	; 0x2a0
 800689e:	e015      	b.n	80068cc <USBD_LL_DataInStage+0x140>
 80068a0:	68fb      	ldr	r3, [r7, #12]
 80068a2:	f8d3 32b4 	ldr.w	r3, [r3, #692]	; 0x2b4
 80068a6:	695b      	ldr	r3, [r3, #20]
 80068a8:	2b00      	cmp	r3, #0
 80068aa:	d00d      	beq.n	80068c8 <USBD_LL_DataInStage+0x13c>
 80068ac:	68fb      	ldr	r3, [r7, #12]
 80068ae:	f893 329c 	ldrb.w	r3, [r3, #668]	; 0x29c
 80068b2:	2b03      	cmp	r3, #3
 80068b4:	d108      	bne.n	80068c8 <USBD_LL_DataInStage+0x13c>
 80068b6:	68fb      	ldr	r3, [r7, #12]
 80068b8:	f8d3 32b4 	ldr.w	r3, [r3, #692]	; 0x2b4
 80068bc:	695b      	ldr	r3, [r3, #20]
 80068be:	7afa      	ldrb	r2, [r7, #11]
 80068c0:	4611      	mov	r1, r2
 80068c2:	68f8      	ldr	r0, [r7, #12]
 80068c4:	4798      	blx	r3
 80068c6:	e001      	b.n	80068cc <USBD_LL_DataInStage+0x140>
 80068c8:	2302      	movs	r3, #2
 80068ca:	e000      	b.n	80068ce <USBD_LL_DataInStage+0x142>
 80068cc:	2300      	movs	r3, #0
 80068ce:	4618      	mov	r0, r3
 80068d0:	3718      	adds	r7, #24
 80068d2:	46bd      	mov	sp, r7
 80068d4:	bd80      	pop	{r7, pc}

080068d6 <USBD_LL_Reset>:
 80068d6:	b580      	push	{r7, lr}
 80068d8:	b082      	sub	sp, #8
 80068da:	af00      	add	r7, sp, #0
 80068dc:	6078      	str	r0, [r7, #4]
 80068de:	2340      	movs	r3, #64	; 0x40
 80068e0:	2200      	movs	r2, #0
 80068e2:	2100      	movs	r1, #0
 80068e4:	6878      	ldr	r0, [r7, #4]
 80068e6:	f001 f998 	bl	8007c1a <USBD_LL_OpenEP>
 80068ea:	687b      	ldr	r3, [r7, #4]
 80068ec:	2201      	movs	r2, #1
 80068ee:	f8c3 2158 	str.w	r2, [r3, #344]	; 0x158
 80068f2:	687b      	ldr	r3, [r7, #4]
 80068f4:	2240      	movs	r2, #64	; 0x40
 80068f6:	f8c3 2164 	str.w	r2, [r3, #356]	; 0x164
 80068fa:	2340      	movs	r3, #64	; 0x40
 80068fc:	2200      	movs	r2, #0
 80068fe:	2180      	movs	r1, #128	; 0x80
 8006900:	6878      	ldr	r0, [r7, #4]
 8006902:	f001 f98a 	bl	8007c1a <USBD_LL_OpenEP>
 8006906:	687b      	ldr	r3, [r7, #4]
 8006908:	2201      	movs	r2, #1
 800690a:	619a      	str	r2, [r3, #24]
 800690c:	687b      	ldr	r3, [r7, #4]
 800690e:	2240      	movs	r2, #64	; 0x40
 8006910:	625a      	str	r2, [r3, #36]	; 0x24
 8006912:	687b      	ldr	r3, [r7, #4]
 8006914:	2201      	movs	r2, #1
 8006916:	f883 229c 	strb.w	r2, [r3, #668]	; 0x29c
 800691a:	687b      	ldr	r3, [r7, #4]
 800691c:	2200      	movs	r2, #0
 800691e:	f8c3 2294 	str.w	r2, [r3, #660]	; 0x294
 8006922:	687b      	ldr	r3, [r7, #4]
 8006924:	2200      	movs	r2, #0
 8006926:	605a      	str	r2, [r3, #4]
 8006928:	687b      	ldr	r3, [r7, #4]
 800692a:	2200      	movs	r2, #0
 800692c:	f8c3 22a4 	str.w	r2, [r3, #676]	; 0x2a4
 8006930:	687b      	ldr	r3, [r7, #4]
 8006932:	f8d3 32b8 	ldr.w	r3, [r3, #696]	; 0x2b8
 8006936:	2b00      	cmp	r3, #0
 8006938:	d009      	beq.n	800694e <USBD_LL_Reset+0x78>
 800693a:	687b      	ldr	r3, [r7, #4]
 800693c:	f8d3 32b4 	ldr.w	r3, [r3, #692]	; 0x2b4
 8006940:	685b      	ldr	r3, [r3, #4]
 8006942:	687a      	ldr	r2, [r7, #4]
 8006944:	6852      	ldr	r2, [r2, #4]
 8006946:	b2d2      	uxtb	r2, r2
 8006948:	4611      	mov	r1, r2
 800694a:	6878      	ldr	r0, [r7, #4]
 800694c:	4798      	blx	r3
 800694e:	2300      	movs	r3, #0
 8006950:	4618      	mov	r0, r3
 8006952:	3708      	adds	r7, #8
 8006954:	46bd      	mov	sp, r7
 8006956:	bd80      	pop	{r7, pc}

08006958 <USBD_LL_SetSpeed>:
 8006958:	b480      	push	{r7}
 800695a:	b083      	sub	sp, #12
 800695c:	af00      	add	r7, sp, #0
 800695e:	6078      	str	r0, [r7, #4]
 8006960:	460b      	mov	r3, r1
 8006962:	70fb      	strb	r3, [r7, #3]
 8006964:	687b      	ldr	r3, [r7, #4]
 8006966:	78fa      	ldrb	r2, [r7, #3]
 8006968:	741a      	strb	r2, [r3, #16]
 800696a:	2300      	movs	r3, #0
 800696c:	4618      	mov	r0, r3
 800696e:	370c      	adds	r7, #12
 8006970:	46bd      	mov	sp, r7
 8006972:	bc80      	pop	{r7}
 8006974:	4770      	bx	lr

08006976 <USBD_LL_Suspend>:
 8006976:	b480      	push	{r7}
 8006978:	b083      	sub	sp, #12
 800697a:	af00      	add	r7, sp, #0
 800697c:	6078      	str	r0, [r7, #4]
 800697e:	687b      	ldr	r3, [r7, #4]
 8006980:	f893 229c 	ldrb.w	r2, [r3, #668]	; 0x29c
 8006984:	687b      	ldr	r3, [r7, #4]
 8006986:	f883 229d 	strb.w	r2, [r3, #669]	; 0x29d
 800698a:	687b      	ldr	r3, [r7, #4]
 800698c:	2204      	movs	r2, #4
 800698e:	f883 229c 	strb.w	r2, [r3, #668]	; 0x29c
 8006992:	2300      	movs	r3, #0
 8006994:	4618      	mov	r0, r3
 8006996:	370c      	adds	r7, #12
 8006998:	46bd      	mov	sp, r7
 800699a:	bc80      	pop	{r7}
 800699c:	4770      	bx	lr

0800699e <USBD_LL_Resume>:
 800699e:	b480      	push	{r7}
 80069a0:	b083      	sub	sp, #12
 80069a2:	af00      	add	r7, sp, #0
 80069a4:	6078      	str	r0, [r7, #4]
 80069a6:	687b      	ldr	r3, [r7, #4]
 80069a8:	f893 329c 	ldrb.w	r3, [r3, #668]	; 0x29c
 80069ac:	2b04      	cmp	r3, #4
 80069ae:	d105      	bne.n	80069bc <USBD_LL_Resume+0x1e>
 80069b0:	687b      	ldr	r3, [r7, #4]
 80069b2:	f893 229d 	ldrb.w	r2, [r3, #669]	; 0x29d
 80069b6:	687b      	ldr	r3, [r7, #4]
 80069b8:	f883 229c 	strb.w	r2, [r3, #668]	; 0x29c
 80069bc:	2300      	movs	r3, #0
 80069be:	4618      	mov	r0, r3
 80069c0:	370c      	adds	r7, #12
 80069c2:	46bd      	mov	sp, r7
 80069c4:	bc80      	pop	{r7}
 80069c6:	4770      	bx	lr

080069c8 <USBD_LL_SOF>:
 80069c8:	b580      	push	{r7, lr}
 80069ca:	b082      	sub	sp, #8
 80069cc:	af00      	add	r7, sp, #0
 80069ce:	6078      	str	r0, [r7, #4]
 80069d0:	687b      	ldr	r3, [r7, #4]
 80069d2:	f893 329c 	ldrb.w	r3, [r3, #668]	; 0x29c
 80069d6:	2b03      	cmp	r3, #3
 80069d8:	d10b      	bne.n	80069f2 <USBD_LL_SOF+0x2a>
 80069da:	687b      	ldr	r3, [r7, #4]
 80069dc:	f8d3 32b4 	ldr.w	r3, [r3, #692]	; 0x2b4
 80069e0:	69db      	ldr	r3, [r3, #28]
 80069e2:	2b00      	cmp	r3, #0
 80069e4:	d005      	beq.n	80069f2 <USBD_LL_SOF+0x2a>
 80069e6:	687b      	ldr	r3, [r7, #4]
 80069e8:	f8d3 32b4 	ldr.w	r3, [r3, #692]	; 0x2b4
 80069ec:	69db      	ldr	r3, [r3, #28]
 80069ee:	6878      	ldr	r0, [r7, #4]
 80069f0:	4798      	blx	r3
 80069f2:	2300      	movs	r3, #0
 80069f4:	4618      	mov	r0, r3
 80069f6:	3708      	adds	r7, #8
 80069f8:	46bd      	mov	sp, r7
 80069fa:	bd80      	pop	{r7, pc}

080069fc <USBD_StdDevReq>:
 80069fc:	b580      	push	{r7, lr}
 80069fe:	b084      	sub	sp, #16
 8006a00:	af00      	add	r7, sp, #0
 8006a02:	6078      	str	r0, [r7, #4]
 8006a04:	6039      	str	r1, [r7, #0]
 8006a06:	2300      	movs	r3, #0
 8006a08:	73fb      	strb	r3, [r7, #15]
 8006a0a:	683b      	ldr	r3, [r7, #0]
 8006a0c:	781b      	ldrb	r3, [r3, #0]
 8006a0e:	f003 0360 	and.w	r3, r3, #96	; 0x60
 8006a12:	2b20      	cmp	r3, #32
 8006a14:	d004      	beq.n	8006a20 <USBD_StdDevReq+0x24>
 8006a16:	2b40      	cmp	r3, #64	; 0x40
 8006a18:	d002      	beq.n	8006a20 <USBD_StdDevReq+0x24>
 8006a1a:	2b00      	cmp	r3, #0
 8006a1c:	d008      	beq.n	8006a30 <USBD_StdDevReq+0x34>
 8006a1e:	e04c      	b.n	8006aba <USBD_StdDevReq+0xbe>
 8006a20:	687b      	ldr	r3, [r7, #4]
 8006a22:	f8d3 32b4 	ldr.w	r3, [r3, #692]	; 0x2b4
 8006a26:	689b      	ldr	r3, [r3, #8]
 8006a28:	6839      	ldr	r1, [r7, #0]
 8006a2a:	6878      	ldr	r0, [r7, #4]
 8006a2c:	4798      	blx	r3
 8006a2e:	e049      	b.n	8006ac4 <USBD_StdDevReq+0xc8>
 8006a30:	683b      	ldr	r3, [r7, #0]
 8006a32:	785b      	ldrb	r3, [r3, #1]
 8006a34:	2b09      	cmp	r3, #9
 8006a36:	d83a      	bhi.n	8006aae <USBD_StdDevReq+0xb2>
 8006a38:	a201      	add	r2, pc, #4	; (adr r2, 8006a40 <USBD_StdDevReq+0x44>)
 8006a3a:	f852 f023 	ldr.w	pc, [r2, r3, lsl #2]
 8006a3e:	bf00      	nop
 8006a40:	08006a91 	.word	0x08006a91
 8006a44:	08006aa5 	.word	0x08006aa5
 8006a48:	08006aaf 	.word	0x08006aaf
 8006a4c:	08006a9b 	.word	0x08006a9b
 8006a50:	08006aaf 	.word	0x08006aaf
 8006a54:	08006a73 	.word	0x08006a73
 8006a58:	08006a69 	.word	0x08006a69
 8006a5c:	08006aaf 	.word	0x08006aaf
 8006a60:	08006a87 	.word	0x08006a87
 8006a64:	08006a7d 	.word	0x08006a7d
 8006a68:	6839      	ldr	r1, [r7, #0]
 8006a6a:	6878      	ldr	r0, [r7, #4]
 8006a6c:	f000 f9d4 	bl	8006e18 <USBD_GetDescriptor>
 8006a70:	e022      	b.n	8006ab8 <USBD_StdDevReq+0xbc>
 8006a72:	6839      	ldr	r1, [r7, #0]
 8006a74:	6878      	ldr	r0, [r7, #4]
 8006a76:	f000 fb37 	bl	80070e8 <USBD_SetAddress>
 8006a7a:	e01d      	b.n	8006ab8 <USBD_StdDevReq+0xbc>
 8006a7c:	6839      	ldr	r1, [r7, #0]
 8006a7e:	6878      	ldr	r0, [r7, #4]
 8006a80:	f000 fb74 	bl	800716c <USBD_SetConfig>
 8006a84:	e018      	b.n	8006ab8 <USBD_StdDevReq+0xbc>
 8006a86:	6839      	ldr	r1, [r7, #0]
 8006a88:	6878      	ldr	r0, [r7, #4]
 8006a8a:	f000 fbfd 	bl	8007288 <USBD_GetConfig>
 8006a8e:	e013      	b.n	8006ab8 <USBD_StdDevReq+0xbc>
 8006a90:	6839      	ldr	r1, [r7, #0]
 8006a92:	6878      	ldr	r0, [r7, #4]
 8006a94:	f000 fc2c 	bl	80072f0 <USBD_GetStatus>
 8006a98:	e00e      	b.n	8006ab8 <USBD_StdDevReq+0xbc>
 8006a9a:	6839      	ldr	r1, [r7, #0]
 8006a9c:	6878      	ldr	r0, [r7, #4]
 8006a9e:	f000 fc5a 	bl	8007356 <USBD_SetFeature>
 8006aa2:	e009      	b.n	8006ab8 <USBD_StdDevReq+0xbc>
 8006aa4:	6839      	ldr	r1, [r7, #0]
 8006aa6:	6878      	ldr	r0, [r7, #4]
 8006aa8:	f000 fc69 	bl	800737e <USBD_ClrFeature>
 8006aac:	e004      	b.n	8006ab8 <USBD_StdDevReq+0xbc>
 8006aae:	6839      	ldr	r1, [r7, #0]
 8006ab0:	6878      	ldr	r0, [r7, #4]
 8006ab2:	f000 fcc1 	bl	8007438 <USBD_CtlError>
 8006ab6:	bf00      	nop
 8006ab8:	e004      	b.n	8006ac4 <USBD_StdDevReq+0xc8>
 8006aba:	6839      	ldr	r1, [r7, #0]
 8006abc:	6878      	ldr	r0, [r7, #4]
 8006abe:	f000 fcbb 	bl	8007438 <USBD_CtlError>
 8006ac2:	bf00      	nop
 8006ac4:	7bfb      	ldrb	r3, [r7, #15]
 8006ac6:	4618      	mov	r0, r3
 8006ac8:	3710      	adds	r7, #16
 8006aca:	46bd      	mov	sp, r7
 8006acc:	bd80      	pop	{r7, pc}
 8006ace:	bf00      	nop

08006ad0 <USBD_StdItfReq>:
 8006ad0:	b580      	push	{r7, lr}
 8006ad2:	b084      	sub	sp, #16
 8006ad4:	af00      	add	r7, sp, #0
 8006ad6:	6078      	str	r0, [r7, #4]
 8006ad8:	6039      	str	r1, [r7, #0]
 8006ada:	2300      	movs	r3, #0
 8006adc:	73fb      	strb	r3, [r7, #15]
 8006ade:	683b      	ldr	r3, [r7, #0]
 8006ae0:	781b      	ldrb	r3, [r3, #0]
 8006ae2:	f003 0360 	and.w	r3, r3, #96	; 0x60
 8006ae6:	2b20      	cmp	r3, #32
 8006ae8:	d003      	beq.n	8006af2 <USBD_StdItfReq+0x22>
 8006aea:	2b40      	cmp	r3, #64	; 0x40
 8006aec:	d001      	beq.n	8006af2 <USBD_StdItfReq+0x22>
 8006aee:	2b00      	cmp	r3, #0
 8006af0:	d12a      	bne.n	8006b48 <USBD_StdItfReq+0x78>
 8006af2:	687b      	ldr	r3, [r7, #4]
 8006af4:	f893 329c 	ldrb.w	r3, [r3, #668]	; 0x29c
 8006af8:	3b01      	subs	r3, #1
 8006afa:	2b02      	cmp	r3, #2
 8006afc:	d81d      	bhi.n	8006b3a <USBD_StdItfReq+0x6a>
 8006afe:	683b      	ldr	r3, [r7, #0]
 8006b00:	889b      	ldrh	r3, [r3, #4]
 8006b02:	b2db      	uxtb	r3, r3
 8006b04:	2b01      	cmp	r3, #1
 8006b06:	d813      	bhi.n	8006b30 <USBD_StdItfReq+0x60>
 8006b08:	687b      	ldr	r3, [r7, #4]
 8006b0a:	f8d3 32b4 	ldr.w	r3, [r3, #692]	; 0x2b4
 8006b0e:	689b      	ldr	r3, [r3, #8]
 8006b10:	6839      	ldr	r1, [r7, #0]
 8006b12:	6878      	ldr	r0, [r7, #4]
 8006b14:	4798      	blx	r3
 8006b16:	4603      	mov	r3, r0
 8006b18:	73fb      	strb	r3, [r7, #15]
 8006b1a:	683b      	ldr	r3, [r7, #0]
 8006b1c:	88db      	ldrh	r3, [r3, #6]
 8006b1e:	2b00      	cmp	r3, #0
 8006b20:	d110      	bne.n	8006b44 <USBD_StdItfReq+0x74>
 8006b22:	7bfb      	ldrb	r3, [r7, #15]
 8006b24:	2b00      	cmp	r3, #0
 8006b26:	d10d      	bne.n	8006b44 <USBD_StdItfReq+0x74>
 8006b28:	6878      	ldr	r0, [r7, #4]
 8006b2a:	f000 fd4d 	bl	80075c8 <USBD_CtlSendStatus>
 8006b2e:	e009      	b.n	8006b44 <USBD_StdItfReq+0x74>
 8006b30:	6839      	ldr	r1, [r7, #0]
 8006b32:	6878      	ldr	r0, [r7, #4]
 8006b34:	f000 fc80 	bl	8007438 <USBD_CtlError>
 8006b38:	e004      	b.n	8006b44 <USBD_StdItfReq+0x74>
 8006b3a:	6839      	ldr	r1, [r7, #0]
 8006b3c:	6878      	ldr	r0, [r7, #4]
 8006b3e:	f000 fc7b 	bl	8007438 <USBD_CtlError>
 8006b42:	e000      	b.n	8006b46 <USBD_StdItfReq+0x76>
 8006b44:	bf00      	nop
 8006b46:	e004      	b.n	8006b52 <USBD_StdItfReq+0x82>
 8006b48:	6839      	ldr	r1, [r7, #0]
 8006b4a:	6878      	ldr	r0, [r7, #4]
 8006b4c:	f000 fc74 	bl	8007438 <USBD_CtlError>
 8006b50:	bf00      	nop
 8006b52:	2300      	movs	r3, #0
 8006b54:	4618      	mov	r0, r3
 8006b56:	3710      	adds	r7, #16
 8006b58:	46bd      	mov	sp, r7
 8006b5a:	bd80      	pop	{r7, pc}

08006b5c <USBD_StdEPReq>:
 8006b5c:	b580      	push	{r7, lr}
 8006b5e:	b084      	sub	sp, #16
 8006b60:	af00      	add	r7, sp, #0
 8006b62:	6078      	str	r0, [r7, #4]
 8006b64:	6039      	str	r1, [r7, #0]
 8006b66:	2300      	movs	r3, #0
 8006b68:	73fb      	strb	r3, [r7, #15]
 8006b6a:	683b      	ldr	r3, [r7, #0]
 8006b6c:	889b      	ldrh	r3, [r3, #4]
 8006b6e:	73bb      	strb	r3, [r7, #14]
 8006b70:	683b      	ldr	r3, [r7, #0]
 8006b72:	781b      	ldrb	r3, [r3, #0]
 8006b74:	f003 0360 	and.w	r3, r3, #96	; 0x60
 8006b78:	2b20      	cmp	r3, #32
 8006b7a:	d004      	beq.n	8006b86 <USBD_StdEPReq+0x2a>
 8006b7c:	2b40      	cmp	r3, #64	; 0x40
 8006b7e:	d002      	beq.n	8006b86 <USBD_StdEPReq+0x2a>
 8006b80:	2b00      	cmp	r3, #0
 8006b82:	d008      	beq.n	8006b96 <USBD_StdEPReq+0x3a>
 8006b84:	e13d      	b.n	8006e02 <USBD_StdEPReq+0x2a6>
 8006b86:	687b      	ldr	r3, [r7, #4]
 8006b88:	f8d3 32b4 	ldr.w	r3, [r3, #692]	; 0x2b4
 8006b8c:	689b      	ldr	r3, [r3, #8]
 8006b8e:	6839      	ldr	r1, [r7, #0]
 8006b90:	6878      	ldr	r0, [r7, #4]
 8006b92:	4798      	blx	r3
 8006b94:	e13a      	b.n	8006e0c <USBD_StdEPReq+0x2b0>
 8006b96:	683b      	ldr	r3, [r7, #0]
 8006b98:	781b      	ldrb	r3, [r3, #0]
 8006b9a:	f003 0360 	and.w	r3, r3, #96	; 0x60
 8006b9e:	2b20      	cmp	r3, #32
 8006ba0:	d10a      	bne.n	8006bb8 <USBD_StdEPReq+0x5c>
 8006ba2:	687b      	ldr	r3, [r7, #4]
 8006ba4:	f8d3 32b4 	ldr.w	r3, [r3, #692]	; 0x2b4
 8006ba8:	689b      	ldr	r3, [r3, #8]
 8006baa:	6839      	ldr	r1, [r7, #0]
 8006bac:	6878      	ldr	r0, [r7, #4]
 8006bae:	4798      	blx	r3
 8006bb0:	4603      	mov	r3, r0
 8006bb2:	73fb      	strb	r3, [r7, #15]
 8006bb4:	7bfb      	ldrb	r3, [r7, #15]
 8006bb6:	e12a      	b.n	8006e0e <USBD_StdEPReq+0x2b2>
 8006bb8:	683b      	ldr	r3, [r7, #0]
 8006bba:	785b      	ldrb	r3, [r3, #1]
 8006bbc:	2b01      	cmp	r3, #1
 8006bbe:	d03e      	beq.n	8006c3e <USBD_StdEPReq+0xe2>
 8006bc0:	2b03      	cmp	r3, #3
 8006bc2:	d002      	beq.n	8006bca <USBD_StdEPReq+0x6e>
 8006bc4:	2b00      	cmp	r3, #0
 8006bc6:	d070      	beq.n	8006caa <USBD_StdEPReq+0x14e>
 8006bc8:	e115      	b.n	8006df6 <USBD_StdEPReq+0x29a>
 8006bca:	687b      	ldr	r3, [r7, #4]
 8006bcc:	f893 329c 	ldrb.w	r3, [r3, #668]	; 0x29c
 8006bd0:	2b02      	cmp	r3, #2
 8006bd2:	d002      	beq.n	8006bda <USBD_StdEPReq+0x7e>
 8006bd4:	2b03      	cmp	r3, #3
 8006bd6:	d015      	beq.n	8006c04 <USBD_StdEPReq+0xa8>
 8006bd8:	e02b      	b.n	8006c32 <USBD_StdEPReq+0xd6>
 8006bda:	7bbb      	ldrb	r3, [r7, #14]
 8006bdc:	2b00      	cmp	r3, #0
 8006bde:	d00c      	beq.n	8006bfa <USBD_StdEPReq+0x9e>
 8006be0:	7bbb      	ldrb	r3, [r7, #14]
 8006be2:	2b80      	cmp	r3, #128	; 0x80
 8006be4:	d009      	beq.n	8006bfa <USBD_StdEPReq+0x9e>
 8006be6:	7bbb      	ldrb	r3, [r7, #14]
 8006be8:	4619      	mov	r1, r3
 8006bea:	6878      	ldr	r0, [r7, #4]
 8006bec:	f001 f85a 	bl	8007ca4 <USBD_LL_StallEP>
 8006bf0:	2180      	movs	r1, #128	; 0x80
 8006bf2:	6878      	ldr	r0, [r7, #4]
 8006bf4:	f001 f856 	bl	8007ca4 <USBD_LL_StallEP>
 8006bf8:	e020      	b.n	8006c3c <USBD_StdEPReq+0xe0>
 8006bfa:	6839      	ldr	r1, [r7, #0]
 8006bfc:	6878      	ldr	r0, [r7, #4]
 8006bfe:	f000 fc1b 	bl	8007438 <USBD_CtlError>
 8006c02:	e01b      	b.n	8006c3c <USBD_StdEPReq+0xe0>
 8006c04:	683b      	ldr	r3, [r7, #0]
 8006c06:	885b      	ldrh	r3, [r3, #2]
 8006c08:	2b00      	cmp	r3, #0
 8006c0a:	d10e      	bne.n	8006c2a <USBD_StdEPReq+0xce>
 8006c0c:	7bbb      	ldrb	r3, [r7, #14]
 8006c0e:	2b00      	cmp	r3, #0
 8006c10:	d00b      	beq.n	8006c2a <USBD_StdEPReq+0xce>
 8006c12:	7bbb      	ldrb	r3, [r7, #14]
 8006c14:	2b80      	cmp	r3, #128	; 0x80
 8006c16:	d008      	beq.n	8006c2a <USBD_StdEPReq+0xce>
 8006c18:	683b      	ldr	r3, [r7, #0]
 8006c1a:	88db      	ldrh	r3, [r3, #6]
 8006c1c:	2b00      	cmp	r3, #0
 8006c1e:	d104      	bne.n	8006c2a <USBD_StdEPReq+0xce>
 8006c20:	7bbb      	ldrb	r3, [r7, #14]
 8006c22:	4619      	mov	r1, r3
 8006c24:	6878      	ldr	r0, [r7, #4]
 8006c26:	f001 f83d 	bl	8007ca4 <USBD_LL_StallEP>
 8006c2a:	6878      	ldr	r0, [r7, #4]
 8006c2c:	f000 fccc 	bl	80075c8 <USBD_CtlSendStatus>
 8006c30:	e004      	b.n	8006c3c <USBD_StdEPReq+0xe0>
 8006c32:	6839      	ldr	r1, [r7, #0]
 8006c34:	6878      	ldr	r0, [r7, #4]
 8006c36:	f000 fbff 	bl	8007438 <USBD_CtlError>
 8006c3a:	bf00      	nop
 8006c3c:	e0e0      	b.n	8006e00 <USBD_StdEPReq+0x2a4>
 8006c3e:	687b      	ldr	r3, [r7, #4]
 8006c40:	f893 329c 	ldrb.w	r3, [r3, #668]	; 0x29c
 8006c44:	2b02      	cmp	r3, #2
 8006c46:	d002      	beq.n	8006c4e <USBD_StdEPReq+0xf2>
 8006c48:	2b03      	cmp	r3, #3
 8006c4a:	d015      	beq.n	8006c78 <USBD_StdEPReq+0x11c>
 8006c4c:	e026      	b.n	8006c9c <USBD_StdEPReq+0x140>
 8006c4e:	7bbb      	ldrb	r3, [r7, #14]
 8006c50:	2b00      	cmp	r3, #0
 8006c52:	d00c      	beq.n	8006c6e <USBD_StdEPReq+0x112>
 8006c54:	7bbb      	ldrb	r3, [r7, #14]
 8006c56:	2b80      	cmp	r3, #128	; 0x80
 8006c58:	d009      	beq.n	8006c6e <USBD_StdEPReq+0x112>
 8006c5a:	7bbb      	ldrb	r3, [r7, #14]
 8006c5c:	4619      	mov	r1, r3
 8006c5e:	6878      	ldr	r0, [r7, #4]
 8006c60:	f001 f820 	bl	8007ca4 <USBD_LL_StallEP>
 8006c64:	2180      	movs	r1, #128	; 0x80
 8006c66:	6878      	ldr	r0, [r7, #4]
 8006c68:	f001 f81c 	bl	8007ca4 <USBD_LL_StallEP>
 8006c6c:	e01c      	b.n	8006ca8 <USBD_StdEPReq+0x14c>
 8006c6e:	6839      	ldr	r1, [r7, #0]
 8006c70:	6878      	ldr	r0, [r7, #4]
 8006c72:	f000 fbe1 	bl	8007438 <USBD_CtlError>
 8006c76:	e017      	b.n	8006ca8 <USBD_StdEPReq+0x14c>
 8006c78:	683b      	ldr	r3, [r7, #0]
 8006c7a:	885b      	ldrh	r3, [r3, #2]
 8006c7c:	2b00      	cmp	r3, #0
 8006c7e:	d112      	bne.n	8006ca6 <USBD_StdEPReq+0x14a>
 8006c80:	7bbb      	ldrb	r3, [r7, #14]
 8006c82:	f003 037f 	and.w	r3, r3, #127	; 0x7f
 8006c86:	2b00      	cmp	r3, #0
 8006c88:	d004      	beq.n	8006c94 <USBD_StdEPReq+0x138>
 8006c8a:	7bbb      	ldrb	r3, [r7, #14]
 8006c8c:	4619      	mov	r1, r3
 8006c8e:	6878      	ldr	r0, [r7, #4]
 8006c90:	f001 f827 	bl	8007ce2 <USBD_LL_ClearStallEP>
 8006c94:	6878      	ldr	r0, [r7, #4]
 8006c96:	f000 fc97 	bl	80075c8 <USBD_CtlSendStatus>
 8006c9a:	e004      	b.n	8006ca6 <USBD_StdEPReq+0x14a>
 8006c9c:	6839      	ldr	r1, [r7, #0]
 8006c9e:	6878      	ldr	r0, [r7, #4]
 8006ca0:	f000 fbca 	bl	8007438 <USBD_CtlError>
 8006ca4:	e000      	b.n	8006ca8 <USBD_StdEPReq+0x14c>
 8006ca6:	bf00      	nop
 8006ca8:	e0aa      	b.n	8006e00 <USBD_StdEPReq+0x2a4>
 8006caa:	687b      	ldr	r3, [r7, #4]
 8006cac:	f893 329c 	ldrb.w	r3, [r3, #668]	; 0x29c
 8006cb0:	2b02      	cmp	r3, #2
 8006cb2:	d002      	beq.n	8006cba <USBD_StdEPReq+0x15e>
 8006cb4:	2b03      	cmp	r3, #3
 8006cb6:	d032      	beq.n	8006d1e <USBD_StdEPReq+0x1c2>
 8006cb8:	e097      	b.n	8006dea <USBD_StdEPReq+0x28e>
 8006cba:	7bbb      	ldrb	r3, [r7, #14]
 8006cbc:	2b00      	cmp	r3, #0
 8006cbe:	d007      	beq.n	8006cd0 <USBD_StdEPReq+0x174>
 8006cc0:	7bbb      	ldrb	r3, [r7, #14]
 8006cc2:	2b80      	cmp	r3, #128	; 0x80
 8006cc4:	d004      	beq.n	8006cd0 <USBD_StdEPReq+0x174>
 8006cc6:	6839      	ldr	r1, [r7, #0]
 8006cc8:	6878      	ldr	r0, [r7, #4]
 8006cca:	f000 fbb5 	bl	8007438 <USBD_CtlError>
 8006cce:	e091      	b.n	8006df4 <USBD_StdEPReq+0x298>
 8006cd0:	f997 300e 	ldrsb.w	r3, [r7, #14]
 8006cd4:	2b00      	cmp	r3, #0
 8006cd6:	da0b      	bge.n	8006cf0 <USBD_StdEPReq+0x194>
 8006cd8:	7bbb      	ldrb	r3, [r7, #14]
 8006cda:	f003 027f 	and.w	r2, r3, #127	; 0x7f
 8006cde:	4613      	mov	r3, r2
 8006ce0:	009b      	lsls	r3, r3, #2
 8006ce2:	4413      	add	r3, r2
 8006ce4:	009b      	lsls	r3, r3, #2
 8006ce6:	3310      	adds	r3, #16
 8006ce8:	687a      	ldr	r2, [r7, #4]
 8006cea:	4413      	add	r3, r2
 8006cec:	3304      	adds	r3, #4
 8006cee:	e00b      	b.n	8006d08 <USBD_StdEPReq+0x1ac>
 8006cf0:	7bbb      	ldrb	r3, [r7, #14]
 8006cf2:	f003 027f 	and.w	r2, r3, #127	; 0x7f
 8006cf6:	4613      	mov	r3, r2
 8006cf8:	009b      	lsls	r3, r3, #2
 8006cfa:	4413      	add	r3, r2
 8006cfc:	009b      	lsls	r3, r3, #2
 8006cfe:	f503 73a8 	add.w	r3, r3, #336	; 0x150
 8006d02:	687a      	ldr	r2, [r7, #4]
 8006d04:	4413      	add	r3, r2
 8006d06:	3304      	adds	r3, #4
 8006d08:	60bb      	str	r3, [r7, #8]
 8006d0a:	68bb      	ldr	r3, [r7, #8]
 8006d0c:	2200      	movs	r2, #0
 8006d0e:	601a      	str	r2, [r3, #0]
 8006d10:	68bb      	ldr	r3, [r7, #8]
 8006d12:	2202      	movs	r2, #2
 8006d14:	4619      	mov	r1, r3
 8006d16:	6878      	ldr	r0, [r7, #4]
 8006d18:	f000 fbf8 	bl	800750c <USBD_CtlSendData>
 8006d1c:	e06a      	b.n	8006df4 <USBD_StdEPReq+0x298>
 8006d1e:	f997 300e 	ldrsb.w	r3, [r7, #14]
 8006d22:	2b00      	cmp	r3, #0
 8006d24:	da11      	bge.n	8006d4a <USBD_StdEPReq+0x1ee>
 8006d26:	7bbb      	ldrb	r3, [r7, #14]
 8006d28:	f003 020f 	and.w	r2, r3, #15
 8006d2c:	6879      	ldr	r1, [r7, #4]
 8006d2e:	4613      	mov	r3, r2
 8006d30:	009b      	lsls	r3, r3, #2
 8006d32:	4413      	add	r3, r2
 8006d34:	009b      	lsls	r3, r3, #2
 8006d36:	440b      	add	r3, r1
 8006d38:	3318      	adds	r3, #24
 8006d3a:	681b      	ldr	r3, [r3, #0]
 8006d3c:	2b00      	cmp	r3, #0
 8006d3e:	d117      	bne.n	8006d70 <USBD_StdEPReq+0x214>
 8006d40:	6839      	ldr	r1, [r7, #0]
 8006d42:	6878      	ldr	r0, [r7, #4]
 8006d44:	f000 fb78 	bl	8007438 <USBD_CtlError>
 8006d48:	e054      	b.n	8006df4 <USBD_StdEPReq+0x298>
 8006d4a:	7bbb      	ldrb	r3, [r7, #14]
 8006d4c:	f003 020f 	and.w	r2, r3, #15
 8006d50:	6879      	ldr	r1, [r7, #4]
 8006d52:	4613      	mov	r3, r2
 8006d54:	009b      	lsls	r3, r3, #2
 8006d56:	4413      	add	r3, r2
 8006d58:	009b      	lsls	r3, r3, #2
 8006d5a:	440b      	add	r3, r1
 8006d5c:	f503 73ac 	add.w	r3, r3, #344	; 0x158
 8006d60:	681b      	ldr	r3, [r3, #0]
 8006d62:	2b00      	cmp	r3, #0
 8006d64:	d104      	bne.n	8006d70 <USBD_StdEPReq+0x214>
 8006d66:	6839      	ldr	r1, [r7, #0]
 8006d68:	6878      	ldr	r0, [r7, #4]
 8006d6a:	f000 fb65 	bl	8007438 <USBD_CtlError>
 8006d6e:	e041      	b.n	8006df4 <USBD_StdEPReq+0x298>
 8006d70:	f997 300e 	ldrsb.w	r3, [r7, #14]
 8006d74:	2b00      	cmp	r3, #0
 8006d76:	da0b      	bge.n	8006d90 <USBD_StdEPReq+0x234>
 8006d78:	7bbb      	ldrb	r3, [r7, #14]
 8006d7a:	f003 027f 	and.w	r2, r3, #127	; 0x7f
 8006d7e:	4613      	mov	r3, r2
 8006d80:	009b      	lsls	r3, r3, #2
 8006d82:	4413      	add	r3, r2
 8006d84:	009b      	lsls	r3, r3, #2
 8006d86:	3310      	adds	r3, #16
 8006d88:	687a      	ldr	r2, [r7, #4]
 8006d8a:	4413      	add	r3, r2
 8006d8c:	3304      	adds	r3, #4
 8006d8e:	e00b      	b.n	8006da8 <USBD_StdEPReq+0x24c>
 8006d90:	7bbb      	ldrb	r3, [r7, #14]
 8006d92:	f003 027f 	and.w	r2, r3, #127	; 0x7f
 8006d96:	4613      	mov	r3, r2
 8006d98:	009b      	lsls	r3, r3, #2
 8006d9a:	4413      	add	r3, r2
 8006d9c:	009b      	lsls	r3, r3, #2
 8006d9e:	f503 73a8 	add.w	r3, r3, #336	; 0x150
 8006da2:	687a      	ldr	r2, [r7, #4]
 8006da4:	4413      	add	r3, r2
 8006da6:	3304      	adds	r3, #4
 8006da8:	60bb      	str	r3, [r7, #8]
 8006daa:	7bbb      	ldrb	r3, [r7, #14]
 8006dac:	2b00      	cmp	r3, #0
 8006dae:	d002      	beq.n	8006db6 <USBD_StdEPReq+0x25a>
 8006db0:	7bbb      	ldrb	r3, [r7, #14]
 8006db2:	2b80      	cmp	r3, #128	; 0x80
 8006db4:	d103      	bne.n	8006dbe <USBD_StdEPReq+0x262>
 8006db6:	68bb      	ldr	r3, [r7, #8]
 8006db8:	2200      	movs	r2, #0
 8006dba:	601a      	str	r2, [r3, #0]
 8006dbc:	e00e      	b.n	8006ddc <USBD_StdEPReq+0x280>
 8006dbe:	7bbb      	ldrb	r3, [r7, #14]
 8006dc0:	4619      	mov	r1, r3
 8006dc2:	6878      	ldr	r0, [r7, #4]
 8006dc4:	f000 ffac 	bl	8007d20 <USBD_LL_IsStallEP>
 8006dc8:	4603      	mov	r3, r0
 8006dca:	2b00      	cmp	r3, #0
 8006dcc:	d003      	beq.n	8006dd6 <USBD_StdEPReq+0x27a>
 8006dce:	68bb      	ldr	r3, [r7, #8]
 8006dd0:	2201      	movs	r2, #1
 8006dd2:	601a      	str	r2, [r3, #0]
 8006dd4:	e002      	b.n	8006ddc <USBD_StdEPReq+0x280>
 8006dd6:	68bb      	ldr	r3, [r7, #8]
 8006dd8:	2200      	movs	r2, #0
 8006dda:	601a      	str	r2, [r3, #0]
 8006ddc:	68bb      	ldr	r3, [r7, #8]
 8006dde:	2202      	movs	r2, #2
 8006de0:	4619      	mov	r1, r3
 8006de2:	6878      	ldr	r0, [r7, #4]
 8006de4:	f000 fb92 	bl	800750c <USBD_CtlSendData>
 8006de8:	e004      	b.n	8006df4 <USBD_StdEPReq+0x298>
 8006dea:	6839      	ldr	r1, [r7, #0]
 8006dec:	6878      	ldr	r0, [r7, #4]
 8006dee:	f000 fb23 	bl	8007438 <USBD_CtlError>
 8006df2:	bf00      	nop
 8006df4:	e004      	b.n	8006e00 <USBD_StdEPReq+0x2a4>
 8006df6:	6839      	ldr	r1, [r7, #0]
 8006df8:	6878      	ldr	r0, [r7, #4]
 8006dfa:	f000 fb1d 	bl	8007438 <USBD_CtlError>
 8006dfe:	bf00      	nop
 8006e00:	e004      	b.n	8006e0c <USBD_StdEPReq+0x2b0>
 8006e02:	6839      	ldr	r1, [r7, #0]
 8006e04:	6878      	ldr	r0, [r7, #4]
 8006e06:	f000 fb17 	bl	8007438 <USBD_CtlError>
 8006e0a:	bf00      	nop
 8006e0c:	7bfb      	ldrb	r3, [r7, #15]
 8006e0e:	4618      	mov	r0, r3
 8006e10:	3710      	adds	r7, #16
 8006e12:	46bd      	mov	sp, r7
 8006e14:	bd80      	pop	{r7, pc}
	...

08006e18 <USBD_GetDescriptor>:
 8006e18:	b580      	push	{r7, lr}
 8006e1a:	b084      	sub	sp, #16
 8006e1c:	af00      	add	r7, sp, #0
 8006e1e:	6078      	str	r0, [r7, #4]
 8006e20:	6039      	str	r1, [r7, #0]
 8006e22:	2300      	movs	r3, #0
 8006e24:	813b      	strh	r3, [r7, #8]
 8006e26:	2300      	movs	r3, #0
 8006e28:	60fb      	str	r3, [r7, #12]
 8006e2a:	2300      	movs	r3, #0
 8006e2c:	72fb      	strb	r3, [r7, #11]
 8006e2e:	683b      	ldr	r3, [r7, #0]
 8006e30:	885b      	ldrh	r3, [r3, #2]
 8006e32:	0a1b      	lsrs	r3, r3, #8
 8006e34:	b29b      	uxth	r3, r3
 8006e36:	3b01      	subs	r3, #1
 8006e38:	2b06      	cmp	r3, #6
 8006e3a:	f200 8128 	bhi.w	800708e <USBD_GetDescriptor+0x276>
 8006e3e:	a201      	add	r2, pc, #4	; (adr r2, 8006e44 <USBD_GetDescriptor+0x2c>)
 8006e40:	f852 f023 	ldr.w	pc, [r2, r3, lsl #2]
 8006e44:	08006e61 	.word	0x08006e61
 8006e48:	08006e79 	.word	0x08006e79
 8006e4c:	08006eb9 	.word	0x08006eb9
 8006e50:	0800708f 	.word	0x0800708f
 8006e54:	0800708f 	.word	0x0800708f
 8006e58:	0800702f 	.word	0x0800702f
 8006e5c:	0800705b 	.word	0x0800705b
 8006e60:	687b      	ldr	r3, [r7, #4]
 8006e62:	f8d3 32b0 	ldr.w	r3, [r3, #688]	; 0x2b0
 8006e66:	681b      	ldr	r3, [r3, #0]
 8006e68:	687a      	ldr	r2, [r7, #4]
 8006e6a:	7c12      	ldrb	r2, [r2, #16]
 8006e6c:	f107 0108 	add.w	r1, r7, #8
 8006e70:	4610      	mov	r0, r2
 8006e72:	4798      	blx	r3
 8006e74:	60f8      	str	r0, [r7, #12]
 8006e76:	e112      	b.n	800709e <USBD_GetDescriptor+0x286>
 8006e78:	687b      	ldr	r3, [r7, #4]
 8006e7a:	7c1b      	ldrb	r3, [r3, #16]
 8006e7c:	2b00      	cmp	r3, #0
 8006e7e:	d10d      	bne.n	8006e9c <USBD_GetDescriptor+0x84>
 8006e80:	687b      	ldr	r3, [r7, #4]
 8006e82:	f8d3 32b4 	ldr.w	r3, [r3, #692]	; 0x2b4
 8006e86:	6a9b      	ldr	r3, [r3, #40]	; 0x28
 8006e88:	f107 0208 	add.w	r2, r7, #8
 8006e8c:	4610      	mov	r0, r2
 8006e8e:	4798      	blx	r3
 8006e90:	60f8      	str	r0, [r7, #12]
 8006e92:	68fb      	ldr	r3, [r7, #12]
 8006e94:	3301      	adds	r3, #1
 8006e96:	2202      	movs	r2, #2
 8006e98:	701a      	strb	r2, [r3, #0]
 8006e9a:	e100      	b.n	800709e <USBD_GetDescriptor+0x286>
 8006e9c:	687b      	ldr	r3, [r7, #4]
 8006e9e:	f8d3 32b4 	ldr.w	r3, [r3, #692]	; 0x2b4
 8006ea2:	6adb      	ldr	r3, [r3, #44]	; 0x2c
 8006ea4:	f107 0208 	add.w	r2, r7, #8
 8006ea8:	4610      	mov	r0, r2
 8006eaa:	4798      	blx	r3
 8006eac:	60f8      	str	r0, [r7, #12]
 8006eae:	68fb      	ldr	r3, [r7, #12]
 8006eb0:	3301      	adds	r3, #1
 8006eb2:	2202      	movs	r2, #2
 8006eb4:	701a      	strb	r2, [r3, #0]
 8006eb6:	e0f2      	b.n	800709e <USBD_GetDescriptor+0x286>
 8006eb8:	683b      	ldr	r3, [r7, #0]
 8006eba:	885b      	ldrh	r3, [r3, #2]
 8006ebc:	b2db      	uxtb	r3, r3
 8006ebe:	2b05      	cmp	r3, #5
 8006ec0:	f200 80ac 	bhi.w	800701c <USBD_GetDescriptor+0x204>
 8006ec4:	a201      	add	r2, pc, #4	; (adr r2, 8006ecc <USBD_GetDescriptor+0xb4>)
 8006ec6:	f852 f023 	ldr.w	pc, [r2, r3, lsl #2]
 8006eca:	bf00      	nop
 8006ecc:	08006ee5 	.word	0x08006ee5
 8006ed0:	08006f19 	.word	0x08006f19
 8006ed4:	08006f4d 	.word	0x08006f4d
 8006ed8:	08006f81 	.word	0x08006f81
 8006edc:	08006fb5 	.word	0x08006fb5
 8006ee0:	08006fe9 	.word	0x08006fe9
 8006ee4:	687b      	ldr	r3, [r7, #4]
 8006ee6:	f8d3 32b0 	ldr.w	r3, [r3, #688]	; 0x2b0
 8006eea:	685b      	ldr	r3, [r3, #4]
 8006eec:	2b00      	cmp	r3, #0
 8006eee:	d00b      	beq.n	8006f08 <USBD_GetDescriptor+0xf0>
 8006ef0:	687b      	ldr	r3, [r7, #4]
 8006ef2:	f8d3 32b0 	ldr.w	r3, [r3, #688]	; 0x2b0
 8006ef6:	685b      	ldr	r3, [r3, #4]
 8006ef8:	687a      	ldr	r2, [r7, #4]
 8006efa:	7c12      	ldrb	r2, [r2, #16]
 8006efc:	f107 0108 	add.w	r1, r7, #8
 8006f00:	4610      	mov	r0, r2
 8006f02:	4798      	blx	r3
 8006f04:	60f8      	str	r0, [r7, #12]
 8006f06:	e091      	b.n	800702c <USBD_GetDescriptor+0x214>
 8006f08:	6839      	ldr	r1, [r7, #0]
 8006f0a:	6878      	ldr	r0, [r7, #4]
 8006f0c:	f000 fa94 	bl	8007438 <USBD_CtlError>
 8006f10:	7afb      	ldrb	r3, [r7, #11]
 8006f12:	3301      	adds	r3, #1
 8006f14:	72fb      	strb	r3, [r7, #11]
 8006f16:	e089      	b.n	800702c <USBD_GetDescriptor+0x214>
 8006f18:	687b      	ldr	r3, [r7, #4]
 8006f1a:	f8d3 32b0 	ldr.w	r3, [r3, #688]	; 0x2b0
 8006f1e:	689b      	ldr	r3, [r3, #8]
 8006f20:	2b00      	cmp	r3, #0
 8006f22:	d00b      	beq.n	8006f3c <USBD_GetDescriptor+0x124>
 8006f24:	687b      	ldr	r3, [r7, #4]
 8006f26:	f8d3 32b0 	ldr.w	r3, [r3, #688]	; 0x2b0
 8006f2a:	689b      	ldr	r3, [r3, #8]
 8006f2c:	687a      	ldr	r2, [r7, #4]
 8006f2e:	7c12      	ldrb	r2, [r2, #16]
 8006f30:	f107 0108 	add.w	r1, r7, #8
 8006f34:	4610      	mov	r0, r2
 8006f36:	4798      	blx	r3
 8006f38:	60f8      	str	r0, [r7, #12]
 8006f3a:	e077      	b.n	800702c <USBD_GetDescriptor+0x214>
 8006f3c:	6839      	ldr	r1, [r7, #0]
 8006f3e:	6878      	ldr	r0, [r7, #4]
 8006f40:	f000 fa7a 	bl	8007438 <USBD_CtlError>
 8006f44:	7afb      	ldrb	r3, [r7, #11]
 8006f46:	3301      	adds	r3, #1
 8006f48:	72fb      	strb	r3, [r7, #11]
 8006f4a:	e06f      	b.n	800702c <USBD_GetDescriptor+0x214>
 8006f4c:	687b      	ldr	r3, [r7, #4]
 8006f4e:	f8d3 32b0 	ldr.w	r3, [r3, #688]	; 0x2b0
 8006f52:	68db      	ldr	r3, [r3, #12]
 8006f54:	2b00      	cmp	r3, #0
 8006f56:	d00b      	beq.n	8006f70 <USBD_GetDescriptor+0x158>
 8006f58:	687b      	ldr	r3, [r7, #4]
 8006f5a:	f8d3 32b0 	ldr.w	r3, [r3, #688]	; 0x2b0
 8006f5e:	68db      	ldr	r3, [r3, #12]
 8006f60:	687a      	ldr	r2, [r7, #4]
 8006f62:	7c12      	ldrb	r2, [r2, #16]
 8006f64:	f107 0108 	add.w	r1, r7, #8
 8006f68:	4610      	mov	r0, r2
 8006f6a:	4798      	blx	r3
 8006f6c:	60f8      	str	r0, [r7, #12]
 8006f6e:	e05d      	b.n	800702c <USBD_GetDescriptor+0x214>
 8006f70:	6839      	ldr	r1, [r7, #0]
 8006f72:	6878      	ldr	r0, [r7, #4]
 8006f74:	f000 fa60 	bl	8007438 <USBD_CtlError>
 8006f78:	7afb      	ldrb	r3, [r7, #11]
 8006f7a:	3301      	adds	r3, #1
 8006f7c:	72fb      	strb	r3, [r7, #11]
 8006f7e:	e055      	b.n	800702c <USBD_GetDescriptor+0x214>
 8006f80:	687b      	ldr	r3, [r7, #4]
 8006f82:	f8d3 32b0 	ldr.w	r3, [r3, #688]	; 0x2b0
 8006f86:	691b      	ldr	r3, [r3, #16]
 8006f88:	2b00      	cmp	r3, #0
 8006f8a:	d00b      	beq.n	8006fa4 <USBD_GetDescriptor+0x18c>
 8006f8c:	687b      	ldr	r3, [r7, #4]
 8006f8e:	f8d3 32b0 	ldr.w	r3, [r3, #688]	; 0x2b0
 8006f92:	691b      	ldr	r3, [r3, #16]
 8006f94:	687a      	ldr	r2, [r7, #4]
 8006f96:	7c12      	ldrb	r2, [r2, #16]
 8006f98:	f107 0108 	add.w	r1, r7, #8
 8006f9c:	4610      	mov	r0, r2
 8006f9e:	4798      	blx	r3
 8006fa0:	60f8      	str	r0, [r7, #12]
 8006fa2:	e043      	b.n	800702c <USBD_GetDescriptor+0x214>
 8006fa4:	6839      	ldr	r1, [r7, #0]
 8006fa6:	6878      	ldr	r0, [r7, #4]
 8006fa8:	f000 fa46 	bl	8007438 <USBD_CtlError>
 8006fac:	7afb      	ldrb	r3, [r7, #11]
 8006fae:	3301      	adds	r3, #1
 8006fb0:	72fb      	strb	r3, [r7, #11]
 8006fb2:	e03b      	b.n	800702c <USBD_GetDescriptor+0x214>
 8006fb4:	687b      	ldr	r3, [r7, #4]
 8006fb6:	f8d3 32b0 	ldr.w	r3, [r3, #688]	; 0x2b0
 8006fba:	695b      	ldr	r3, [r3, #20]
 8006fbc:	2b00      	cmp	r3, #0
 8006fbe:	d00b      	beq.n	8006fd8 <USBD_GetDescriptor+0x1c0>
 8006fc0:	687b      	ldr	r3, [r7, #4]
 8006fc2:	f8d3 32b0 	ldr.w	r3, [r3, #688]	; 0x2b0
 8006fc6:	695b      	ldr	r3, [r3, #20]
 8006fc8:	687a      	ldr	r2, [r7, #4]
 8006fca:	7c12      	ldrb	r2, [r2, #16]
 8006fcc:	f107 0108 	add.w	r1, r7, #8
 8006fd0:	4610      	mov	r0, r2
 8006fd2:	4798      	blx	r3
 8006fd4:	60f8      	str	r0, [r7, #12]
 8006fd6:	e029      	b.n	800702c <USBD_GetDescriptor+0x214>
 8006fd8:	6839      	ldr	r1, [r7, #0]
 8006fda:	6878      	ldr	r0, [r7, #4]
 8006fdc:	f000 fa2c 	bl	8007438 <USBD_CtlError>
 8006fe0:	7afb      	ldrb	r3, [r7, #11]
 8006fe2:	3301      	adds	r3, #1
 8006fe4:	72fb      	strb	r3, [r7, #11]
 8006fe6:	e021      	b.n	800702c <USBD_GetDescriptor+0x214>
 8006fe8:	687b      	ldr	r3, [r7, #4]
 8006fea:	f8d3 32b0 	ldr.w	r3, [r3, #688]	; 0x2b0
 8006fee:	699b      	ldr	r3, [r3, #24]
 8006ff0:	2b00      	cmp	r3, #0
 8006ff2:	d00b      	beq.n	800700c <USBD_GetDescriptor+0x1f4>
 8006ff4:	687b      	ldr	r3, [r7, #4]
 8006ff6:	f8d3 32b0 	ldr.w	r3, [r3, #688]	; 0x2b0
 8006ffa:	699b      	ldr	r3, [r3, #24]
 8006ffc:	687a      	ldr	r2, [r7, #4]
 8006ffe:	7c12      	ldrb	r2, [r2, #16]
 8007000:	f107 0108 	add.w	r1, r7, #8
 8007004:	4610      	mov	r0, r2
 8007006:	4798      	blx	r3
 8007008:	60f8      	str	r0, [r7, #12]
 800700a:	e00f      	b.n	800702c <USBD_GetDescriptor+0x214>
 800700c:	6839      	ldr	r1, [r7, #0]
 800700e:	6878      	ldr	r0, [r7, #4]
 8007010:	f000 fa12 	bl	8007438 <USBD_CtlError>
 8007014:	7afb      	ldrb	r3, [r7, #11]
 8007016:	3301      	adds	r3, #1
 8007018:	72fb      	strb	r3, [r7, #11]
 800701a:	e007      	b.n	800702c <USBD_GetDescriptor+0x214>
 800701c:	6839      	ldr	r1, [r7, #0]
 800701e:	6878      	ldr	r0, [r7, #4]
 8007020:	f000 fa0a 	bl	8007438 <USBD_CtlError>
 8007024:	7afb      	ldrb	r3, [r7, #11]
 8007026:	3301      	adds	r3, #1
 8007028:	72fb      	strb	r3, [r7, #11]
 800702a:	e038      	b.n	800709e <USBD_GetDescriptor+0x286>
 800702c:	e037      	b.n	800709e <USBD_GetDescriptor+0x286>
 800702e:	687b      	ldr	r3, [r7, #4]
 8007030:	7c1b      	ldrb	r3, [r3, #16]
 8007032:	2b00      	cmp	r3, #0
 8007034:	d109      	bne.n	800704a <USBD_GetDescriptor+0x232>
 8007036:	687b      	ldr	r3, [r7, #4]
 8007038:	f8d3 32b4 	ldr.w	r3, [r3, #692]	; 0x2b4
 800703c:	6b5b      	ldr	r3, [r3, #52]	; 0x34
 800703e:	f107 0208 	add.w	r2, r7, #8
 8007042:	4610      	mov	r0, r2
 8007044:	4798      	blx	r3
 8007046:	60f8      	str	r0, [r7, #12]
 8007048:	e029      	b.n	800709e <USBD_GetDescriptor+0x286>
 800704a:	6839      	ldr	r1, [r7, #0]
 800704c:	6878      	ldr	r0, [r7, #4]
 800704e:	f000 f9f3 	bl	8007438 <USBD_CtlError>
 8007052:	7afb      	ldrb	r3, [r7, #11]
 8007054:	3301      	adds	r3, #1
 8007056:	72fb      	strb	r3, [r7, #11]
 8007058:	e021      	b.n	800709e <USBD_GetDescriptor+0x286>
 800705a:	687b      	ldr	r3, [r7, #4]
 800705c:	7c1b      	ldrb	r3, [r3, #16]
 800705e:	2b00      	cmp	r3, #0
 8007060:	d10d      	bne.n	800707e <USBD_GetDescriptor+0x266>
 8007062:	687b      	ldr	r3, [r7, #4]
 8007064:	f8d3 32b4 	ldr.w	r3, [r3, #692]	; 0x2b4
 8007068:	6b1b      	ldr	r3, [r3, #48]	; 0x30
 800706a:	f107 0208 	add.w	r2, r7, #8
 800706e:	4610      	mov	r0, r2
 8007070:	4798      	blx	r3
 8007072:	60f8      	str	r0, [r7, #12]
 8007074:	68fb      	ldr	r3, [r7, #12]
 8007076:	3301      	adds	r3, #1
 8007078:	2207      	movs	r2, #7
 800707a:	701a      	strb	r2, [r3, #0]
 800707c:	e00f      	b.n	800709e <USBD_GetDescriptor+0x286>
 800707e:	6839      	ldr	r1, [r7, #0]
 8007080:	6878      	ldr	r0, [r7, #4]
 8007082:	f000 f9d9 	bl	8007438 <USBD_CtlError>
 8007086:	7afb      	ldrb	r3, [r7, #11]
 8007088:	3301      	adds	r3, #1
 800708a:	72fb      	strb	r3, [r7, #11]
 800708c:	e007      	b.n	800709e <USBD_GetDescriptor+0x286>
 800708e:	6839      	ldr	r1, [r7, #0]
 8007090:	6878      	ldr	r0, [r7, #4]
 8007092:	f000 f9d1 	bl	8007438 <USBD_CtlError>
 8007096:	7afb      	ldrb	r3, [r7, #11]
 8007098:	3301      	adds	r3, #1
 800709a:	72fb      	strb	r3, [r7, #11]
 800709c:	bf00      	nop
 800709e:	7afb      	ldrb	r3, [r7, #11]
 80070a0:	2b00      	cmp	r3, #0
 80070a2:	d11c      	bne.n	80070de <USBD_GetDescriptor+0x2c6>
 80070a4:	893b      	ldrh	r3, [r7, #8]
 80070a6:	2b00      	cmp	r3, #0
 80070a8:	d011      	beq.n	80070ce <USBD_GetDescriptor+0x2b6>
 80070aa:	683b      	ldr	r3, [r7, #0]
 80070ac:	88db      	ldrh	r3, [r3, #6]
 80070ae:	2b00      	cmp	r3, #0
 80070b0:	d00d      	beq.n	80070ce <USBD_GetDescriptor+0x2b6>
 80070b2:	683b      	ldr	r3, [r7, #0]
 80070b4:	88da      	ldrh	r2, [r3, #6]
 80070b6:	893b      	ldrh	r3, [r7, #8]
 80070b8:	4293      	cmp	r3, r2
 80070ba:	bf28      	it	cs
 80070bc:	4613      	movcs	r3, r2
 80070be:	b29b      	uxth	r3, r3
 80070c0:	813b      	strh	r3, [r7, #8]
 80070c2:	893b      	ldrh	r3, [r7, #8]
 80070c4:	461a      	mov	r2, r3
 80070c6:	68f9      	ldr	r1, [r7, #12]
 80070c8:	6878      	ldr	r0, [r7, #4]
 80070ca:	f000 fa1f 	bl	800750c <USBD_CtlSendData>
 80070ce:	683b      	ldr	r3, [r7, #0]
 80070d0:	88db      	ldrh	r3, [r3, #6]
 80070d2:	2b00      	cmp	r3, #0
 80070d4:	d104      	bne.n	80070e0 <USBD_GetDescriptor+0x2c8>
 80070d6:	6878      	ldr	r0, [r7, #4]
 80070d8:	f000 fa76 	bl	80075c8 <USBD_CtlSendStatus>
 80070dc:	e000      	b.n	80070e0 <USBD_GetDescriptor+0x2c8>
 80070de:	bf00      	nop
 80070e0:	3710      	adds	r7, #16
 80070e2:	46bd      	mov	sp, r7
 80070e4:	bd80      	pop	{r7, pc}
 80070e6:	bf00      	nop

080070e8 <USBD_SetAddress>:
 80070e8:	b580      	push	{r7, lr}
 80070ea:	b084      	sub	sp, #16
 80070ec:	af00      	add	r7, sp, #0
 80070ee:	6078      	str	r0, [r7, #4]
 80070f0:	6039      	str	r1, [r7, #0]
 80070f2:	683b      	ldr	r3, [r7, #0]
 80070f4:	889b      	ldrh	r3, [r3, #4]
 80070f6:	2b00      	cmp	r3, #0
 80070f8:	d130      	bne.n	800715c <USBD_SetAddress+0x74>
 80070fa:	683b      	ldr	r3, [r7, #0]
 80070fc:	88db      	ldrh	r3, [r3, #6]
 80070fe:	2b00      	cmp	r3, #0
 8007100:	d12c      	bne.n	800715c <USBD_SetAddress+0x74>
 8007102:	683b      	ldr	r3, [r7, #0]
 8007104:	885b      	ldrh	r3, [r3, #2]
 8007106:	2b7f      	cmp	r3, #127	; 0x7f
 8007108:	d828      	bhi.n	800715c <USBD_SetAddress+0x74>
 800710a:	683b      	ldr	r3, [r7, #0]
 800710c:	885b      	ldrh	r3, [r3, #2]
 800710e:	b2db      	uxtb	r3, r3
 8007110:	f003 037f 	and.w	r3, r3, #127	; 0x7f
 8007114:	73fb      	strb	r3, [r7, #15]
 8007116:	687b      	ldr	r3, [r7, #4]
 8007118:	f893 329c 	ldrb.w	r3, [r3, #668]	; 0x29c
 800711c:	2b03      	cmp	r3, #3
 800711e:	d104      	bne.n	800712a <USBD_SetAddress+0x42>
 8007120:	6839      	ldr	r1, [r7, #0]
 8007122:	6878      	ldr	r0, [r7, #4]
 8007124:	f000 f988 	bl	8007438 <USBD_CtlError>
 8007128:	e01c      	b.n	8007164 <USBD_SetAddress+0x7c>
 800712a:	687b      	ldr	r3, [r7, #4]
 800712c:	7bfa      	ldrb	r2, [r7, #15]
 800712e:	f883 229e 	strb.w	r2, [r3, #670]	; 0x29e
 8007132:	7bfb      	ldrb	r3, [r7, #15]
 8007134:	4619      	mov	r1, r3
 8007136:	6878      	ldr	r0, [r7, #4]
 8007138:	f000 fe1e 	bl	8007d78 <USBD_LL_SetUSBAddress>
 800713c:	6878      	ldr	r0, [r7, #4]
 800713e:	f000 fa43 	bl	80075c8 <USBD_CtlSendStatus>
 8007142:	7bfb      	ldrb	r3, [r7, #15]
 8007144:	2b00      	cmp	r3, #0
 8007146:	d004      	beq.n	8007152 <USBD_SetAddress+0x6a>
 8007148:	687b      	ldr	r3, [r7, #4]
 800714a:	2202      	movs	r2, #2
 800714c:	f883 229c 	strb.w	r2, [r3, #668]	; 0x29c
 8007150:	e008      	b.n	8007164 <USBD_SetAddress+0x7c>
 8007152:	687b      	ldr	r3, [r7, #4]
 8007154:	2201      	movs	r2, #1
 8007156:	f883 229c 	strb.w	r2, [r3, #668]	; 0x29c
 800715a:	e003      	b.n	8007164 <USBD_SetAddress+0x7c>
 800715c:	6839      	ldr	r1, [r7, #0]
 800715e:	6878      	ldr	r0, [r7, #4]
 8007160:	f000 f96a 	bl	8007438 <USBD_CtlError>
 8007164:	bf00      	nop
 8007166:	3710      	adds	r7, #16
 8007168:	46bd      	mov	sp, r7
 800716a:	bd80      	pop	{r7, pc}

0800716c <USBD_SetConfig>:
 800716c:	b580      	push	{r7, lr}
 800716e:	b082      	sub	sp, #8
 8007170:	af00      	add	r7, sp, #0
 8007172:	6078      	str	r0, [r7, #4]
 8007174:	6039      	str	r1, [r7, #0]
 8007176:	683b      	ldr	r3, [r7, #0]
 8007178:	885b      	ldrh	r3, [r3, #2]
 800717a:	b2da      	uxtb	r2, r3
 800717c:	4b41      	ldr	r3, [pc, #260]	; (8007284 <USBD_SetConfig+0x118>)
 800717e:	701a      	strb	r2, [r3, #0]
 8007180:	4b40      	ldr	r3, [pc, #256]	; (8007284 <USBD_SetConfig+0x118>)
 8007182:	781b      	ldrb	r3, [r3, #0]
 8007184:	2b01      	cmp	r3, #1
 8007186:	d904      	bls.n	8007192 <USBD_SetConfig+0x26>
 8007188:	6839      	ldr	r1, [r7, #0]
 800718a:	6878      	ldr	r0, [r7, #4]
 800718c:	f000 f954 	bl	8007438 <USBD_CtlError>
 8007190:	e075      	b.n	800727e <USBD_SetConfig+0x112>
 8007192:	687b      	ldr	r3, [r7, #4]
 8007194:	f893 329c 	ldrb.w	r3, [r3, #668]	; 0x29c
 8007198:	2b02      	cmp	r3, #2
 800719a:	d002      	beq.n	80071a2 <USBD_SetConfig+0x36>
 800719c:	2b03      	cmp	r3, #3
 800719e:	d023      	beq.n	80071e8 <USBD_SetConfig+0x7c>
 80071a0:	e062      	b.n	8007268 <USBD_SetConfig+0xfc>
 80071a2:	4b38      	ldr	r3, [pc, #224]	; (8007284 <USBD_SetConfig+0x118>)
 80071a4:	781b      	ldrb	r3, [r3, #0]
 80071a6:	2b00      	cmp	r3, #0
 80071a8:	d01a      	beq.n	80071e0 <USBD_SetConfig+0x74>
 80071aa:	4b36      	ldr	r3, [pc, #216]	; (8007284 <USBD_SetConfig+0x118>)
 80071ac:	781b      	ldrb	r3, [r3, #0]
 80071ae:	461a      	mov	r2, r3
 80071b0:	687b      	ldr	r3, [r7, #4]
 80071b2:	605a      	str	r2, [r3, #4]
 80071b4:	687b      	ldr	r3, [r7, #4]
 80071b6:	2203      	movs	r2, #3
 80071b8:	f883 229c 	strb.w	r2, [r3, #668]	; 0x29c
 80071bc:	4b31      	ldr	r3, [pc, #196]	; (8007284 <USBD_SetConfig+0x118>)
 80071be:	781b      	ldrb	r3, [r3, #0]
 80071c0:	4619      	mov	r1, r3
 80071c2:	6878      	ldr	r0, [r7, #4]
 80071c4:	f7ff f9f4 	bl	80065b0 <USBD_SetClassConfig>
 80071c8:	4603      	mov	r3, r0
 80071ca:	2b02      	cmp	r3, #2
 80071cc:	d104      	bne.n	80071d8 <USBD_SetConfig+0x6c>
 80071ce:	6839      	ldr	r1, [r7, #0]
 80071d0:	6878      	ldr	r0, [r7, #4]
 80071d2:	f000 f931 	bl	8007438 <USBD_CtlError>
 80071d6:	e052      	b.n	800727e <USBD_SetConfig+0x112>
 80071d8:	6878      	ldr	r0, [r7, #4]
 80071da:	f000 f9f5 	bl	80075c8 <USBD_CtlSendStatus>
 80071de:	e04e      	b.n	800727e <USBD_SetConfig+0x112>
 80071e0:	6878      	ldr	r0, [r7, #4]
 80071e2:	f000 f9f1 	bl	80075c8 <USBD_CtlSendStatus>
 80071e6:	e04a      	b.n	800727e <USBD_SetConfig+0x112>
 80071e8:	4b26      	ldr	r3, [pc, #152]	; (8007284 <USBD_SetConfig+0x118>)
 80071ea:	781b      	ldrb	r3, [r3, #0]
 80071ec:	2b00      	cmp	r3, #0
 80071ee:	d112      	bne.n	8007216 <USBD_SetConfig+0xaa>
 80071f0:	687b      	ldr	r3, [r7, #4]
 80071f2:	2202      	movs	r2, #2
 80071f4:	f883 229c 	strb.w	r2, [r3, #668]	; 0x29c
 80071f8:	4b22      	ldr	r3, [pc, #136]	; (8007284 <USBD_SetConfig+0x118>)
 80071fa:	781b      	ldrb	r3, [r3, #0]
 80071fc:	461a      	mov	r2, r3
 80071fe:	687b      	ldr	r3, [r7, #4]
 8007200:	605a      	str	r2, [r3, #4]
 8007202:	4b20      	ldr	r3, [pc, #128]	; (8007284 <USBD_SetConfig+0x118>)
 8007204:	781b      	ldrb	r3, [r3, #0]
 8007206:	4619      	mov	r1, r3
 8007208:	6878      	ldr	r0, [r7, #4]
 800720a:	f7ff f9f0 	bl	80065ee <USBD_ClrClassConfig>
 800720e:	6878      	ldr	r0, [r7, #4]
 8007210:	f000 f9da 	bl	80075c8 <USBD_CtlSendStatus>
 8007214:	e033      	b.n	800727e <USBD_SetConfig+0x112>
 8007216:	4b1b      	ldr	r3, [pc, #108]	; (8007284 <USBD_SetConfig+0x118>)
 8007218:	781b      	ldrb	r3, [r3, #0]
 800721a:	461a      	mov	r2, r3
 800721c:	687b      	ldr	r3, [r7, #4]
 800721e:	685b      	ldr	r3, [r3, #4]
 8007220:	429a      	cmp	r2, r3
 8007222:	d01d      	beq.n	8007260 <USBD_SetConfig+0xf4>
 8007224:	687b      	ldr	r3, [r7, #4]
 8007226:	685b      	ldr	r3, [r3, #4]
 8007228:	b2db      	uxtb	r3, r3
 800722a:	4619      	mov	r1, r3
 800722c:	6878      	ldr	r0, [r7, #4]
 800722e:	f7ff f9de 	bl	80065ee <USBD_ClrClassConfig>
 8007232:	4b14      	ldr	r3, [pc, #80]	; (8007284 <USBD_SetConfig+0x118>)
 8007234:	781b      	ldrb	r3, [r3, #0]
 8007236:	461a      	mov	r2, r3
 8007238:	687b      	ldr	r3, [r7, #4]
 800723a:	605a      	str	r2, [r3, #4]
 800723c:	4b11      	ldr	r3, [pc, #68]	; (8007284 <USBD_SetConfig+0x118>)
 800723e:	781b      	ldrb	r3, [r3, #0]
 8007240:	4619      	mov	r1, r3
 8007242:	6878      	ldr	r0, [r7, #4]
 8007244:	f7ff f9b4 	bl	80065b0 <USBD_SetClassConfig>
 8007248:	4603      	mov	r3, r0
 800724a:	2b02      	cmp	r3, #2
 800724c:	d104      	bne.n	8007258 <USBD_SetConfig+0xec>
 800724e:	6839      	ldr	r1, [r7, #0]
 8007250:	6878      	ldr	r0, [r7, #4]
 8007252:	f000 f8f1 	bl	8007438 <USBD_CtlError>
 8007256:	e012      	b.n	800727e <USBD_SetConfig+0x112>
 8007258:	6878      	ldr	r0, [r7, #4]
 800725a:	f000 f9b5 	bl	80075c8 <USBD_CtlSendStatus>
 800725e:	e00e      	b.n	800727e <USBD_SetConfig+0x112>
 8007260:	6878      	ldr	r0, [r7, #4]
 8007262:	f000 f9b1 	bl	80075c8 <USBD_CtlSendStatus>
 8007266:	e00a      	b.n	800727e <USBD_SetConfig+0x112>
 8007268:	6839      	ldr	r1, [r7, #0]
 800726a:	6878      	ldr	r0, [r7, #4]
 800726c:	f000 f8e4 	bl	8007438 <USBD_CtlError>
 8007270:	4b04      	ldr	r3, [pc, #16]	; (8007284 <USBD_SetConfig+0x118>)
 8007272:	781b      	ldrb	r3, [r3, #0]
 8007274:	4619      	mov	r1, r3
 8007276:	6878      	ldr	r0, [r7, #4]
 8007278:	f7ff f9b9 	bl	80065ee <USBD_ClrClassConfig>
 800727c:	bf00      	nop
 800727e:	3708      	adds	r7, #8
 8007280:	46bd      	mov	sp, r7
 8007282:	bd80      	pop	{r7, pc}
 8007284:	200001bd 	.word	0x200001bd

08007288 <USBD_GetConfig>:
 8007288:	b580      	push	{r7, lr}
 800728a:	b082      	sub	sp, #8
 800728c:	af00      	add	r7, sp, #0
 800728e:	6078      	str	r0, [r7, #4]
 8007290:	6039      	str	r1, [r7, #0]
 8007292:	683b      	ldr	r3, [r7, #0]
 8007294:	88db      	ldrh	r3, [r3, #6]
 8007296:	2b01      	cmp	r3, #1
 8007298:	d004      	beq.n	80072a4 <USBD_GetConfig+0x1c>
 800729a:	6839      	ldr	r1, [r7, #0]
 800729c:	6878      	ldr	r0, [r7, #4]
 800729e:	f000 f8cb 	bl	8007438 <USBD_CtlError>
 80072a2:	e021      	b.n	80072e8 <USBD_GetConfig+0x60>
 80072a4:	687b      	ldr	r3, [r7, #4]
 80072a6:	f893 329c 	ldrb.w	r3, [r3, #668]	; 0x29c
 80072aa:	2b01      	cmp	r3, #1
 80072ac:	db17      	blt.n	80072de <USBD_GetConfig+0x56>
 80072ae:	2b02      	cmp	r3, #2
 80072b0:	dd02      	ble.n	80072b8 <USBD_GetConfig+0x30>
 80072b2:	2b03      	cmp	r3, #3
 80072b4:	d00b      	beq.n	80072ce <USBD_GetConfig+0x46>
 80072b6:	e012      	b.n	80072de <USBD_GetConfig+0x56>
 80072b8:	687b      	ldr	r3, [r7, #4]
 80072ba:	2200      	movs	r2, #0
 80072bc:	609a      	str	r2, [r3, #8]
 80072be:	687b      	ldr	r3, [r7, #4]
 80072c0:	3308      	adds	r3, #8
 80072c2:	2201      	movs	r2, #1
 80072c4:	4619      	mov	r1, r3
 80072c6:	6878      	ldr	r0, [r7, #4]
 80072c8:	f000 f920 	bl	800750c <USBD_CtlSendData>
 80072cc:	e00c      	b.n	80072e8 <USBD_GetConfig+0x60>
 80072ce:	687b      	ldr	r3, [r7, #4]
 80072d0:	3304      	adds	r3, #4
 80072d2:	2201      	movs	r2, #1
 80072d4:	4619      	mov	r1, r3
 80072d6:	6878      	ldr	r0, [r7, #4]
 80072d8:	f000 f918 	bl	800750c <USBD_CtlSendData>
 80072dc:	e004      	b.n	80072e8 <USBD_GetConfig+0x60>
 80072de:	6839      	ldr	r1, [r7, #0]
 80072e0:	6878      	ldr	r0, [r7, #4]
 80072e2:	f000 f8a9 	bl	8007438 <USBD_CtlError>
 80072e6:	bf00      	nop
 80072e8:	bf00      	nop
 80072ea:	3708      	adds	r7, #8
 80072ec:	46bd      	mov	sp, r7
 80072ee:	bd80      	pop	{r7, pc}

080072f0 <USBD_GetStatus>:
 80072f0:	b580      	push	{r7, lr}
 80072f2:	b082      	sub	sp, #8
 80072f4:	af00      	add	r7, sp, #0
 80072f6:	6078      	str	r0, [r7, #4]
 80072f8:	6039      	str	r1, [r7, #0]
 80072fa:	687b      	ldr	r3, [r7, #4]
 80072fc:	f893 329c 	ldrb.w	r3, [r3, #668]	; 0x29c
 8007300:	3b01      	subs	r3, #1
 8007302:	2b02      	cmp	r3, #2
 8007304:	d81e      	bhi.n	8007344 <USBD_GetStatus+0x54>
 8007306:	683b      	ldr	r3, [r7, #0]
 8007308:	88db      	ldrh	r3, [r3, #6]
 800730a:	2b02      	cmp	r3, #2
 800730c:	d004      	beq.n	8007318 <USBD_GetStatus+0x28>
 800730e:	6839      	ldr	r1, [r7, #0]
 8007310:	6878      	ldr	r0, [r7, #4]
 8007312:	f000 f891 	bl	8007438 <USBD_CtlError>
 8007316:	e01a      	b.n	800734e <USBD_GetStatus+0x5e>
 8007318:	687b      	ldr	r3, [r7, #4]
 800731a:	2201      	movs	r2, #1
 800731c:	60da      	str	r2, [r3, #12]
 800731e:	687b      	ldr	r3, [r7, #4]
 8007320:	f8d3 32a4 	ldr.w	r3, [r3, #676]	; 0x2a4
 8007324:	2b00      	cmp	r3, #0
 8007326:	d005      	beq.n	8007334 <USBD_GetStatus+0x44>
 8007328:	687b      	ldr	r3, [r7, #4]
 800732a:	68db      	ldr	r3, [r3, #12]
 800732c:	f043 0202 	orr.w	r2, r3, #2
 8007330:	687b      	ldr	r3, [r7, #4]
 8007332:	60da      	str	r2, [r3, #12]
 8007334:	687b      	ldr	r3, [r7, #4]
 8007336:	330c      	adds	r3, #12
 8007338:	2202      	movs	r2, #2
 800733a:	4619      	mov	r1, r3
 800733c:	6878      	ldr	r0, [r7, #4]
 800733e:	f000 f8e5 	bl	800750c <USBD_CtlSendData>
 8007342:	e004      	b.n	800734e <USBD_GetStatus+0x5e>
 8007344:	6839      	ldr	r1, [r7, #0]
 8007346:	6878      	ldr	r0, [r7, #4]
 8007348:	f000 f876 	bl	8007438 <USBD_CtlError>
 800734c:	bf00      	nop
 800734e:	bf00      	nop
 8007350:	3708      	adds	r7, #8
 8007352:	46bd      	mov	sp, r7
 8007354:	bd80      	pop	{r7, pc}

08007356 <USBD_SetFeature>:
 8007356:	b580      	push	{r7, lr}
 8007358:	b082      	sub	sp, #8
 800735a:	af00      	add	r7, sp, #0
 800735c:	6078      	str	r0, [r7, #4]
 800735e:	6039      	str	r1, [r7, #0]
 8007360:	683b      	ldr	r3, [r7, #0]
 8007362:	885b      	ldrh	r3, [r3, #2]
 8007364:	2b01      	cmp	r3, #1
 8007366:	d106      	bne.n	8007376 <USBD_SetFeature+0x20>
 8007368:	687b      	ldr	r3, [r7, #4]
 800736a:	2201      	movs	r2, #1
 800736c:	f8c3 22a4 	str.w	r2, [r3, #676]	; 0x2a4
 8007370:	6878      	ldr	r0, [r7, #4]
 8007372:	f000 f929 	bl	80075c8 <USBD_CtlSendStatus>
 8007376:	bf00      	nop
 8007378:	3708      	adds	r7, #8
 800737a:	46bd      	mov	sp, r7
 800737c:	bd80      	pop	{r7, pc}

0800737e <USBD_ClrFeature>:
 800737e:	b580      	push	{r7, lr}
 8007380:	b082      	sub	sp, #8
 8007382:	af00      	add	r7, sp, #0
 8007384:	6078      	str	r0, [r7, #4]
 8007386:	6039      	str	r1, [r7, #0]
 8007388:	687b      	ldr	r3, [r7, #4]
 800738a:	f893 329c 	ldrb.w	r3, [r3, #668]	; 0x29c
 800738e:	3b01      	subs	r3, #1
 8007390:	2b02      	cmp	r3, #2
 8007392:	d80b      	bhi.n	80073ac <USBD_ClrFeature+0x2e>
 8007394:	683b      	ldr	r3, [r7, #0]
 8007396:	885b      	ldrh	r3, [r3, #2]
 8007398:	2b01      	cmp	r3, #1
 800739a:	d10c      	bne.n	80073b6 <USBD_ClrFeature+0x38>
 800739c:	687b      	ldr	r3, [r7, #4]
 800739e:	2200      	movs	r2, #0
 80073a0:	f8c3 22a4 	str.w	r2, [r3, #676]	; 0x2a4
 80073a4:	6878      	ldr	r0, [r7, #4]
 80073a6:	f000 f90f 	bl	80075c8 <USBD_CtlSendStatus>
 80073aa:	e004      	b.n	80073b6 <USBD_ClrFeature+0x38>
 80073ac:	6839      	ldr	r1, [r7, #0]
 80073ae:	6878      	ldr	r0, [r7, #4]
 80073b0:	f000 f842 	bl	8007438 <USBD_CtlError>
 80073b4:	e000      	b.n	80073b8 <USBD_ClrFeature+0x3a>
 80073b6:	bf00      	nop
 80073b8:	bf00      	nop
 80073ba:	3708      	adds	r7, #8
 80073bc:	46bd      	mov	sp, r7
 80073be:	bd80      	pop	{r7, pc}

080073c0 <USBD_ParseSetupRequest>:
 80073c0:	b480      	push	{r7}
 80073c2:	b083      	sub	sp, #12
 80073c4:	af00      	add	r7, sp, #0
 80073c6:	6078      	str	r0, [r7, #4]
 80073c8:	6039      	str	r1, [r7, #0]
 80073ca:	683b      	ldr	r3, [r7, #0]
 80073cc:	781a      	ldrb	r2, [r3, #0]
 80073ce:	687b      	ldr	r3, [r7, #4]
 80073d0:	701a      	strb	r2, [r3, #0]
 80073d2:	683b      	ldr	r3, [r7, #0]
 80073d4:	785a      	ldrb	r2, [r3, #1]
 80073d6:	687b      	ldr	r3, [r7, #4]
 80073d8:	705a      	strb	r2, [r3, #1]
 80073da:	683b      	ldr	r3, [r7, #0]
 80073dc:	3302      	adds	r3, #2
 80073de:	781b      	ldrb	r3, [r3, #0]
 80073e0:	b29a      	uxth	r2, r3
 80073e2:	683b      	ldr	r3, [r7, #0]
 80073e4:	3303      	adds	r3, #3
 80073e6:	781b      	ldrb	r3, [r3, #0]
 80073e8:	b29b      	uxth	r3, r3
 80073ea:	021b      	lsls	r3, r3, #8
 80073ec:	b29b      	uxth	r3, r3
 80073ee:	4413      	add	r3, r2
 80073f0:	b29a      	uxth	r2, r3
 80073f2:	687b      	ldr	r3, [r7, #4]
 80073f4:	805a      	strh	r2, [r3, #2]
 80073f6:	683b      	ldr	r3, [r7, #0]
 80073f8:	3304      	adds	r3, #4
 80073fa:	781b      	ldrb	r3, [r3, #0]
 80073fc:	b29a      	uxth	r2, r3
 80073fe:	683b      	ldr	r3, [r7, #0]
 8007400:	3305      	adds	r3, #5
 8007402:	781b      	ldrb	r3, [r3, #0]
 8007404:	b29b      	uxth	r3, r3
 8007406:	021b      	lsls	r3, r3, #8
 8007408:	b29b      	uxth	r3, r3
 800740a:	4413      	add	r3, r2
 800740c:	b29a      	uxth	r2, r3
 800740e:	687b      	ldr	r3, [r7, #4]
 8007410:	809a      	strh	r2, [r3, #4]
 8007412:	683b      	ldr	r3, [r7, #0]
 8007414:	3306      	adds	r3, #6
 8007416:	781b      	ldrb	r3, [r3, #0]
 8007418:	b29a      	uxth	r2, r3
 800741a:	683b      	ldr	r3, [r7, #0]
 800741c:	3307      	adds	r3, #7
 800741e:	781b      	ldrb	r3, [r3, #0]
 8007420:	b29b      	uxth	r3, r3
 8007422:	021b      	lsls	r3, r3, #8
 8007424:	b29b      	uxth	r3, r3
 8007426:	4413      	add	r3, r2
 8007428:	b29a      	uxth	r2, r3
 800742a:	687b      	ldr	r3, [r7, #4]
 800742c:	80da      	strh	r2, [r3, #6]
 800742e:	bf00      	nop
 8007430:	370c      	adds	r7, #12
 8007432:	46bd      	mov	sp, r7
 8007434:	bc80      	pop	{r7}
 8007436:	4770      	bx	lr

08007438 <USBD_CtlError>:
 8007438:	b580      	push	{r7, lr}
 800743a:	b082      	sub	sp, #8
 800743c:	af00      	add	r7, sp, #0
 800743e:	6078      	str	r0, [r7, #4]
 8007440:	6039      	str	r1, [r7, #0]
 8007442:	2180      	movs	r1, #128	; 0x80
 8007444:	6878      	ldr	r0, [r7, #4]
 8007446:	f000 fc2d 	bl	8007ca4 <USBD_LL_StallEP>
 800744a:	2100      	movs	r1, #0
 800744c:	6878      	ldr	r0, [r7, #4]
 800744e:	f000 fc29 	bl	8007ca4 <USBD_LL_StallEP>
 8007452:	bf00      	nop
 8007454:	3708      	adds	r7, #8
 8007456:	46bd      	mov	sp, r7
 8007458:	bd80      	pop	{r7, pc}

0800745a <USBD_GetString>:
 800745a:	b580      	push	{r7, lr}
 800745c:	b086      	sub	sp, #24
 800745e:	af00      	add	r7, sp, #0
 8007460:	60f8      	str	r0, [r7, #12]
 8007462:	60b9      	str	r1, [r7, #8]
 8007464:	607a      	str	r2, [r7, #4]
 8007466:	2300      	movs	r3, #0
 8007468:	75fb      	strb	r3, [r7, #23]
 800746a:	68fb      	ldr	r3, [r7, #12]
 800746c:	2b00      	cmp	r3, #0
 800746e:	d032      	beq.n	80074d6 <USBD_GetString+0x7c>
 8007470:	68f8      	ldr	r0, [r7, #12]
 8007472:	f000 f834 	bl	80074de <USBD_GetLen>
 8007476:	4603      	mov	r3, r0
 8007478:	3301      	adds	r3, #1
 800747a:	b29b      	uxth	r3, r3
 800747c:	005b      	lsls	r3, r3, #1
 800747e:	b29a      	uxth	r2, r3
 8007480:	687b      	ldr	r3, [r7, #4]
 8007482:	801a      	strh	r2, [r3, #0]
 8007484:	7dfb      	ldrb	r3, [r7, #23]
 8007486:	1c5a      	adds	r2, r3, #1
 8007488:	75fa      	strb	r2, [r7, #23]
 800748a:	461a      	mov	r2, r3
 800748c:	68bb      	ldr	r3, [r7, #8]
 800748e:	4413      	add	r3, r2
 8007490:	687a      	ldr	r2, [r7, #4]
 8007492:	7812      	ldrb	r2, [r2, #0]
 8007494:	701a      	strb	r2, [r3, #0]
 8007496:	7dfb      	ldrb	r3, [r7, #23]
 8007498:	1c5a      	adds	r2, r3, #1
 800749a:	75fa      	strb	r2, [r7, #23]
 800749c:	461a      	mov	r2, r3
 800749e:	68bb      	ldr	r3, [r7, #8]
 80074a0:	4413      	add	r3, r2
 80074a2:	2203      	movs	r2, #3
 80074a4:	701a      	strb	r2, [r3, #0]
 80074a6:	e012      	b.n	80074ce <USBD_GetString+0x74>
 80074a8:	68fb      	ldr	r3, [r7, #12]
 80074aa:	1c5a      	adds	r2, r3, #1
 80074ac:	60fa      	str	r2, [r7, #12]
 80074ae:	7dfa      	ldrb	r2, [r7, #23]
 80074b0:	1c51      	adds	r1, r2, #1
 80074b2:	75f9      	strb	r1, [r7, #23]
 80074b4:	4611      	mov	r1, r2
 80074b6:	68ba      	ldr	r2, [r7, #8]
 80074b8:	440a      	add	r2, r1
 80074ba:	781b      	ldrb	r3, [r3, #0]
 80074bc:	7013      	strb	r3, [r2, #0]
 80074be:	7dfb      	ldrb	r3, [r7, #23]
 80074c0:	1c5a      	adds	r2, r3, #1
 80074c2:	75fa      	strb	r2, [r7, #23]
 80074c4:	461a      	mov	r2, r3
 80074c6:	68bb      	ldr	r3, [r7, #8]
 80074c8:	4413      	add	r3, r2
 80074ca:	2200      	movs	r2, #0
 80074cc:	701a      	strb	r2, [r3, #0]
 80074ce:	68fb      	ldr	r3, [r7, #12]
 80074d0:	781b      	ldrb	r3, [r3, #0]
 80074d2:	2b00      	cmp	r3, #0
 80074d4:	d1e8      	bne.n	80074a8 <USBD_GetString+0x4e>
 80074d6:	bf00      	nop
 80074d8:	3718      	adds	r7, #24
 80074da:	46bd      	mov	sp, r7
 80074dc:	bd80      	pop	{r7, pc}

080074de <USBD_GetLen>:
 80074de:	b480      	push	{r7}
 80074e0:	b085      	sub	sp, #20
 80074e2:	af00      	add	r7, sp, #0
 80074e4:	6078      	str	r0, [r7, #4]
 80074e6:	2300      	movs	r3, #0
 80074e8:	73fb      	strb	r3, [r7, #15]
 80074ea:	e005      	b.n	80074f8 <USBD_GetLen+0x1a>
 80074ec:	7bfb      	ldrb	r3, [r7, #15]
 80074ee:	3301      	adds	r3, #1
 80074f0:	73fb      	strb	r3, [r7, #15]
 80074f2:	687b      	ldr	r3, [r7, #4]
 80074f4:	3301      	adds	r3, #1
 80074f6:	607b      	str	r3, [r7, #4]
 80074f8:	687b      	ldr	r3, [r7, #4]
 80074fa:	781b      	ldrb	r3, [r3, #0]
 80074fc:	2b00      	cmp	r3, #0
 80074fe:	d1f5      	bne.n	80074ec <USBD_GetLen+0xe>
 8007500:	7bfb      	ldrb	r3, [r7, #15]
 8007502:	4618      	mov	r0, r3
 8007504:	3714      	adds	r7, #20
 8007506:	46bd      	mov	sp, r7
 8007508:	bc80      	pop	{r7}
 800750a:	4770      	bx	lr

0800750c <USBD_CtlSendData>:
 800750c:	b580      	push	{r7, lr}
 800750e:	b084      	sub	sp, #16
 8007510:	af00      	add	r7, sp, #0
 8007512:	60f8      	str	r0, [r7, #12]
 8007514:	60b9      	str	r1, [r7, #8]
 8007516:	4613      	mov	r3, r2
 8007518:	80fb      	strh	r3, [r7, #6]
 800751a:	68fb      	ldr	r3, [r7, #12]
 800751c:	2202      	movs	r2, #2
 800751e:	f8c3 2294 	str.w	r2, [r3, #660]	; 0x294
 8007522:	88fa      	ldrh	r2, [r7, #6]
 8007524:	68fb      	ldr	r3, [r7, #12]
 8007526:	61da      	str	r2, [r3, #28]
 8007528:	88fa      	ldrh	r2, [r7, #6]
 800752a:	68fb      	ldr	r3, [r7, #12]
 800752c:	621a      	str	r2, [r3, #32]
 800752e:	88fb      	ldrh	r3, [r7, #6]
 8007530:	68ba      	ldr	r2, [r7, #8]
 8007532:	2100      	movs	r1, #0
 8007534:	68f8      	ldr	r0, [r7, #12]
 8007536:	f000 fc3e 	bl	8007db6 <USBD_LL_Transmit>
 800753a:	2300      	movs	r3, #0
 800753c:	4618      	mov	r0, r3
 800753e:	3710      	adds	r7, #16
 8007540:	46bd      	mov	sp, r7
 8007542:	bd80      	pop	{r7, pc}

08007544 <USBD_CtlContinueSendData>:
 8007544:	b580      	push	{r7, lr}
 8007546:	b084      	sub	sp, #16
 8007548:	af00      	add	r7, sp, #0
 800754a:	60f8      	str	r0, [r7, #12]
 800754c:	60b9      	str	r1, [r7, #8]
 800754e:	4613      	mov	r3, r2
 8007550:	80fb      	strh	r3, [r7, #6]
 8007552:	88fb      	ldrh	r3, [r7, #6]
 8007554:	68ba      	ldr	r2, [r7, #8]
 8007556:	2100      	movs	r1, #0
 8007558:	68f8      	ldr	r0, [r7, #12]
 800755a:	f000 fc2c 	bl	8007db6 <USBD_LL_Transmit>
 800755e:	2300      	movs	r3, #0
 8007560:	4618      	mov	r0, r3
 8007562:	3710      	adds	r7, #16
 8007564:	46bd      	mov	sp, r7
 8007566:	bd80      	pop	{r7, pc}

08007568 <USBD_CtlPrepareRx>:
 8007568:	b580      	push	{r7, lr}
 800756a:	b084      	sub	sp, #16
 800756c:	af00      	add	r7, sp, #0
 800756e:	60f8      	str	r0, [r7, #12]
 8007570:	60b9      	str	r1, [r7, #8]
 8007572:	4613      	mov	r3, r2
 8007574:	80fb      	strh	r3, [r7, #6]
 8007576:	68fb      	ldr	r3, [r7, #12]
 8007578:	2203      	movs	r2, #3
 800757a:	f8c3 2294 	str.w	r2, [r3, #660]	; 0x294
 800757e:	88fa      	ldrh	r2, [r7, #6]
 8007580:	68fb      	ldr	r3, [r7, #12]
 8007582:	f8c3 215c 	str.w	r2, [r3, #348]	; 0x15c
 8007586:	88fa      	ldrh	r2, [r7, #6]
 8007588:	68fb      	ldr	r3, [r7, #12]
 800758a:	f8c3 2160 	str.w	r2, [r3, #352]	; 0x160
 800758e:	88fb      	ldrh	r3, [r7, #6]
 8007590:	68ba      	ldr	r2, [r7, #8]
 8007592:	2100      	movs	r1, #0
 8007594:	68f8      	ldr	r0, [r7, #12]
 8007596:	f000 fc31 	bl	8007dfc <USBD_LL_PrepareReceive>
 800759a:	2300      	movs	r3, #0
 800759c:	4618      	mov	r0, r3
 800759e:	3710      	adds	r7, #16
 80075a0:	46bd      	mov	sp, r7
 80075a2:	bd80      	pop	{r7, pc}

080075a4 <USBD_CtlContinueRx>:
 80075a4:	b580      	push	{r7, lr}
 80075a6:	b084      	sub	sp, #16
 80075a8:	af00      	add	r7, sp, #0
 80075aa:	60f8      	str	r0, [r7, #12]
 80075ac:	60b9      	str	r1, [r7, #8]
 80075ae:	4613      	mov	r3, r2
 80075b0:	80fb      	strh	r3, [r7, #6]
 80075b2:	88fb      	ldrh	r3, [r7, #6]
 80075b4:	68ba      	ldr	r2, [r7, #8]
 80075b6:	2100      	movs	r1, #0
 80075b8:	68f8      	ldr	r0, [r7, #12]
 80075ba:	f000 fc1f 	bl	8007dfc <USBD_LL_PrepareReceive>
 80075be:	2300      	movs	r3, #0
 80075c0:	4618      	mov	r0, r3
 80075c2:	3710      	adds	r7, #16
 80075c4:	46bd      	mov	sp, r7
 80075c6:	bd80      	pop	{r7, pc}

080075c8 <USBD_CtlSendStatus>:
 80075c8:	b580      	push	{r7, lr}
 80075ca:	b082      	sub	sp, #8
 80075cc:	af00      	add	r7, sp, #0
 80075ce:	6078      	str	r0, [r7, #4]
 80075d0:	687b      	ldr	r3, [r7, #4]
 80075d2:	2204      	movs	r2, #4
 80075d4:	f8c3 2294 	str.w	r2, [r3, #660]	; 0x294
 80075d8:	2300      	movs	r3, #0
 80075da:	2200      	movs	r2, #0
 80075dc:	2100      	movs	r1, #0
 80075de:	6878      	ldr	r0, [r7, #4]
 80075e0:	f000 fbe9 	bl	8007db6 <USBD_LL_Transmit>
 80075e4:	2300      	movs	r3, #0
 80075e6:	4618      	mov	r0, r3
 80075e8:	3708      	adds	r7, #8
 80075ea:	46bd      	mov	sp, r7
 80075ec:	bd80      	pop	{r7, pc}

080075ee <USBD_CtlReceiveStatus>:
 80075ee:	b580      	push	{r7, lr}
 80075f0:	b082      	sub	sp, #8
 80075f2:	af00      	add	r7, sp, #0
 80075f4:	6078      	str	r0, [r7, #4]
 80075f6:	687b      	ldr	r3, [r7, #4]
 80075f8:	2205      	movs	r2, #5
 80075fa:	f8c3 2294 	str.w	r2, [r3, #660]	; 0x294
 80075fe:	2300      	movs	r3, #0
 8007600:	2200      	movs	r2, #0
 8007602:	2100      	movs	r1, #0
 8007604:	6878      	ldr	r0, [r7, #4]
 8007606:	f000 fbf9 	bl	8007dfc <USBD_LL_PrepareReceive>
 800760a:	2300      	movs	r3, #0
 800760c:	4618      	mov	r0, r3
 800760e:	3708      	adds	r7, #8
 8007610:	46bd      	mov	sp, r7
 8007612:	bd80      	pop	{r7, pc}

08007614 <MX_USB_DEVICE_Init>:
 8007614:	b580      	push	{r7, lr}
 8007616:	af00      	add	r7, sp, #0
 8007618:	2200      	movs	r2, #0
 800761a:	4912      	ldr	r1, [pc, #72]	; (8007664 <MX_USB_DEVICE_Init+0x50>)
 800761c:	4812      	ldr	r0, [pc, #72]	; (8007668 <MX_USB_DEVICE_Init+0x54>)
 800761e:	f7fe ff6d 	bl	80064fc <USBD_Init>
 8007622:	4603      	mov	r3, r0
 8007624:	2b00      	cmp	r3, #0
 8007626:	d001      	beq.n	800762c <MX_USB_DEVICE_Init+0x18>
 8007628:	f7f8 ffee 	bl	8000608 <Error_Handler>
 800762c:	490f      	ldr	r1, [pc, #60]	; (800766c <MX_USB_DEVICE_Init+0x58>)
 800762e:	480e      	ldr	r0, [pc, #56]	; (8007668 <MX_USB_DEVICE_Init+0x54>)
 8007630:	f7fe ff8f 	bl	8006552 <USBD_RegisterClass>
 8007634:	4603      	mov	r3, r0
 8007636:	2b00      	cmp	r3, #0
 8007638:	d001      	beq.n	800763e <MX_USB_DEVICE_Init+0x2a>
 800763a:	f7f8 ffe5 	bl	8000608 <Error_Handler>
 800763e:	490c      	ldr	r1, [pc, #48]	; (8007670 <MX_USB_DEVICE_Init+0x5c>)
 8007640:	4809      	ldr	r0, [pc, #36]	; (8007668 <MX_USB_DEVICE_Init+0x54>)
 8007642:	f7fe feef 	bl	8006424 <USBD_CDC_RegisterInterface>
 8007646:	4603      	mov	r3, r0
 8007648:	2b00      	cmp	r3, #0
 800764a:	d001      	beq.n	8007650 <MX_USB_DEVICE_Init+0x3c>
 800764c:	f7f8 ffdc 	bl	8000608 <Error_Handler>
 8007650:	4805      	ldr	r0, [pc, #20]	; (8007668 <MX_USB_DEVICE_Init+0x54>)
 8007652:	f7fe ff97 	bl	8006584 <USBD_Start>
 8007656:	4603      	mov	r3, r0
 8007658:	2b00      	cmp	r3, #0
 800765a:	d001      	beq.n	8007660 <MX_USB_DEVICE_Init+0x4c>
 800765c:	f7f8 ffd4 	bl	8000608 <Error_Handler>
 8007660:	bf00      	nop
 8007662:	bd80      	pop	{r7, pc}
 8007664:	20000140 	.word	0x20000140
 8007668:	20000504 	.word	0x20000504
 800766c:	2000002c 	.word	0x2000002c
 8007670:	20000130 	.word	0x20000130

08007674 <CDC_Init_FS>:
 8007674:	b580      	push	{r7, lr}
 8007676:	af00      	add	r7, sp, #0
 8007678:	2200      	movs	r2, #0
 800767a:	4905      	ldr	r1, [pc, #20]	; (8007690 <CDC_Init_FS+0x1c>)
 800767c:	4805      	ldr	r0, [pc, #20]	; (8007694 <CDC_Init_FS+0x20>)
 800767e:	f7fe fee7 	bl	8006450 <USBD_CDC_SetTxBuffer>
 8007682:	4905      	ldr	r1, [pc, #20]	; (8007698 <CDC_Init_FS+0x24>)
 8007684:	4803      	ldr	r0, [pc, #12]	; (8007694 <CDC_Init_FS+0x20>)
 8007686:	f7fe fefc 	bl	8006482 <USBD_CDC_SetRxBuffer>
 800768a:	2300      	movs	r3, #0
 800768c:	4618      	mov	r0, r3
 800768e:	bd80      	pop	{r7, pc}
 8007690:	20000bb0 	.word	0x20000bb0
 8007694:	20000504 	.word	0x20000504
 8007698:	200007c8 	.word	0x200007c8

0800769c <CDC_DeInit_FS>:
 800769c:	b480      	push	{r7}
 800769e:	af00      	add	r7, sp, #0
 80076a0:	2300      	movs	r3, #0
 80076a2:	4618      	mov	r0, r3
 80076a4:	46bd      	mov	sp, r7
 80076a6:	bc80      	pop	{r7}
 80076a8:	4770      	bx	lr
	...

080076ac <CDC_Control_FS>:
 80076ac:	b480      	push	{r7}
 80076ae:	b083      	sub	sp, #12
 80076b0:	af00      	add	r7, sp, #0
 80076b2:	4603      	mov	r3, r0
 80076b4:	6039      	str	r1, [r7, #0]
 80076b6:	71fb      	strb	r3, [r7, #7]
 80076b8:	4613      	mov	r3, r2
 80076ba:	80bb      	strh	r3, [r7, #4]
 80076bc:	79fb      	ldrb	r3, [r7, #7]
 80076be:	2b23      	cmp	r3, #35	; 0x23
 80076c0:	d84a      	bhi.n	8007758 <CDC_Control_FS+0xac>
 80076c2:	a201      	add	r2, pc, #4	; (adr r2, 80076c8 <CDC_Control_FS+0x1c>)
 80076c4:	f852 f023 	ldr.w	pc, [r2, r3, lsl #2]
 80076c8:	08007759 	.word	0x08007759
 80076cc:	08007759 	.word	0x08007759
 80076d0:	08007759 	.word	0x08007759
 80076d4:	08007759 	.word	0x08007759
 80076d8:	08007759 	.word	0x08007759
 80076dc:	08007759 	.word	0x08007759
 80076e0:	08007759 	.word	0x08007759
 80076e4:	08007759 	.word	0x08007759
 80076e8:	08007759 	.word	0x08007759
 80076ec:	08007759 	.word	0x08007759
 80076f0:	08007759 	.word	0x08007759
 80076f4:	08007759 	.word	0x08007759
 80076f8:	08007759 	.word	0x08007759
 80076fc:	08007759 	.word	0x08007759
 8007700:	08007759 	.word	0x08007759
 8007704:	08007759 	.word	0x08007759
 8007708:	08007759 	.word	0x08007759
 800770c:	08007759 	.word	0x08007759
 8007710:	08007759 	.word	0x08007759
 8007714:	08007759 	.word	0x08007759
 8007718:	08007759 	.word	0x08007759
 800771c:	08007759 	.word	0x08007759
 8007720:	08007759 	.word	0x08007759
 8007724:	08007759 	.word	0x08007759
 8007728:	08007759 	.word	0x08007759
 800772c:	08007759 	.word	0x08007759
 8007730:	08007759 	.word	0x08007759
 8007734:	08007759 	.word	0x08007759
 8007738:	08007759 	.word	0x08007759
 800773c:	08007759 	.word	0x08007759
 8007740:	08007759 	.word	0x08007759
 8007744:	08007759 	.word	0x08007759
 8007748:	08007759 	.word	0x08007759
 800774c:	08007759 	.word	0x08007759
 8007750:	08007759 	.word	0x08007759
 8007754:	08007759 	.word	0x08007759
 8007758:	bf00      	nop
 800775a:	2300      	movs	r3, #0
 800775c:	4618      	mov	r0, r3
 800775e:	370c      	adds	r7, #12
 8007760:	46bd      	mov	sp, r7
 8007762:	bc80      	pop	{r7}
 8007764:	4770      	bx	lr
 8007766:	bf00      	nop

08007768 <CDC_Receive_FS>:
 8007768:	b580      	push	{r7, lr}
 800776a:	b082      	sub	sp, #8
 800776c:	af00      	add	r7, sp, #0
 800776e:	6078      	str	r0, [r7, #4]
 8007770:	6039      	str	r1, [r7, #0]
 8007772:	6879      	ldr	r1, [r7, #4]
 8007774:	4805      	ldr	r0, [pc, #20]	; (800778c <CDC_Receive_FS+0x24>)
 8007776:	f7fe fe84 	bl	8006482 <USBD_CDC_SetRxBuffer>
 800777a:	4804      	ldr	r0, [pc, #16]	; (800778c <CDC_Receive_FS+0x24>)
 800777c:	f7fe fe94 	bl	80064a8 <USBD_CDC_ReceivePacket>
 8007780:	2300      	movs	r3, #0
 8007782:	4618      	mov	r0, r3
 8007784:	3708      	adds	r7, #8
 8007786:	46bd      	mov	sp, r7
 8007788:	bd80      	pop	{r7, pc}
 800778a:	bf00      	nop
 800778c:	20000504 	.word	0x20000504

08007790 <USBD_FS_DeviceDescriptor>:
 8007790:	b480      	push	{r7}
 8007792:	b083      	sub	sp, #12
 8007794:	af00      	add	r7, sp, #0
 8007796:	4603      	mov	r3, r0
 8007798:	6039      	str	r1, [r7, #0]
 800779a:	71fb      	strb	r3, [r7, #7]
 800779c:	683b      	ldr	r3, [r7, #0]
 800779e:	2212      	movs	r2, #18
 80077a0:	801a      	strh	r2, [r3, #0]
 80077a2:	4b03      	ldr	r3, [pc, #12]	; (80077b0 <USBD_FS_DeviceDescriptor+0x20>)
 80077a4:	4618      	mov	r0, r3
 80077a6:	370c      	adds	r7, #12
 80077a8:	46bd      	mov	sp, r7
 80077aa:	bc80      	pop	{r7}
 80077ac:	4770      	bx	lr
 80077ae:	bf00      	nop
 80077b0:	2000015c 	.word	0x2000015c

080077b4 <USBD_FS_LangIDStrDescriptor>:
 80077b4:	b480      	push	{r7}
 80077b6:	b083      	sub	sp, #12
 80077b8:	af00      	add	r7, sp, #0
 80077ba:	4603      	mov	r3, r0
 80077bc:	6039      	str	r1, [r7, #0]
 80077be:	71fb      	strb	r3, [r7, #7]
 80077c0:	683b      	ldr	r3, [r7, #0]
 80077c2:	2204      	movs	r2, #4
 80077c4:	801a      	strh	r2, [r3, #0]
 80077c6:	4b03      	ldr	r3, [pc, #12]	; (80077d4 <USBD_FS_LangIDStrDescriptor+0x20>)
 80077c8:	4618      	mov	r0, r3
 80077ca:	370c      	adds	r7, #12
 80077cc:	46bd      	mov	sp, r7
 80077ce:	bc80      	pop	{r7}
 80077d0:	4770      	bx	lr
 80077d2:	bf00      	nop
 80077d4:	20000170 	.word	0x20000170

080077d8 <USBD_FS_ProductStrDescriptor>:
 80077d8:	b580      	push	{r7, lr}
 80077da:	b082      	sub	sp, #8
 80077dc:	af00      	add	r7, sp, #0
 80077de:	4603      	mov	r3, r0
 80077e0:	6039      	str	r1, [r7, #0]
 80077e2:	71fb      	strb	r3, [r7, #7]
 80077e4:	79fb      	ldrb	r3, [r7, #7]
 80077e6:	2b00      	cmp	r3, #0
 80077e8:	d105      	bne.n	80077f6 <USBD_FS_ProductStrDescriptor+0x1e>
 80077ea:	683a      	ldr	r2, [r7, #0]
 80077ec:	4907      	ldr	r1, [pc, #28]	; (800780c <USBD_FS_ProductStrDescriptor+0x34>)
 80077ee:	4808      	ldr	r0, [pc, #32]	; (8007810 <USBD_FS_ProductStrDescriptor+0x38>)
 80077f0:	f7ff fe33 	bl	800745a <USBD_GetString>
 80077f4:	e004      	b.n	8007800 <USBD_FS_ProductStrDescriptor+0x28>
 80077f6:	683a      	ldr	r2, [r7, #0]
 80077f8:	4904      	ldr	r1, [pc, #16]	; (800780c <USBD_FS_ProductStrDescriptor+0x34>)
 80077fa:	4805      	ldr	r0, [pc, #20]	; (8007810 <USBD_FS_ProductStrDescriptor+0x38>)
 80077fc:	f7ff fe2d 	bl	800745a <USBD_GetString>
 8007800:	4b02      	ldr	r3, [pc, #8]	; (800780c <USBD_FS_ProductStrDescriptor+0x34>)
 8007802:	4618      	mov	r0, r3
 8007804:	3708      	adds	r7, #8
 8007806:	46bd      	mov	sp, r7
 8007808:	bd80      	pop	{r7, pc}
 800780a:	bf00      	nop
 800780c:	20000f98 	.word	0x20000f98
 8007810:	08007f84 	.word	0x08007f84

08007814 <USBD_FS_ManufacturerStrDescriptor>:
 8007814:	b580      	push	{r7, lr}
 8007816:	b082      	sub	sp, #8
 8007818:	af00      	add	r7, sp, #0
 800781a:	4603      	mov	r3, r0
 800781c:	6039      	str	r1, [r7, #0]
 800781e:	71fb      	strb	r3, [r7, #7]
 8007820:	683a      	ldr	r2, [r7, #0]
 8007822:	4904      	ldr	r1, [pc, #16]	; (8007834 <USBD_FS_ManufacturerStrDescriptor+0x20>)
 8007824:	4804      	ldr	r0, [pc, #16]	; (8007838 <USBD_FS_ManufacturerStrDescriptor+0x24>)
 8007826:	f7ff fe18 	bl	800745a <USBD_GetString>
 800782a:	4b02      	ldr	r3, [pc, #8]	; (8007834 <USBD_FS_ManufacturerStrDescriptor+0x20>)
 800782c:	4618      	mov	r0, r3
 800782e:	3708      	adds	r7, #8
 8007830:	46bd      	mov	sp, r7
 8007832:	bd80      	pop	{r7, pc}
 8007834:	20000f98 	.word	0x20000f98
 8007838:	08007f9c 	.word	0x08007f9c

0800783c <USBD_FS_SerialStrDescriptor>:
 800783c:	b580      	push	{r7, lr}
 800783e:	b082      	sub	sp, #8
 8007840:	af00      	add	r7, sp, #0
 8007842:	4603      	mov	r3, r0
 8007844:	6039      	str	r1, [r7, #0]
 8007846:	71fb      	strb	r3, [r7, #7]
 8007848:	683b      	ldr	r3, [r7, #0]
 800784a:	221a      	movs	r2, #26
 800784c:	801a      	strh	r2, [r3, #0]
 800784e:	f000 f843 	bl	80078d8 <Get_SerialNum>
 8007852:	4b02      	ldr	r3, [pc, #8]	; (800785c <USBD_FS_SerialStrDescriptor+0x20>)
 8007854:	4618      	mov	r0, r3
 8007856:	3708      	adds	r7, #8
 8007858:	46bd      	mov	sp, r7
 800785a:	bd80      	pop	{r7, pc}
 800785c:	20000174 	.word	0x20000174

08007860 <USBD_FS_ConfigStrDescriptor>:
 8007860:	b580      	push	{r7, lr}
 8007862:	b082      	sub	sp, #8
 8007864:	af00      	add	r7, sp, #0
 8007866:	4603      	mov	r3, r0
 8007868:	6039      	str	r1, [r7, #0]
 800786a:	71fb      	strb	r3, [r7, #7]
 800786c:	79fb      	ldrb	r3, [r7, #7]
 800786e:	2b00      	cmp	r3, #0
 8007870:	d105      	bne.n	800787e <USBD_FS_ConfigStrDescriptor+0x1e>
 8007872:	683a      	ldr	r2, [r7, #0]
 8007874:	4907      	ldr	r1, [pc, #28]	; (8007894 <USBD_FS_ConfigStrDescriptor+0x34>)
 8007876:	4808      	ldr	r0, [pc, #32]	; (8007898 <USBD_FS_ConfigStrDescriptor+0x38>)
 8007878:	f7ff fdef 	bl	800745a <USBD_GetString>
 800787c:	e004      	b.n	8007888 <USBD_FS_ConfigStrDescriptor+0x28>
 800787e:	683a      	ldr	r2, [r7, #0]
 8007880:	4904      	ldr	r1, [pc, #16]	; (8007894 <USBD_FS_ConfigStrDescriptor+0x34>)
 8007882:	4805      	ldr	r0, [pc, #20]	; (8007898 <USBD_FS_ConfigStrDescriptor+0x38>)
 8007884:	f7ff fde9 	bl	800745a <USBD_GetString>
 8007888:	4b02      	ldr	r3, [pc, #8]	; (8007894 <USBD_FS_ConfigStrDescriptor+0x34>)
 800788a:	4618      	mov	r0, r3
 800788c:	3708      	adds	r7, #8
 800788e:	46bd      	mov	sp, r7
 8007890:	bd80      	pop	{r7, pc}
 8007892:	bf00      	nop
 8007894:	20000f98 	.word	0x20000f98
 8007898:	08007fb0 	.word	0x08007fb0

0800789c <USBD_FS_InterfaceStrDescriptor>:
 800789c:	b580      	push	{r7, lr}
 800789e:	b082      	sub	sp, #8
 80078a0:	af00      	add	r7, sp, #0
 80078a2:	4603      	mov	r3, r0
 80078a4:	6039      	str	r1, [r7, #0]
 80078a6:	71fb      	strb	r3, [r7, #7]
 80078a8:	79fb      	ldrb	r3, [r7, #7]
 80078aa:	2b00      	cmp	r3, #0
 80078ac:	d105      	bne.n	80078ba <USBD_FS_InterfaceStrDescriptor+0x1e>
 80078ae:	683a      	ldr	r2, [r7, #0]
 80078b0:	4907      	ldr	r1, [pc, #28]	; (80078d0 <USBD_FS_InterfaceStrDescriptor+0x34>)
 80078b2:	4808      	ldr	r0, [pc, #32]	; (80078d4 <USBD_FS_InterfaceStrDescriptor+0x38>)
 80078b4:	f7ff fdd1 	bl	800745a <USBD_GetString>
 80078b8:	e004      	b.n	80078c4 <USBD_FS_InterfaceStrDescriptor+0x28>
 80078ba:	683a      	ldr	r2, [r7, #0]
 80078bc:	4904      	ldr	r1, [pc, #16]	; (80078d0 <USBD_FS_InterfaceStrDescriptor+0x34>)
 80078be:	4805      	ldr	r0, [pc, #20]	; (80078d4 <USBD_FS_InterfaceStrDescriptor+0x38>)
 80078c0:	f7ff fdcb 	bl	800745a <USBD_GetString>
 80078c4:	4b02      	ldr	r3, [pc, #8]	; (80078d0 <USBD_FS_InterfaceStrDescriptor+0x34>)
 80078c6:	4618      	mov	r0, r3
 80078c8:	3708      	adds	r7, #8
 80078ca:	46bd      	mov	sp, r7
 80078cc:	bd80      	pop	{r7, pc}
 80078ce:	bf00      	nop
 80078d0:	20000f98 	.word	0x20000f98
 80078d4:	08007fbc 	.word	0x08007fbc

080078d8 <Get_SerialNum>:
 80078d8:	b580      	push	{r7, lr}
 80078da:	b084      	sub	sp, #16
 80078dc:	af00      	add	r7, sp, #0
 80078de:	4b0f      	ldr	r3, [pc, #60]	; (800791c <Get_SerialNum+0x44>)
 80078e0:	681b      	ldr	r3, [r3, #0]
 80078e2:	60fb      	str	r3, [r7, #12]
 80078e4:	4b0e      	ldr	r3, [pc, #56]	; (8007920 <Get_SerialNum+0x48>)
 80078e6:	681b      	ldr	r3, [r3, #0]
 80078e8:	60bb      	str	r3, [r7, #8]
 80078ea:	4b0e      	ldr	r3, [pc, #56]	; (8007924 <Get_SerialNum+0x4c>)
 80078ec:	681b      	ldr	r3, [r3, #0]
 80078ee:	607b      	str	r3, [r7, #4]
 80078f0:	68fa      	ldr	r2, [r7, #12]
 80078f2:	687b      	ldr	r3, [r7, #4]
 80078f4:	4413      	add	r3, r2
 80078f6:	60fb      	str	r3, [r7, #12]
 80078f8:	68fb      	ldr	r3, [r7, #12]
 80078fa:	2b00      	cmp	r3, #0
 80078fc:	d009      	beq.n	8007912 <Get_SerialNum+0x3a>
 80078fe:	2208      	movs	r2, #8
 8007900:	4909      	ldr	r1, [pc, #36]	; (8007928 <Get_SerialNum+0x50>)
 8007902:	68f8      	ldr	r0, [r7, #12]
 8007904:	f000 f814 	bl	8007930 <IntToUnicode>
 8007908:	2204      	movs	r2, #4
 800790a:	4908      	ldr	r1, [pc, #32]	; (800792c <Get_SerialNum+0x54>)
 800790c:	68b8      	ldr	r0, [r7, #8]
 800790e:	f000 f80f 	bl	8007930 <IntToUnicode>
 8007912:	bf00      	nop
 8007914:	3710      	adds	r7, #16
 8007916:	46bd      	mov	sp, r7
 8007918:	bd80      	pop	{r7, pc}
 800791a:	bf00      	nop
 800791c:	1ffff7e8 	.word	0x1ffff7e8
 8007920:	1ffff7ec 	.word	0x1ffff7ec
 8007924:	1ffff7f0 	.word	0x1ffff7f0
 8007928:	20000176 	.word	0x20000176
 800792c:	20000186 	.word	0x20000186

08007930 <IntToUnicode>:
 8007930:	b480      	push	{r7}
 8007932:	b087      	sub	sp, #28
 8007934:	af00      	add	r7, sp, #0
 8007936:	60f8      	str	r0, [r7, #12]
 8007938:	60b9      	str	r1, [r7, #8]
 800793a:	4613      	mov	r3, r2
 800793c:	71fb      	strb	r3, [r7, #7]
 800793e:	2300      	movs	r3, #0
 8007940:	75fb      	strb	r3, [r7, #23]
 8007942:	2300      	movs	r3, #0
 8007944:	75fb      	strb	r3, [r7, #23]
 8007946:	e027      	b.n	8007998 <IntToUnicode+0x68>
 8007948:	68fb      	ldr	r3, [r7, #12]
 800794a:	0f1b      	lsrs	r3, r3, #28
 800794c:	2b09      	cmp	r3, #9
 800794e:	d80b      	bhi.n	8007968 <IntToUnicode+0x38>
 8007950:	68fb      	ldr	r3, [r7, #12]
 8007952:	0f1b      	lsrs	r3, r3, #28
 8007954:	b2da      	uxtb	r2, r3
 8007956:	7dfb      	ldrb	r3, [r7, #23]
 8007958:	005b      	lsls	r3, r3, #1
 800795a:	4619      	mov	r1, r3
 800795c:	68bb      	ldr	r3, [r7, #8]
 800795e:	440b      	add	r3, r1
 8007960:	3230      	adds	r2, #48	; 0x30
 8007962:	b2d2      	uxtb	r2, r2
 8007964:	701a      	strb	r2, [r3, #0]
 8007966:	e00a      	b.n	800797e <IntToUnicode+0x4e>
 8007968:	68fb      	ldr	r3, [r7, #12]
 800796a:	0f1b      	lsrs	r3, r3, #28
 800796c:	b2da      	uxtb	r2, r3
 800796e:	7dfb      	ldrb	r3, [r7, #23]
 8007970:	005b      	lsls	r3, r3, #1
 8007972:	4619      	mov	r1, r3
 8007974:	68bb      	ldr	r3, [r7, #8]
 8007976:	440b      	add	r3, r1
 8007978:	3237      	adds	r2, #55	; 0x37
 800797a:	b2d2      	uxtb	r2, r2
 800797c:	701a      	strb	r2, [r3, #0]
 800797e:	68fb      	ldr	r3, [r7, #12]
 8007980:	011b      	lsls	r3, r3, #4
 8007982:	60fb      	str	r3, [r7, #12]
 8007984:	7dfb      	ldrb	r3, [r7, #23]
 8007986:	005b      	lsls	r3, r3, #1
 8007988:	3301      	adds	r3, #1
 800798a:	68ba      	ldr	r2, [r7, #8]
 800798c:	4413      	add	r3, r2
 800798e:	2200      	movs	r2, #0
 8007990:	701a      	strb	r2, [r3, #0]
 8007992:	7dfb      	ldrb	r3, [r7, #23]
 8007994:	3301      	adds	r3, #1
 8007996:	75fb      	strb	r3, [r7, #23]
 8007998:	7dfa      	ldrb	r2, [r7, #23]
 800799a:	79fb      	ldrb	r3, [r7, #7]
 800799c:	429a      	cmp	r2, r3
 800799e:	d3d3      	bcc.n	8007948 <IntToUnicode+0x18>
 80079a0:	bf00      	nop
 80079a2:	371c      	adds	r7, #28
 80079a4:	46bd      	mov	sp, r7
 80079a6:	bc80      	pop	{r7}
 80079a8:	4770      	bx	lr
	...

080079ac <HAL_PCD_MspInit>:
 80079ac:	b580      	push	{r7, lr}
 80079ae:	b084      	sub	sp, #16
 80079b0:	af00      	add	r7, sp, #0
 80079b2:	6078      	str	r0, [r7, #4]
 80079b4:	687b      	ldr	r3, [r7, #4]
 80079b6:	681b      	ldr	r3, [r3, #0]
 80079b8:	4a0d      	ldr	r2, [pc, #52]	; (80079f0 <HAL_PCD_MspInit+0x44>)
 80079ba:	4293      	cmp	r3, r2
 80079bc:	d113      	bne.n	80079e6 <HAL_PCD_MspInit+0x3a>
 80079be:	4b0d      	ldr	r3, [pc, #52]	; (80079f4 <HAL_PCD_MspInit+0x48>)
 80079c0:	69db      	ldr	r3, [r3, #28]
 80079c2:	4a0c      	ldr	r2, [pc, #48]	; (80079f4 <HAL_PCD_MspInit+0x48>)
 80079c4:	f443 0300 	orr.w	r3, r3, #8388608	; 0x800000
 80079c8:	61d3      	str	r3, [r2, #28]
 80079ca:	4b0a      	ldr	r3, [pc, #40]	; (80079f4 <HAL_PCD_MspInit+0x48>)
 80079cc:	69db      	ldr	r3, [r3, #28]
 80079ce:	f403 0300 	and.w	r3, r3, #8388608	; 0x800000
 80079d2:	60fb      	str	r3, [r7, #12]
 80079d4:	68fb      	ldr	r3, [r7, #12]
 80079d6:	2200      	movs	r2, #0
 80079d8:	2100      	movs	r1, #0
 80079da:	2014      	movs	r0, #20
 80079dc:	f7f9 fb71 	bl	80010c2 <HAL_NVIC_SetPriority>
 80079e0:	2014      	movs	r0, #20
 80079e2:	f7f9 fb8a 	bl	80010fa <HAL_NVIC_EnableIRQ>
 80079e6:	bf00      	nop
 80079e8:	3710      	adds	r7, #16
 80079ea:	46bd      	mov	sp, r7
 80079ec:	bd80      	pop	{r7, pc}
 80079ee:	bf00      	nop
 80079f0:	40005c00 	.word	0x40005c00
 80079f4:	40021000 	.word	0x40021000

080079f8 <HAL_PCD_SetupStageCallback>:
 80079f8:	b580      	push	{r7, lr}
 80079fa:	b082      	sub	sp, #8
 80079fc:	af00      	add	r7, sp, #0
 80079fe:	6078      	str	r0, [r7, #4]
 8007a00:	687b      	ldr	r3, [r7, #4]
 8007a02:	f8d3 22e8 	ldr.w	r2, [r3, #744]	; 0x2e8
 8007a06:	687b      	ldr	r3, [r7, #4]
 8007a08:	f503 732c 	add.w	r3, r3, #688	; 0x2b0
 8007a0c:	4619      	mov	r1, r3
 8007a0e:	4610      	mov	r0, r2
 8007a10:	f7fe fe00 	bl	8006614 <USBD_LL_SetupStage>
 8007a14:	bf00      	nop
 8007a16:	3708      	adds	r7, #8
 8007a18:	46bd      	mov	sp, r7
 8007a1a:	bd80      	pop	{r7, pc}

08007a1c <HAL_PCD_DataOutStageCallback>:
 8007a1c:	b580      	push	{r7, lr}
 8007a1e:	b082      	sub	sp, #8
 8007a20:	af00      	add	r7, sp, #0
 8007a22:	6078      	str	r0, [r7, #4]
 8007a24:	460b      	mov	r3, r1
 8007a26:	70fb      	strb	r3, [r7, #3]
 8007a28:	687b      	ldr	r3, [r7, #4]
 8007a2a:	f8d3 02e8 	ldr.w	r0, [r3, #744]	; 0x2e8
 8007a2e:	78fa      	ldrb	r2, [r7, #3]
 8007a30:	6879      	ldr	r1, [r7, #4]
 8007a32:	4613      	mov	r3, r2
 8007a34:	009b      	lsls	r3, r3, #2
 8007a36:	4413      	add	r3, r2
 8007a38:	00db      	lsls	r3, r3, #3
 8007a3a:	440b      	add	r3, r1
 8007a3c:	f503 73be 	add.w	r3, r3, #380	; 0x17c
 8007a40:	681a      	ldr	r2, [r3, #0]
 8007a42:	78fb      	ldrb	r3, [r7, #3]
 8007a44:	4619      	mov	r1, r3
 8007a46:	f7fe fe30 	bl	80066aa <USBD_LL_DataOutStage>
 8007a4a:	bf00      	nop
 8007a4c:	3708      	adds	r7, #8
 8007a4e:	46bd      	mov	sp, r7
 8007a50:	bd80      	pop	{r7, pc}

08007a52 <HAL_PCD_DataInStageCallback>:
 8007a52:	b580      	push	{r7, lr}
 8007a54:	b082      	sub	sp, #8
 8007a56:	af00      	add	r7, sp, #0
 8007a58:	6078      	str	r0, [r7, #4]
 8007a5a:	460b      	mov	r3, r1
 8007a5c:	70fb      	strb	r3, [r7, #3]
 8007a5e:	687b      	ldr	r3, [r7, #4]
 8007a60:	f8d3 02e8 	ldr.w	r0, [r3, #744]	; 0x2e8
 8007a64:	78fa      	ldrb	r2, [r7, #3]
 8007a66:	6879      	ldr	r1, [r7, #4]
 8007a68:	4613      	mov	r3, r2
 8007a6a:	009b      	lsls	r3, r3, #2
 8007a6c:	4413      	add	r3, r2
 8007a6e:	00db      	lsls	r3, r3, #3
 8007a70:	440b      	add	r3, r1
 8007a72:	333c      	adds	r3, #60	; 0x3c
 8007a74:	681a      	ldr	r2, [r3, #0]
 8007a76:	78fb      	ldrb	r3, [r7, #3]
 8007a78:	4619      	mov	r1, r3
 8007a7a:	f7fe fe87 	bl	800678c <USBD_LL_DataInStage>
 8007a7e:	bf00      	nop
 8007a80:	3708      	adds	r7, #8
 8007a82:	46bd      	mov	sp, r7
 8007a84:	bd80      	pop	{r7, pc}

08007a86 <HAL_PCD_SOFCallback>:
 8007a86:	b580      	push	{r7, lr}
 8007a88:	b082      	sub	sp, #8
 8007a8a:	af00      	add	r7, sp, #0
 8007a8c:	6078      	str	r0, [r7, #4]
 8007a8e:	687b      	ldr	r3, [r7, #4]
 8007a90:	f8d3 32e8 	ldr.w	r3, [r3, #744]	; 0x2e8
 8007a94:	4618      	mov	r0, r3
 8007a96:	f7fe ff97 	bl	80069c8 <USBD_LL_SOF>
 8007a9a:	bf00      	nop
 8007a9c:	3708      	adds	r7, #8
 8007a9e:	46bd      	mov	sp, r7
 8007aa0:	bd80      	pop	{r7, pc}

08007aa2 <HAL_PCD_ResetCallback>:
 8007aa2:	b580      	push	{r7, lr}
 8007aa4:	b084      	sub	sp, #16
 8007aa6:	af00      	add	r7, sp, #0
 8007aa8:	6078      	str	r0, [r7, #4]
 8007aaa:	2301      	movs	r3, #1
 8007aac:	73fb      	strb	r3, [r7, #15]
 8007aae:	687b      	ldr	r3, [r7, #4]
 8007ab0:	689b      	ldr	r3, [r3, #8]
 8007ab2:	2b02      	cmp	r3, #2
 8007ab4:	d001      	beq.n	8007aba <HAL_PCD_ResetCallback+0x18>
 8007ab6:	f7f8 fda7 	bl	8000608 <Error_Handler>
 8007aba:	687b      	ldr	r3, [r7, #4]
 8007abc:	f8d3 32e8 	ldr.w	r3, [r3, #744]	; 0x2e8
 8007ac0:	7bfa      	ldrb	r2, [r7, #15]
 8007ac2:	4611      	mov	r1, r2
 8007ac4:	4618      	mov	r0, r3
 8007ac6:	f7fe ff47 	bl	8006958 <USBD_LL_SetSpeed>
 8007aca:	687b      	ldr	r3, [r7, #4]
 8007acc:	f8d3 32e8 	ldr.w	r3, [r3, #744]	; 0x2e8
 8007ad0:	4618      	mov	r0, r3
 8007ad2:	f7fe ff00 	bl	80068d6 <USBD_LL_Reset>
 8007ad6:	bf00      	nop
 8007ad8:	3710      	adds	r7, #16
 8007ada:	46bd      	mov	sp, r7
 8007adc:	bd80      	pop	{r7, pc}
	...

08007ae0 <HAL_PCD_SuspendCallback>:
 8007ae0:	b580      	push	{r7, lr}
 8007ae2:	b082      	sub	sp, #8
 8007ae4:	af00      	add	r7, sp, #0
 8007ae6:	6078      	str	r0, [r7, #4]
 8007ae8:	687b      	ldr	r3, [r7, #4]
 8007aea:	f8d3 32e8 	ldr.w	r3, [r3, #744]	; 0x2e8
 8007aee:	4618      	mov	r0, r3
 8007af0:	f7fe ff41 	bl	8006976 <USBD_LL_Suspend>
 8007af4:	687b      	ldr	r3, [r7, #4]
 8007af6:	699b      	ldr	r3, [r3, #24]
 8007af8:	2b00      	cmp	r3, #0
 8007afa:	d005      	beq.n	8007b08 <HAL_PCD_SuspendCallback+0x28>
 8007afc:	4b04      	ldr	r3, [pc, #16]	; (8007b10 <HAL_PCD_SuspendCallback+0x30>)
 8007afe:	691b      	ldr	r3, [r3, #16]
 8007b00:	4a03      	ldr	r2, [pc, #12]	; (8007b10 <HAL_PCD_SuspendCallback+0x30>)
 8007b02:	f043 0306 	orr.w	r3, r3, #6
 8007b06:	6113      	str	r3, [r2, #16]
 8007b08:	bf00      	nop
 8007b0a:	3708      	adds	r7, #8
 8007b0c:	46bd      	mov	sp, r7
 8007b0e:	bd80      	pop	{r7, pc}
 8007b10:	e000ed00 	.word	0xe000ed00

08007b14 <HAL_PCD_ResumeCallback>:
 8007b14:	b580      	push	{r7, lr}
 8007b16:	b082      	sub	sp, #8
 8007b18:	af00      	add	r7, sp, #0
 8007b1a:	6078      	str	r0, [r7, #4]
 8007b1c:	687b      	ldr	r3, [r7, #4]
 8007b1e:	f8d3 32e8 	ldr.w	r3, [r3, #744]	; 0x2e8
 8007b22:	4618      	mov	r0, r3
 8007b24:	f7fe ff3b 	bl	800699e <USBD_LL_Resume>
 8007b28:	bf00      	nop
 8007b2a:	3708      	adds	r7, #8
 8007b2c:	46bd      	mov	sp, r7
 8007b2e:	bd80      	pop	{r7, pc}

08007b30 <USBD_LL_Init>:
 8007b30:	b580      	push	{r7, lr}
 8007b32:	b082      	sub	sp, #8
 8007b34:	af00      	add	r7, sp, #0
 8007b36:	6078      	str	r0, [r7, #4]
 8007b38:	4a28      	ldr	r2, [pc, #160]	; (8007bdc <USBD_LL_Init+0xac>)
 8007b3a:	687b      	ldr	r3, [r7, #4]
 8007b3c:	f8c2 32e8 	str.w	r3, [r2, #744]	; 0x2e8
 8007b40:	687b      	ldr	r3, [r7, #4]
 8007b42:	4a26      	ldr	r2, [pc, #152]	; (8007bdc <USBD_LL_Init+0xac>)
 8007b44:	f8c3 22c0 	str.w	r2, [r3, #704]	; 0x2c0
 8007b48:	4b24      	ldr	r3, [pc, #144]	; (8007bdc <USBD_LL_Init+0xac>)
 8007b4a:	4a25      	ldr	r2, [pc, #148]	; (8007be0 <USBD_LL_Init+0xb0>)
 8007b4c:	601a      	str	r2, [r3, #0]
 8007b4e:	4b23      	ldr	r3, [pc, #140]	; (8007bdc <USBD_LL_Init+0xac>)
 8007b50:	2208      	movs	r2, #8
 8007b52:	605a      	str	r2, [r3, #4]
 8007b54:	4b21      	ldr	r3, [pc, #132]	; (8007bdc <USBD_LL_Init+0xac>)
 8007b56:	2202      	movs	r2, #2
 8007b58:	609a      	str	r2, [r3, #8]
 8007b5a:	4b20      	ldr	r3, [pc, #128]	; (8007bdc <USBD_LL_Init+0xac>)
 8007b5c:	2200      	movs	r2, #0
 8007b5e:	619a      	str	r2, [r3, #24]
 8007b60:	4b1e      	ldr	r3, [pc, #120]	; (8007bdc <USBD_LL_Init+0xac>)
 8007b62:	2200      	movs	r2, #0
 8007b64:	61da      	str	r2, [r3, #28]
 8007b66:	4b1d      	ldr	r3, [pc, #116]	; (8007bdc <USBD_LL_Init+0xac>)
 8007b68:	2200      	movs	r2, #0
 8007b6a:	621a      	str	r2, [r3, #32]
 8007b6c:	481b      	ldr	r0, [pc, #108]	; (8007bdc <USBD_LL_Init+0xac>)
 8007b6e:	f7f9 fd89 	bl	8001684 <HAL_PCD_Init>
 8007b72:	4603      	mov	r3, r0
 8007b74:	2b00      	cmp	r3, #0
 8007b76:	d001      	beq.n	8007b7c <USBD_LL_Init+0x4c>
 8007b78:	f7f8 fd46 	bl	8000608 <Error_Handler>
 8007b7c:	687b      	ldr	r3, [r7, #4]
 8007b7e:	f8d3 02c0 	ldr.w	r0, [r3, #704]	; 0x2c0
 8007b82:	2318      	movs	r3, #24
 8007b84:	2200      	movs	r2, #0
 8007b86:	2100      	movs	r1, #0
 8007b88:	f7fb f8bd 	bl	8002d06 <HAL_PCDEx_PMAConfig>
 8007b8c:	687b      	ldr	r3, [r7, #4]
 8007b8e:	f8d3 02c0 	ldr.w	r0, [r3, #704]	; 0x2c0
 8007b92:	2358      	movs	r3, #88	; 0x58
 8007b94:	2200      	movs	r2, #0
 8007b96:	2180      	movs	r1, #128	; 0x80
 8007b98:	f7fb f8b5 	bl	8002d06 <HAL_PCDEx_PMAConfig>
 8007b9c:	687b      	ldr	r3, [r7, #4]
 8007b9e:	f8d3 02c0 	ldr.w	r0, [r3, #704]	; 0x2c0
 8007ba2:	23c0      	movs	r3, #192	; 0xc0
 8007ba4:	2200      	movs	r2, #0
 8007ba6:	2181      	movs	r1, #129	; 0x81
 8007ba8:	f7fb f8ad 	bl	8002d06 <HAL_PCDEx_PMAConfig>
 8007bac:	687b      	ldr	r3, [r7, #4]
 8007bae:	f8d3 02c0 	ldr.w	r0, [r3, #704]	; 0x2c0
 8007bb2:	f44f 7388 	mov.w	r3, #272	; 0x110
 8007bb6:	2200      	movs	r2, #0
 8007bb8:	2101      	movs	r1, #1
 8007bba:	f7fb f8a4 	bl	8002d06 <HAL_PCDEx_PMAConfig>
 8007bbe:	687b      	ldr	r3, [r7, #4]
 8007bc0:	f8d3 02c0 	ldr.w	r0, [r3, #704]	; 0x2c0
 8007bc4:	f44f 7380 	mov.w	r3, #256	; 0x100
 8007bc8:	2200      	movs	r2, #0
 8007bca:	2182      	movs	r1, #130	; 0x82
 8007bcc:	f7fb f89b 	bl	8002d06 <HAL_PCDEx_PMAConfig>
 8007bd0:	2300      	movs	r3, #0
 8007bd2:	4618      	mov	r0, r3
 8007bd4:	3708      	adds	r7, #8
 8007bd6:	46bd      	mov	sp, r7
 8007bd8:	bd80      	pop	{r7, pc}
 8007bda:	bf00      	nop
 8007bdc:	20001198 	.word	0x20001198
 8007be0:	40005c00 	.word	0x40005c00

08007be4 <USBD_LL_Start>:
 8007be4:	b580      	push	{r7, lr}
 8007be6:	b084      	sub	sp, #16
 8007be8:	af00      	add	r7, sp, #0
 8007bea:	6078      	str	r0, [r7, #4]
 8007bec:	2300      	movs	r3, #0
 8007bee:	73fb      	strb	r3, [r7, #15]
 8007bf0:	2300      	movs	r3, #0
 8007bf2:	73bb      	strb	r3, [r7, #14]
 8007bf4:	687b      	ldr	r3, [r7, #4]
 8007bf6:	f8d3 32c0 	ldr.w	r3, [r3, #704]	; 0x2c0
 8007bfa:	4618      	mov	r0, r3
 8007bfc:	f7f9 fe4d 	bl	800189a <HAL_PCD_Start>
 8007c00:	4603      	mov	r3, r0
 8007c02:	73fb      	strb	r3, [r7, #15]
 8007c04:	7bfb      	ldrb	r3, [r7, #15]
 8007c06:	4618      	mov	r0, r3
 8007c08:	f000 f94e 	bl	8007ea8 <USBD_Get_USB_Status>
 8007c0c:	4603      	mov	r3, r0
 8007c0e:	73bb      	strb	r3, [r7, #14]
 8007c10:	7bbb      	ldrb	r3, [r7, #14]
 8007c12:	4618      	mov	r0, r3
 8007c14:	3710      	adds	r7, #16
 8007c16:	46bd      	mov	sp, r7
 8007c18:	bd80      	pop	{r7, pc}

08007c1a <USBD_LL_OpenEP>:
 8007c1a:	b580      	push	{r7, lr}
 8007c1c:	b084      	sub	sp, #16
 8007c1e:	af00      	add	r7, sp, #0
 8007c20:	6078      	str	r0, [r7, #4]
 8007c22:	4608      	mov	r0, r1
 8007c24:	4611      	mov	r1, r2
 8007c26:	461a      	mov	r2, r3
 8007c28:	4603      	mov	r3, r0
 8007c2a:	70fb      	strb	r3, [r7, #3]
 8007c2c:	460b      	mov	r3, r1
 8007c2e:	70bb      	strb	r3, [r7, #2]
 8007c30:	4613      	mov	r3, r2
 8007c32:	803b      	strh	r3, [r7, #0]
 8007c34:	2300      	movs	r3, #0
 8007c36:	73fb      	strb	r3, [r7, #15]
 8007c38:	2300      	movs	r3, #0
 8007c3a:	73bb      	strb	r3, [r7, #14]
 8007c3c:	687b      	ldr	r3, [r7, #4]
 8007c3e:	f8d3 02c0 	ldr.w	r0, [r3, #704]	; 0x2c0
 8007c42:	78bb      	ldrb	r3, [r7, #2]
 8007c44:	883a      	ldrh	r2, [r7, #0]
 8007c46:	78f9      	ldrb	r1, [r7, #3]
 8007c48:	f7f9 ffc7 	bl	8001bda <HAL_PCD_EP_Open>
 8007c4c:	4603      	mov	r3, r0
 8007c4e:	73fb      	strb	r3, [r7, #15]
 8007c50:	7bfb      	ldrb	r3, [r7, #15]
 8007c52:	4618      	mov	r0, r3
 8007c54:	f000 f928 	bl	8007ea8 <USBD_Get_USB_Status>
 8007c58:	4603      	mov	r3, r0
 8007c5a:	73bb      	strb	r3, [r7, #14]
 8007c5c:	7bbb      	ldrb	r3, [r7, #14]
 8007c5e:	4618      	mov	r0, r3
 8007c60:	3710      	adds	r7, #16
 8007c62:	46bd      	mov	sp, r7
 8007c64:	bd80      	pop	{r7, pc}

08007c66 <USBD_LL_CloseEP>:
 8007c66:	b580      	push	{r7, lr}
 8007c68:	b084      	sub	sp, #16
 8007c6a:	af00      	add	r7, sp, #0
 8007c6c:	6078      	str	r0, [r7, #4]
 8007c6e:	460b      	mov	r3, r1
 8007c70:	70fb      	strb	r3, [r7, #3]
 8007c72:	2300      	movs	r3, #0
 8007c74:	73fb      	strb	r3, [r7, #15]
 8007c76:	2300      	movs	r3, #0
 8007c78:	73bb      	strb	r3, [r7, #14]
 8007c7a:	687b      	ldr	r3, [r7, #4]
 8007c7c:	f8d3 32c0 	ldr.w	r3, [r3, #704]	; 0x2c0
 8007c80:	78fa      	ldrb	r2, [r7, #3]
 8007c82:	4611      	mov	r1, r2
 8007c84:	4618      	mov	r0, r3
 8007c86:	f7fa f80e 	bl	8001ca6 <HAL_PCD_EP_Close>
 8007c8a:	4603      	mov	r3, r0
 8007c8c:	73fb      	strb	r3, [r7, #15]
 8007c8e:	7bfb      	ldrb	r3, [r7, #15]
 8007c90:	4618      	mov	r0, r3
 8007c92:	f000 f909 	bl	8007ea8 <USBD_Get_USB_Status>
 8007c96:	4603      	mov	r3, r0
 8007c98:	73bb      	strb	r3, [r7, #14]
 8007c9a:	7bbb      	ldrb	r3, [r7, #14]
 8007c9c:	4618      	mov	r0, r3
 8007c9e:	3710      	adds	r7, #16
 8007ca0:	46bd      	mov	sp, r7
 8007ca2:	bd80      	pop	{r7, pc}

08007ca4 <USBD_LL_StallEP>:
 8007ca4:	b580      	push	{r7, lr}
 8007ca6:	b084      	sub	sp, #16
 8007ca8:	af00      	add	r7, sp, #0
 8007caa:	6078      	str	r0, [r7, #4]
 8007cac:	460b      	mov	r3, r1
 8007cae:	70fb      	strb	r3, [r7, #3]
 8007cb0:	2300      	movs	r3, #0
 8007cb2:	73fb      	strb	r3, [r7, #15]
 8007cb4:	2300      	movs	r3, #0
 8007cb6:	73bb      	strb	r3, [r7, #14]
 8007cb8:	687b      	ldr	r3, [r7, #4]
 8007cba:	f8d3 32c0 	ldr.w	r3, [r3, #704]	; 0x2c0
 8007cbe:	78fa      	ldrb	r2, [r7, #3]
 8007cc0:	4611      	mov	r1, r2
 8007cc2:	4618      	mov	r0, r3
 8007cc4:	f7fa f8ce 	bl	8001e64 <HAL_PCD_EP_SetStall>
 8007cc8:	4603      	mov	r3, r0
 8007cca:	73fb      	strb	r3, [r7, #15]
 8007ccc:	7bfb      	ldrb	r3, [r7, #15]
 8007cce:	4618      	mov	r0, r3
 8007cd0:	f000 f8ea 	bl	8007ea8 <USBD_Get_USB_Status>
 8007cd4:	4603      	mov	r3, r0
 8007cd6:	73bb      	strb	r3, [r7, #14]
 8007cd8:	7bbb      	ldrb	r3, [r7, #14]
 8007cda:	4618      	mov	r0, r3
 8007cdc:	3710      	adds	r7, #16
 8007cde:	46bd      	mov	sp, r7
 8007ce0:	bd80      	pop	{r7, pc}

08007ce2 <USBD_LL_ClearStallEP>:
 8007ce2:	b580      	push	{r7, lr}
 8007ce4:	b084      	sub	sp, #16
 8007ce6:	af00      	add	r7, sp, #0
 8007ce8:	6078      	str	r0, [r7, #4]
 8007cea:	460b      	mov	r3, r1
 8007cec:	70fb      	strb	r3, [r7, #3]
 8007cee:	2300      	movs	r3, #0
 8007cf0:	73fb      	strb	r3, [r7, #15]
 8007cf2:	2300      	movs	r3, #0
 8007cf4:	73bb      	strb	r3, [r7, #14]
 8007cf6:	687b      	ldr	r3, [r7, #4]
 8007cf8:	f8d3 32c0 	ldr.w	r3, [r3, #704]	; 0x2c0
 8007cfc:	78fa      	ldrb	r2, [r7, #3]
 8007cfe:	4611      	mov	r1, r2
 8007d00:	4618      	mov	r0, r3
 8007d02:	f7fa f90f 	bl	8001f24 <HAL_PCD_EP_ClrStall>
 8007d06:	4603      	mov	r3, r0
 8007d08:	73fb      	strb	r3, [r7, #15]
 8007d0a:	7bfb      	ldrb	r3, [r7, #15]
 8007d0c:	4618      	mov	r0, r3
 8007d0e:	f000 f8cb 	bl	8007ea8 <USBD_Get_USB_Status>
 8007d12:	4603      	mov	r3, r0
 8007d14:	73bb      	strb	r3, [r7, #14]
 8007d16:	7bbb      	ldrb	r3, [r7, #14]
 8007d18:	4618      	mov	r0, r3
 8007d1a:	3710      	adds	r7, #16
 8007d1c:	46bd      	mov	sp, r7
 8007d1e:	bd80      	pop	{r7, pc}

08007d20 <USBD_LL_IsStallEP>:
 8007d20:	b480      	push	{r7}
 8007d22:	b085      	sub	sp, #20
 8007d24:	af00      	add	r7, sp, #0
 8007d26:	6078      	str	r0, [r7, #4]
 8007d28:	460b      	mov	r3, r1
 8007d2a:	70fb      	strb	r3, [r7, #3]
 8007d2c:	687b      	ldr	r3, [r7, #4]
 8007d2e:	f8d3 32c0 	ldr.w	r3, [r3, #704]	; 0x2c0
 8007d32:	60fb      	str	r3, [r7, #12]
 8007d34:	f997 3003 	ldrsb.w	r3, [r7, #3]
 8007d38:	2b00      	cmp	r3, #0
 8007d3a:	da0c      	bge.n	8007d56 <USBD_LL_IsStallEP+0x36>
 8007d3c:	78fb      	ldrb	r3, [r7, #3]
 8007d3e:	f003 037f 	and.w	r3, r3, #127	; 0x7f
 8007d42:	68f9      	ldr	r1, [r7, #12]
 8007d44:	1c5a      	adds	r2, r3, #1
 8007d46:	4613      	mov	r3, r2
 8007d48:	009b      	lsls	r3, r3, #2
 8007d4a:	4413      	add	r3, r2
 8007d4c:	00db      	lsls	r3, r3, #3
 8007d4e:	440b      	add	r3, r1
 8007d50:	3302      	adds	r3, #2
 8007d52:	781b      	ldrb	r3, [r3, #0]
 8007d54:	e00b      	b.n	8007d6e <USBD_LL_IsStallEP+0x4e>
 8007d56:	78fb      	ldrb	r3, [r7, #3]
 8007d58:	f003 027f 	and.w	r2, r3, #127	; 0x7f
 8007d5c:	68f9      	ldr	r1, [r7, #12]
 8007d5e:	4613      	mov	r3, r2
 8007d60:	009b      	lsls	r3, r3, #2
 8007d62:	4413      	add	r3, r2
 8007d64:	00db      	lsls	r3, r3, #3
 8007d66:	440b      	add	r3, r1
 8007d68:	f503 73b5 	add.w	r3, r3, #362	; 0x16a
 8007d6c:	781b      	ldrb	r3, [r3, #0]
 8007d6e:	4618      	mov	r0, r3
 8007d70:	3714      	adds	r7, #20
 8007d72:	46bd      	mov	sp, r7
 8007d74:	bc80      	pop	{r7}
 8007d76:	4770      	bx	lr

08007d78 <USBD_LL_SetUSBAddress>:
 8007d78:	b580      	push	{r7, lr}
 8007d7a:	b084      	sub	sp, #16
 8007d7c:	af00      	add	r7, sp, #0
 8007d7e:	6078      	str	r0, [r7, #4]
 8007d80:	460b      	mov	r3, r1
 8007d82:	70fb      	strb	r3, [r7, #3]
 8007d84:	2300      	movs	r3, #0
 8007d86:	73fb      	strb	r3, [r7, #15]
 8007d88:	2300      	movs	r3, #0
 8007d8a:	73bb      	strb	r3, [r7, #14]
 8007d8c:	687b      	ldr	r3, [r7, #4]
 8007d8e:	f8d3 32c0 	ldr.w	r3, [r3, #704]	; 0x2c0
 8007d92:	78fa      	ldrb	r2, [r7, #3]
 8007d94:	4611      	mov	r1, r2
 8007d96:	4618      	mov	r0, r3
 8007d98:	f7f9 fefa 	bl	8001b90 <HAL_PCD_SetAddress>
 8007d9c:	4603      	mov	r3, r0
 8007d9e:	73fb      	strb	r3, [r7, #15]
 8007da0:	7bfb      	ldrb	r3, [r7, #15]
 8007da2:	4618      	mov	r0, r3
 8007da4:	f000 f880 	bl	8007ea8 <USBD_Get_USB_Status>
 8007da8:	4603      	mov	r3, r0
 8007daa:	73bb      	strb	r3, [r7, #14]
 8007dac:	7bbb      	ldrb	r3, [r7, #14]
 8007dae:	4618      	mov	r0, r3
 8007db0:	3710      	adds	r7, #16
 8007db2:	46bd      	mov	sp, r7
 8007db4:	bd80      	pop	{r7, pc}

08007db6 <USBD_LL_Transmit>:
 8007db6:	b580      	push	{r7, lr}
 8007db8:	b086      	sub	sp, #24
 8007dba:	af00      	add	r7, sp, #0
 8007dbc:	60f8      	str	r0, [r7, #12]
 8007dbe:	607a      	str	r2, [r7, #4]
 8007dc0:	461a      	mov	r2, r3
 8007dc2:	460b      	mov	r3, r1
 8007dc4:	72fb      	strb	r3, [r7, #11]
 8007dc6:	4613      	mov	r3, r2
 8007dc8:	813b      	strh	r3, [r7, #8]
 8007dca:	2300      	movs	r3, #0
 8007dcc:	75fb      	strb	r3, [r7, #23]
 8007dce:	2300      	movs	r3, #0
 8007dd0:	75bb      	strb	r3, [r7, #22]
 8007dd2:	68fb      	ldr	r3, [r7, #12]
 8007dd4:	f8d3 02c0 	ldr.w	r0, [r3, #704]	; 0x2c0
 8007dd8:	893b      	ldrh	r3, [r7, #8]
 8007dda:	7af9      	ldrb	r1, [r7, #11]
 8007ddc:	687a      	ldr	r2, [r7, #4]
 8007dde:	f7f9 fffe 	bl	8001dde <HAL_PCD_EP_Transmit>
 8007de2:	4603      	mov	r3, r0
 8007de4:	75fb      	strb	r3, [r7, #23]
 8007de6:	7dfb      	ldrb	r3, [r7, #23]
 8007de8:	4618      	mov	r0, r3
 8007dea:	f000 f85d 	bl	8007ea8 <USBD_Get_USB_Status>
 8007dee:	4603      	mov	r3, r0
 8007df0:	75bb      	strb	r3, [r7, #22]
 8007df2:	7dbb      	ldrb	r3, [r7, #22]
 8007df4:	4618      	mov	r0, r3
 8007df6:	3718      	adds	r7, #24
 8007df8:	46bd      	mov	sp, r7
 8007dfa:	bd80      	pop	{r7, pc}

08007dfc <USBD_LL_PrepareReceive>:
 8007dfc:	b580      	push	{r7, lr}
 8007dfe:	b086      	sub	sp, #24
 8007e00:	af00      	add	r7, sp, #0
 8007e02:	60f8      	str	r0, [r7, #12]
 8007e04:	607a      	str	r2, [r7, #4]
 8007e06:	461a      	mov	r2, r3
 8007e08:	460b      	mov	r3, r1
 8007e0a:	72fb      	strb	r3, [r7, #11]
 8007e0c:	4613      	mov	r3, r2
 8007e0e:	813b      	strh	r3, [r7, #8]
 8007e10:	2300      	movs	r3, #0
 8007e12:	75fb      	strb	r3, [r7, #23]
 8007e14:	2300      	movs	r3, #0
 8007e16:	75bb      	strb	r3, [r7, #22]
 8007e18:	68fb      	ldr	r3, [r7, #12]
 8007e1a:	f8d3 02c0 	ldr.w	r0, [r3, #704]	; 0x2c0
 8007e1e:	893b      	ldrh	r3, [r7, #8]
 8007e20:	7af9      	ldrb	r1, [r7, #11]
 8007e22:	687a      	ldr	r2, [r7, #4]
 8007e24:	f7f9 ff87 	bl	8001d36 <HAL_PCD_EP_Receive>
 8007e28:	4603      	mov	r3, r0
 8007e2a:	75fb      	strb	r3, [r7, #23]
 8007e2c:	7dfb      	ldrb	r3, [r7, #23]
 8007e2e:	4618      	mov	r0, r3
 8007e30:	f000 f83a 	bl	8007ea8 <USBD_Get_USB_Status>
 8007e34:	4603      	mov	r3, r0
 8007e36:	75bb      	strb	r3, [r7, #22]
 8007e38:	7dbb      	ldrb	r3, [r7, #22]
 8007e3a:	4618      	mov	r0, r3
 8007e3c:	3718      	adds	r7, #24
 8007e3e:	46bd      	mov	sp, r7
 8007e40:	bd80      	pop	{r7, pc}

08007e42 <USBD_LL_GetRxDataSize>:
 8007e42:	b580      	push	{r7, lr}
 8007e44:	b082      	sub	sp, #8
 8007e46:	af00      	add	r7, sp, #0
 8007e48:	6078      	str	r0, [r7, #4]
 8007e4a:	460b      	mov	r3, r1
 8007e4c:	70fb      	strb	r3, [r7, #3]
 8007e4e:	687b      	ldr	r3, [r7, #4]
 8007e50:	f8d3 32c0 	ldr.w	r3, [r3, #704]	; 0x2c0
 8007e54:	78fa      	ldrb	r2, [r7, #3]
 8007e56:	4611      	mov	r1, r2
 8007e58:	4618      	mov	r0, r3
 8007e5a:	f7f9 ffa9 	bl	8001db0 <HAL_PCD_EP_GetRxCount>
 8007e5e:	4603      	mov	r3, r0
 8007e60:	4618      	mov	r0, r3
 8007e62:	3708      	adds	r7, #8
 8007e64:	46bd      	mov	sp, r7
 8007e66:	bd80      	pop	{r7, pc}

08007e68 <USBD_static_malloc>:
 8007e68:	b480      	push	{r7}
 8007e6a:	b083      	sub	sp, #12
 8007e6c:	af00      	add	r7, sp, #0
 8007e6e:	6078      	str	r0, [r7, #4]
 8007e70:	4b02      	ldr	r3, [pc, #8]	; (8007e7c <USBD_static_malloc+0x14>)
 8007e72:	4618      	mov	r0, r3
 8007e74:	370c      	adds	r7, #12
 8007e76:	46bd      	mov	sp, r7
 8007e78:	bc80      	pop	{r7}
 8007e7a:	4770      	bx	lr
 8007e7c:	200001c0 	.word	0x200001c0

08007e80 <USBD_static_free>:
 8007e80:	b480      	push	{r7}
 8007e82:	b083      	sub	sp, #12
 8007e84:	af00      	add	r7, sp, #0
 8007e86:	6078      	str	r0, [r7, #4]
 8007e88:	bf00      	nop
 8007e8a:	370c      	adds	r7, #12
 8007e8c:	46bd      	mov	sp, r7
 8007e8e:	bc80      	pop	{r7}
 8007e90:	4770      	bx	lr

08007e92 <HAL_PCDEx_SetConnectionState>:
 8007e92:	b480      	push	{r7}
 8007e94:	b083      	sub	sp, #12
 8007e96:	af00      	add	r7, sp, #0
 8007e98:	6078      	str	r0, [r7, #4]
 8007e9a:	460b      	mov	r3, r1
 8007e9c:	70fb      	strb	r3, [r7, #3]
 8007e9e:	bf00      	nop
 8007ea0:	370c      	adds	r7, #12
 8007ea2:	46bd      	mov	sp, r7
 8007ea4:	bc80      	pop	{r7}
 8007ea6:	4770      	bx	lr

08007ea8 <USBD_Get_USB_Status>:
 8007ea8:	b480      	push	{r7}
 8007eaa:	b085      	sub	sp, #20
 8007eac:	af00      	add	r7, sp, #0
 8007eae:	4603      	mov	r3, r0
 8007eb0:	71fb      	strb	r3, [r7, #7]
 8007eb2:	2300      	movs	r3, #0
 8007eb4:	73fb      	strb	r3, [r7, #15]
 8007eb6:	79fb      	ldrb	r3, [r7, #7]
 8007eb8:	2b03      	cmp	r3, #3
 8007eba:	d817      	bhi.n	8007eec <USBD_Get_USB_Status+0x44>
 8007ebc:	a201      	add	r2, pc, #4	; (adr r2, 8007ec4 <USBD_Get_USB_Status+0x1c>)
 8007ebe:	f852 f023 	ldr.w	pc, [r2, r3, lsl #2]
 8007ec2:	bf00      	nop
 8007ec4:	08007ed5 	.word	0x08007ed5
 8007ec8:	08007edb 	.word	0x08007edb
 8007ecc:	08007ee1 	.word	0x08007ee1
 8007ed0:	08007ee7 	.word	0x08007ee7
 8007ed4:	2300      	movs	r3, #0
 8007ed6:	73fb      	strb	r3, [r7, #15]
 8007ed8:	e00b      	b.n	8007ef2 <USBD_Get_USB_Status+0x4a>
 8007eda:	2302      	movs	r3, #2
 8007edc:	73fb      	strb	r3, [r7, #15]
 8007ede:	e008      	b.n	8007ef2 <USBD_Get_USB_Status+0x4a>
 8007ee0:	2301      	movs	r3, #1
 8007ee2:	73fb      	strb	r3, [r7, #15]
 8007ee4:	e005      	b.n	8007ef2 <USBD_Get_USB_Status+0x4a>
 8007ee6:	2302      	movs	r3, #2
 8007ee8:	73fb      	strb	r3, [r7, #15]
 8007eea:	e002      	b.n	8007ef2 <USBD_Get_USB_Status+0x4a>
 8007eec:	2302      	movs	r3, #2
 8007eee:	73fb      	strb	r3, [r7, #15]
 8007ef0:	bf00      	nop
 8007ef2:	7bfb      	ldrb	r3, [r7, #15]
 8007ef4:	4618      	mov	r0, r3
 8007ef6:	3714      	adds	r7, #20
 8007ef8:	46bd      	mov	sp, r7
 8007efa:	bc80      	pop	{r7}
 8007efc:	4770      	bx	lr
 8007efe:	bf00      	nop

08007f00 <__libc_init_array>:
 8007f00:	b570      	push	{r4, r5, r6, lr}
 8007f02:	2500      	movs	r5, #0
 8007f04:	4e0c      	ldr	r6, [pc, #48]	; (8007f38 <__libc_init_array+0x38>)
 8007f06:	4c0d      	ldr	r4, [pc, #52]	; (8007f3c <__libc_init_array+0x3c>)
 8007f08:	1ba4      	subs	r4, r4, r6
 8007f0a:	10a4      	asrs	r4, r4, #2
 8007f0c:	42a5      	cmp	r5, r4
 8007f0e:	d109      	bne.n	8007f24 <__libc_init_array+0x24>
 8007f10:	f000 f822 	bl	8007f58 <_init>
 8007f14:	2500      	movs	r5, #0
 8007f16:	4e0a      	ldr	r6, [pc, #40]	; (8007f40 <__libc_init_array+0x40>)
 8007f18:	4c0a      	ldr	r4, [pc, #40]	; (8007f44 <__libc_init_array+0x44>)
 8007f1a:	1ba4      	subs	r4, r4, r6
 8007f1c:	10a4      	asrs	r4, r4, #2
 8007f1e:	42a5      	cmp	r5, r4
 8007f20:	d105      	bne.n	8007f2e <__libc_init_array+0x2e>
 8007f22:	bd70      	pop	{r4, r5, r6, pc}
 8007f24:	f856 3025 	ldr.w	r3, [r6, r5, lsl #2]
 8007f28:	4798      	blx	r3
 8007f2a:	3501      	adds	r5, #1
 8007f2c:	e7ee      	b.n	8007f0c <__libc_init_array+0xc>
 8007f2e:	f856 3025 	ldr.w	r3, [r6, r5, lsl #2]
 8007f32:	4798      	blx	r3
 8007f34:	3501      	adds	r5, #1
 8007f36:	e7f2      	b.n	8007f1e <__libc_init_array+0x1e>
 8007f38:	08007fe4 	.word	0x08007fe4
 8007f3c:	08007fe4 	.word	0x08007fe4
 8007f40:	08007fe4 	.word	0x08007fe4
 8007f44:	08007fe8 	.word	0x08007fe8

08007f48 <memset>:
 8007f48:	4603      	mov	r3, r0
 8007f4a:	4402      	add	r2, r0
 8007f4c:	4293      	cmp	r3, r2
 8007f4e:	d100      	bne.n	8007f52 <memset+0xa>
 8007f50:	4770      	bx	lr
 8007f52:	f803 1b01 	strb.w	r1, [r3], #1
 8007f56:	e7f9      	b.n	8007f4c <memset+0x4>

08007f58 <_init>:
 8007f58:	b5f8      	push	{r3, r4, r5, r6, r7, lr}
 8007f5a:	bf00      	nop
 8007f5c:	bcf8      	pop	{r3, r4, r5, r6, r7}
 8007f5e:	bc08      	pop	{r3}
 8007f60:	469e      	mov	lr, r3
 8007f62:	4770      	bx	lr

08007f64 <_fini>:
 8007f64:	b5f8      	push	{r3, r4, r5, r6, r7, lr}
 8007f66:	bf00      	nop
 8007f68:	bcf8      	pop	{r3, r4, r5, r6, r7}
 8007f6a:	bc08      	pop	{r3}
 8007f6c:	469e      	mov	lr, r3
 8007f6e:	4770      	bx	lr
